 FreeCds

 Timestamp is 69e11fb0 (Thu Apr 16 22:43:12 2026)

 Preferred load address is 00400000

 Start         Length     Name                   Class
 0001:00000000 0011d12aH .textbss                DATA
 0002:00000000 00221f46H .text                   CODE
 0002:00221f50 00021f6aH .text$x                 CODE
 0002:00243ec0 00001c41H .text$yc                CODE
 0002:00245b10 00001c9bH .text$yd                CODE
 0003:00000000 00000104H .CRT$XCA                DATA
 0003:00000104 00000104H .CRT$XCAA               DATA
 0003:00000208 0000010eH .CRT$XCC                DATA
 0003:00000318 0000018eH .CRT$XCL                DATA
 0003:000004a8 00000168H .CRT$XCU                DATA
 0003:00000610 00000104H .CRT$XCZ                DATA
 0003:00000714 00000104H .CRT$XIA                DATA
 0003:00000818 00000104H .CRT$XIAA               DATA
 0003:0000091c 00000104H .CRT$XIC                DATA
 0003:00000a20 00000104H .CRT$XIY                DATA
 0003:00000b24 00000104H .CRT$XIZ                DATA
 0003:00000c30 0002ff90H .rdata                  DATA
 0003:00030bc0 0000015dH .rdata$debug            DATA
 0003:00030d20 00002426H .rdata$r                DATA
 0003:00033148 00000104H .rtc$IAA                DATA
 0003:0003324c 000002beH .rtc$IMZ                DATA
 0003:0003350c 00000104H .rtc$IZZ                DATA
 0003:00033610 00000104H .rtc$TAA                DATA
 0003:00033714 000002beH .rtc$TMZ                DATA
 0003:000339d4 00000104H .rtc$TZZ                DATA
 0003:00033ad8 00011687H .xdata$x                DATA
 0003:00045160 00000104H ATL$__a                 DATA
 0003:00045264 00000104H ATL$__z                 DATA
 0003:00045368 00000000H .edata                  DATA
 0004:00000000 0000d9dfH .data                   DATA
 0004:0000d9e0 00000e74H .bss                    DATA
 0005:00000000 000000dcH .idata$2                DATA
 0005:000000dc 00000014H .idata$3                DATA
 0005:000000f0 000014d0H .idata$4                DATA
 0005:000015c0 000014d0H .idata$5                DATA
 0005:00002a90 00002022H .idata$6                DATA
 0006:00000000 0000253eH .rsrc$01                DATA
 0006:00002540 00147e03H .rsrc$02                DATA

  Address         Publics by Value              Rva+Base       Lib:Object

 0000:00000000       __except_list              00000000     <absolute>
 0000:00000000       ___safe_se_handler_table   00000000     <absolute>
 0000:00000000       ___safe_se_handler_count   00000000     <absolute>
 0000:00009876       __fltused                  00009876     <absolute>
 0000:00009876       __ldused                   00009876     <absolute>
 0000:00000000       ___ImageBase               00400000     <linker-defined>
 0001:00000000       __enc$textbss$begin        00401000     <linker-defined>
 0001:0011d12a       __enc$textbss$end          0051e12a     <linker-defined>
 0002:00009fe0       ?AfxAssertFailedLine@@YGHPBDH@Z 00528fe0 f   afxasert.obj
 0002:0000a0d0       ??0BomInTable@@QAE@PAVCFreePcbDoc@@@Z 005290d0 f   BomInTable.obj
 0002:0000a240       ??A?$CArray@VCPoint@@ABV1@@@QAEAAVCPoint@@H@Z 00529240 f i DisplayList.obj
 0002:0000a2a0       ?MakeReport@BomInTable@@QAEXXZ 005292a0 f   BomInTable.obj
 0002:0000cae0       ?MakeFirst@CPolyLine@@QAEXH@Z 0052bae0 f   PolyLine.obj
 0002:0000cd60       ?SetMainMenu@CFreePcbView@@QAEXH@Z 0052bd60 f   FreePcbView.obj
 0002:0000ce00       ?SetSize@?$CArray@Vid@@ABV1@@@QAEXHH@Z 0052be00 f i FreePcbView.obj
 0002:0000d390       ?GetMapping@CDisplayList@@QAEHPAVCRect@@PAH1PAN22@Z 0052c390 f   DisplayList.obj
 0002:0000d4e0       ?GetURL@BomInTable@@QAE?AV?$CStringT@DV?$StrTraitMFC_DLL@DV?$ChTraitsCRT@D@ATL@@@@@ATL@@PAV23@0PAH1@Z 0052c4e0 f   BomInTable.obj
 0002:0000e070       ?RemoveAll@CDisplayList@@QAEXXZ 0052d070 f   DisplayList.obj
 0002:0000e2a0       ?HighlightAll@CDisplayList@@QAEHXZ 0052d2a0 f   DisplayList.obj
 0002:0000e360       ?PushRows@BomInTable@@AAEHHH@Z 0052d360 f   BomInTable.obj
 0002:0000e650       ?CancelHighLight@CDisplayList@@QAEHH@Z 0052d650 f   DisplayList.obj
 0002:0000e710       ?ReadParamsFromTagFile@BomInTable@@AAEHXZ 0052d710 f   BomInTable.obj
 0002:0000f950       ?SetMapping@CDisplayList@@QAEXPAVCRect@@0HHNHH@Z 0052e950 f   DisplayList.obj
 0002:0000fc20       ?CopyToLayer@CDisplayList@@QAEPAVdl_element@@PAV2@H@Z 0052ec20 f   DisplayList.obj
 0002:0000fde0       ?GetCName@BomInTable@@QAE?AV?$CStringT@DV?$StrTraitMFC_DLL@DV?$ChTraitsCRT@D@ATL@@@@@ATL@@PAV23@0@Z 0052ede0 f   BomInTable.obj
 0002:00010250       ?Move@CDisplayList@@QAEXPAVdl_element@@HH@Z 0052f250 f   DisplayList.obj
 0002:00010360       ?AddObject@BomInTable@@AAEXHPAV?$CStringT@DV?$StrTraitMFC_DLL@DV?$ChTraitsCRT@D@ATL@@@@@ATL@@000@Z 0052f360 f   BomInTable.obj
 0002:00010c50       ?Get_Points@CDisplayList@@QAEPAV?$CArray@VCPoint@@ABV1@@@PAVdl_element@@PAVCPoint@@PAHHH@Z 0052fc50 f   DisplayList.obj
 0002:00010d60       ?PCBToScreen@CDisplayList@@QAE?AVCPoint@@V2@@Z 0052fd60 f   DisplayList.obj
 0002:00010e80       ?RemoveEmptyRows@BomInTable@@AAEXXZ 0052fe80 f   BomInTable.obj
 0002:00011240       ?GetClientRect@CDisplayList@@QAE?AUtagRECT@@H@Z 00530240 f   DisplayList.obj
 0002:00011330       ?PushBack@BomInTable@@AAEHHH@Z 00530330 f   BomInTable.obj
 0002:000113e0       ?RedrawNumbers@BomInTable@@AAEHXZ 005303e0 f   BomInTable.obj
 0002:000115d0       ??0?$CArray@VCPoint@@ABV1@@@QAE@XZ 005305d0 f i DisplayList.obj
 0002:00011650       ?FindNextRow@BomInTable@@AAEHPAV?$CStringT@DV?$StrTraitMFC_DLL@DV?$ChTraitsCRT@D@ATL@@@@@ATL@@@Z 00530650 f   BomInTable.obj
 0002:000121a0       ?Remove@CDisplayList@@QAE?AVid@@PAVdl_element@@@Z 005311a0 f   DisplayList.obj
 0002:00012330       ?MoveTemplate@CDisplayList@@QAEXPAUtagRECT@@HH@Z 00531330 f   DisplayList.obj
 0002:00012470       ?ParseString@BomInTable@@AAEPAVCText@@PAV2@H@Z 00531470 f   BomInTable.obj
 0002:00012880       ??0?$CArray@PAUCTemplate@@ABQAU1@@@QAE@XZ 00531880 f i DisplayList.obj
 0002:00012980       ?AddPString@BomInTable@@AAEHPAVCText@@HHH@Z 00531980 f   BomInTable.obj
 0002:00012bc0       ??HATL@@YA?AV?$CStringT@DV?$StrTraitMFC_DLL@DV?$ChTraitsCRT@D@ATL@@@@@0@ABV10@0@Z 00531bc0 f i BomInTable.obj
 0002:00012d80       ??HATL@@YA?AV?$CStringT@DV?$StrTraitMFC_DLL@DV?$ChTraitsCRT@D@ATL@@@@@0@ABV10@PBD@Z 00531d80 f i BomInTable.obj
 0002:00012f30       ??HATL@@YA?AV?$CStringT@DV?$StrTraitMFC_DLL@DV?$ChTraitsCRT@D@ATL@@@@@0@PBDABV10@@Z 00531f30 f i BomInTable.obj
 0002:000130e0       ??8ATL@@YA_NABV?$CStringT@DV?$StrTraitMFC_DLL@DV?$ChTraitsCRT@D@ATL@@@@@0@PBD@Z 005320e0 f i BomInTable.obj
 0002:00013150       ??9ATL@@YA_NABV?$CStringT@DV?$StrTraitMFC_DLL@DV?$ChTraitsCRT@D@ATL@@@@@0@PBD@Z 00532150 f i BomInTable.obj
 0002:000131c0       ?GetAt@?$CArray@V?$CStringT@DV?$StrTraitMFC_DLL@DV?$ChTraitsCRT@D@ATL@@@@@ATL@@ABV12@@@QAEAAV?$CStringT@DV?$StrTraitMFC_DLL@DV?$ChTraitsCRT@D@ATL@@@@@ATL@@H@Z 005321c0 f i BomInTable.obj
 0002:00013270       ?GetSize@?$CArray@VCPolyLine@@ABV1@@@QBEHXZ 00532270 f i BomInTable.obj
 0002:000132b0       ?GetAt@?$CArray@VCPolyLine@@ABV1@@@QAEAAVCPolyLine@@H@Z 005322b0 f i BomInTable.obj
 0002:00013360       ??0?$CArray@PAVCText@@ABQAV1@@@QAE@XZ 00532360 f i BomInTable.obj
 0002:000133f0       ?RemoveAll@?$CArray@PAVCText@@ABQAV1@@@QAEXXZ 005323f0 f i BomInTable.obj
 0002:00013450       ?GetAt@?$CArray@PAVCText@@ABQAV1@@@QAEAAPAVCText@@H@Z 00532450 f i BomInTable.obj
 0002:00013500       ?Add@?$CArray@PAVCText@@ABQAV1@@@QAEHABQAVCText@@@Z 00532500 f i BomInTable.obj
 0002:00013570       ?RemoveAt@?$CArray@PAVCText@@ABQAV1@@@QAEXHH@Z 00532570 f i BomInTable.obj
 0002:00013720       ?SetAtGrow@?$CArray@PAVCText@@ABQAV1@@@QAEXHABQAVCText@@@Z 00532720 f i BomInTable.obj
 0002:000137f0       ?memmove_s@Checked@ATL@@YAXPAXIPBXI@Z 005327f0 f i BomInTable.obj
 0002:00013870       ?AfxCrtErrorCheck@@YAHH@Z  00532870 f i BomInTable.obj
 0002:00013980       ?GetIndex@StrList@@QAEHV?$CStringT@DV?$StrTraitMFC_DLL@DV?$ChTraitsCRT@D@ATL@@@@@ATL@@@Z 00532980 f i BomInTable.obj
 0002:00013ae0       ??0?$CArray@V?$CStringT@DV?$StrTraitMFC_DLL@DV?$ChTraitsCRT@D@ATL@@@@@ATL@@ABV12@@@QAE@XZ 00532ae0 f i BomInTable.obj
 0002:00013b70       ?GetSize@?$CArray@V?$CStringT@DV?$StrTraitMFC_DLL@DV?$ChTraitsCRT@D@ATL@@@@@ATL@@ABV12@@@QBEHXZ 00532b70 f i BomInTable.obj
 0002:00013bb0       ?SetSize@?$CArray@V?$CStringT@DV?$StrTraitMFC_DLL@DV?$ChTraitsCRT@D@ATL@@@@@ATL@@ABV12@@@QAEXHH@Z 00532bb0 f i BomInTable.obj
 0002:000140e0       ?AssertValid@?$CArray@VCPoint@@ABV1@@@UBEXXZ 005330e0 f i DisplayList.obj
 0002:00014230       ??2@YAPAXIPAX@Z            00533230 f i BomInTable.obj
 0002:00014270       ?memcpy_s@Checked@ATL@@YAXPAXIPBXI@Z 00533270 f i BomInTable.obj
 0002:000142f0       ?Add@?$CArray@V?$CStringT@DV?$StrTraitMFC_DLL@DV?$ChTraitsCRT@D@ATL@@@@@ATL@@ABV12@@@QAEHABV?$CStringT@DV?$StrTraitMFC_DLL@DV?$ChTraitsCRT@D@ATL@@@@@ATL@@@Z 005332f0 f i BomInTable.obj
 0002:00014360       ??A?$CArray@V?$CStringT@DV?$StrTraitMFC_DLL@DV?$ChTraitsCRT@D@ATL@@@@@ATL@@ABV12@@@QAEAAV?$CStringT@DV?$StrTraitMFC_DLL@DV?$ChTraitsCRT@D@ATL@@@@@ATL@@H@Z 00533360 f i BomInTable.obj
 0002:000143c0       ?RemoveAt@?$CArray@V?$CStringT@DV?$StrTraitMFC_DLL@DV?$ChTraitsCRT@D@ATL@@@@@ATL@@ABV12@@@QAEXHH@Z 005333c0 f i BomInTable.obj
 0002:00014590       ??1?$CArray@V?$CStringT@DV?$StrTraitMFC_DLL@DV?$ChTraitsCRT@D@ATL@@@@@ATL@@ABV12@@@UAE@XZ 00533590 f i BomInTable.obj
 0002:000146c0       ?Serialize@?$CArray@V?$CStringT@DV?$StrTraitMFC_DLL@DV?$ChTraitsCRT@D@ATL@@@@@ATL@@ABV12@@@UAEXAAVCArchive@@@Z 005336c0 f i BomInTable.obj
 0002:00014790       ?Dump@?$CArray@V?$CStringT@DV?$StrTraitMFC_DLL@DV?$ChTraitsCRT@D@ATL@@@@@ATL@@ABV12@@@UBEXAAVCDumpContext@@@Z 00533790 f i BomInTable.obj
 0002:00014870       ?AssertValid@?$CArray@V?$CStringT@DV?$StrTraitMFC_DLL@DV?$ChTraitsCRT@D@ATL@@@@@ATL@@ABV12@@@UBEXXZ 00533870 f i BomInTable.obj
 0002:000149d0       ?GetSize@?$CArray@PAVCText@@ABQAV1@@@QBEHXZ 005339d0 f i BomInTable.obj
 0002:00014a10       ??1?$CArray@PAVCText@@ABQAV1@@@UAE@XZ 00533a10 f i BomInTable.obj
 0002:00014b20       ?Serialize@?$CArray@PAVCText@@ABQAV1@@@UAEXAAVCArchive@@@Z 00533b20 f i BomInTable.obj
 0002:00014bf0       ?Dump@?$CArray@PAVCText@@ABQAV1@@@UBEXAAVCDumpContext@@@Z 00533bf0 f i BomInTable.obj
 0002:00014cd0       ?AssertValid@?$CArray@PAVCText@@ABQAV1@@@UBEXXZ 00533cd0 f i BomInTable.obj
 0002:00014e30       ??_E?$CArray@V?$CStringT@DV?$StrTraitMFC_DLL@DV?$ChTraitsCRT@D@ATL@@@@@ATL@@ABV12@@@UAEPAXI@Z 00533e30 f i BomInTable.obj
 0002:00014e30       ??_G?$CArray@V?$CStringT@DV?$StrTraitMFC_DLL@DV?$ChTraitsCRT@D@ATL@@@@@ATL@@ABV12@@@UAEPAXI@Z 00533e30 f i BomInTable.obj
 0002:00014ea0       ??_G?$CStringT@DV?$StrTraitMFC_DLL@DV?$ChTraitsCRT@D@ATL@@@@@ATL@@QAEPAXI@Z 00533ea0 f i BomInTable.obj
 0002:00014f20       ??_G?$CArray@PAVCText@@ABQAV1@@@UAEPAXI@Z 00533f20 f i BomInTable.obj
 0002:00014f20       ??_E?$CArray@PAVCText@@ABQAV1@@@UAEPAXI@Z 00533f20 f i BomInTable.obj
 0002:00014f90       ?ElementAt@?$CArray@V?$CStringT@DV?$StrTraitMFC_DLL@DV?$ChTraitsCRT@D@ATL@@@@@ATL@@ABV12@@@QAEAAV?$CStringT@DV?$StrTraitMFC_DLL@DV?$ChTraitsCRT@D@ATL@@@@@ATL@@H@Z 00533f90 f i BomInTable.obj
 0002:00015040       ?SetAtGrow@?$CArray@V?$CStringT@DV?$StrTraitMFC_DLL@DV?$ChTraitsCRT@D@ATL@@@@@ATL@@ABV12@@@QAEXHABV?$CStringT@DV?$StrTraitMFC_DLL@DV?$ChTraitsCRT@D@ATL@@@@@ATL@@@Z 00534040 f i BomInTable.obj
 0002:00015120       ??$DumpElements@V?$CStringT@DV?$StrTraitMFC_DLL@DV?$ChTraitsCRT@D@ATL@@@@@ATL@@@@YGXAAVCDumpContext@@PBV?$CStringT@DV?$StrTraitMFC_DLL@DV?$ChTraitsCRT@D@ATL@@@@@ATL@@H@Z 00534120 f i BomInTable.obj
 0002:00015210       ?SetSize@?$CArray@PAVCText@@ABQAV1@@@QAEXHH@Z 00534210 f i BomInTable.obj
 0002:00015680       ?Dump@?$CArray@PAUCTemplate@@ABQAU1@@@UBEXAAVCDumpContext@@@Z 00534680 f i DisplayList.obj
 0002:000157a0       ??$SerializeElements@PAVCText@@@@YGXAAVCArchive@@PAPAVCText@@H@Z 005347a0 f i BomInTable.obj
 0002:00015990       ??$DumpElements@PAVCText@@@@YGXAAVCDumpContext@@PBQAVCText@@H@Z 00534990 f i BomInTable.obj
 0002:00015a80       ??0CCompare@@QAE@XZ        00534a80 f   CCompare.obj
 0002:00015ac0       ??1CCompare@@QAE@XZ        00534ac0 f   CCompare.obj
 0002:00015b00       ?Compare@CCompare@@QAEXPAVCFreePcbDoc@@H@Z 00534b00 f   CCompare.obj
 0002:00015d90       ?ComparePartlist@CDlgCompare@@QAEHHH@Z 00534d90 f   CCompare.obj
 0002:00016860       ?SetUpCrosshairs@CDisplayList@@QAEXHHH@Z 00535860 f   DisplayList.obj
 0002:00016b10       ?CompareNetlist@CDlgCompare@@QAEHHH@Z 00535b10 f   CCompare.obj
 0002:00018d80       ?ImportPartlist@CDlgPartlist@@QAEXH@Z 00537d80 f   DlgPartlist.obj
 0002:00019610       ?DATA5_FindNet@CDlgCompare@@QAEHPAV?$CStringT@DV?$StrTraitMFC_DLL@DV?$ChTraitsCRT@D@ATL@@@@@ATL@@@Z 00538610 f   CCompare.obj
 0002:00019870       ?Conformity@CDlgCompare@@QAEHPAV?$CStringT@DV?$StrTraitMFC_DLL@DV?$ChTraitsCRT@D@ATL@@@@@ATL@@0@Z 00538870 f   CCompare.obj
 0002:00019cb0       ??$DumpElements@PAUCTemplate@@@@YGXAAVCDumpContext@@PBQAUCTemplate@@H@Z 00538cb0 f i DisplayList.obj
 0002:00019dc0       ?FindPin@CDlgCompare@@QAEPAVCPolyLine@@PAVCText@@PAV?$CStringT@DV?$StrTraitMFC_DLL@DV?$ChTraitsCRT@D@ATL@@@@@ATL@@PAV?$CArray@VCPolyLine@@ABV1@@@@Z 00538dc0 f   CCompare.obj
 0002:0001a020       ?FindPartByCoordinates@CDlgCompare@@QAEPAVCText@@PAV?$CArray@VCPolyLine@@ABV1@@@HHPAV?$CStringT@DV?$StrTraitMFC_DLL@DV?$ChTraitsCRT@D@ATL@@@@@ATL@@H@Z 00539020 f   CCompare.obj
 0002:0001a480       ?_GetBaseClass@CDlgCompare@@KGPAUCRuntimeClass@@XZ 00539480 f   CCompare.obj
 0002:0001a4d0       ?GetThisClass@CDlgCompare@@SGPAUCRuntimeClass@@XZ 005394d0 f   CCompare.obj
 0002:0001a510       ?GetRuntimeClass@CDlgCompare@@UBEPAUCRuntimeClass@@XZ 00539510 f   CCompare.obj
 0002:0001a550       ??0CDlgCompare@@QAE@PAVCWnd@@@Z 00539550 f   CCompare.obj
 0002:0001a880       ??_ECDlgCompare@@UAEPAXI@Z 00539880 f i CCompare.obj
 0002:0001a880       ??_GCDlgCompare@@UAEPAXI@Z 00539880 f i CCompare.obj
 0002:0001a8f0       ?GetMessageMap@CDlgCompare@@MBEPBUAFX_MSGMAP@@XZ 005398f0 f   CCompare.obj
 0002:0001a940       ?GetThisMessageMap@CDlgCompare@@KGPBUAFX_MSGMAP@@XZ 00539940 f   CCompare.obj
 0002:0001a980       ??1CDlgCompare@@UAE@XZ     00539980 f   CCompare.obj
 0002:0001ac00       ?DoDataExchange@CDlgCompare@@MAEXPAVCDataExchange@@@Z 00539c00 f   CCompare.obj
 0002:0001b080       ?AssertValid@?$CArray@PAUCTemplate@@ABQAU1@@@UBEXXZ 0053a080 f i DisplayList.obj
 0002:0001b1a0       ?OnBnClickedCompare@CDlgCompare@@QAEXXZ 0053a1a0 f   CCompare.obj
 0002:0001b5e0       ?OnLbnSelchangeListDiff1@CDlgCompare@@QAEXXZ 0053a5e0 f   CCompare.obj
 0002:0001b680       ?OnLbnSelchangeListDiff2@CDlgCompare@@QAEXXZ 0053a680 f   CCompare.obj
 0002:0001b720       ?OnLbnSelchangeListDiff3@CDlgCompare@@QAEXXZ 0053a720 f   CCompare.obj
 0002:0001b7c0       ?OnLbnSelchangeListDiff4@CDlgCompare@@QAEXXZ 0053a7c0 f   CCompare.obj
 0002:0001b860       ?OnLbnSelchangeListDiff5@CDlgCompare@@QAEXXZ 0053a860 f   CCompare.obj
 0002:0001b900       ?OnLbnSelchangeListDiff6@CDlgCompare@@QAEXXZ 0053a900 f   CCompare.obj
 0002:0001b970       ?OnAddedDblClick@CDlgCompare@@QAEXXZ 0053a970 f   CCompare.obj
 0002:0001bcd0       ?OnDeletedDblClick@CDlgCompare@@QAEXXZ 0053acd0 f   CCompare.obj
 0002:0001c090       ?OnValueDblClick@CDlgCompare@@QAEXXZ 0053b090 f   CCompare.obj
 0002:0001c500       ?OnFootprintDblClick@CDlgCompare@@QAEXXZ 0053b500 f   CCompare.obj
 0002:0001c970       ?OnPinsNetsDblClick@CDlgCompare@@QAEXXZ 0053b970 f   CCompare.obj
 0002:0001d4f0       ?AddSource@CDisplayList@@QAEHPAV?$CStringT@DV?$StrTraitMFC_DLL@DV?$ChTraitsCRT@D@ATL@@@@@ATL@@@Z 0053c4f0 f   DisplayList.obj
 0002:0001d7d0       ?OnSwapPinsDblClick@CDlgCompare@@QAEXXZ 0053c7d0 f   CCompare.obj
 0002:0001dc40       ?OnBnClickedChParts@CDlgCompare@@QAEXXZ 0053cc40 f   CCompare.obj
 0002:0001dcd0       ?OnBnClickedChNets@CDlgCompare@@QAEXXZ 0053ccd0 f   CCompare.obj
 0002:0001dd60       ?ReloadPages@CDlgCompare@@QAEXXZ 0053cd60 f   CCompare.obj
 0002:0001e170       ?OnBnClickedSelect1@CDlgCompare@@QAEXXZ 0053d170 f   CCompare.obj
 0002:0001e500       ?OnBnClickedSelect4@CDlgCompare@@QAEXXZ 0053d500 f   CCompare.obj
 0002:0001e760       ?OnBnClickedSelect2@CDlgCompare@@QAEXXZ 0053d760 f   CCompare.obj
 0002:0001ec00       ?OnBnClickedSelect3@CDlgCompare@@QAEXXZ 0053dc00 f   CCompare.obj
 0002:0001f0a0       ?OnBnClickedRepairAll@CDlgCompare@@QAEXXZ 0053e0a0 f   CCompare.obj
 0002:0001fb00       ?GetTemplate@CDisplayList@@QAEHHPAV?$CStringT@DV?$StrTraitMFC_DLL@DV?$ChTraitsCRT@D@ATL@@@@@ATL@@PAUtagRECT@@PAH222@Z 0053eb00 f   DisplayList.obj
 0002:0001fda0       ?SelectNetlist@CDlgCompare@@QAEHXZ 0053eda0 f   CCompare.obj
 0002:00020570       ?GetTemplateSZ@CDisplayList@@QAE?AVCSize@@H@Z 0053f570 f   DisplayList.obj
 0002:00020760       ?OnBnClickedSelNl2@CDlgCompare@@QAEXXZ 0053f760 f   CCompare.obj
 0002:000208e0       ??9ATL@@YA_NABV?$CStringT@DV?$StrTraitMFC_DLL@DV?$ChTraitsCRT@D@ATL@@@@@0@0@Z 0053f8e0 f i CCompare.obj
 0002:00020960       ?SetAt@?$CArray@V?$CStringT@DV?$StrTraitMFC_DLL@DV?$ChTraitsCRT@D@ATL@@@@@ATL@@ABV12@@@QAEXHABV?$CStringT@DV?$StrTraitMFC_DLL@DV?$ChTraitsCRT@D@ATL@@@@@ATL@@@Z 0053f960 f i CCompare.obj
 0002:00020a20       ?GetNumTexts@CTextList@@QAEHXZ 0053fa20 f i CCompare.obj
 0002:00020a80       ?RemoveAll@?$CArray@V?$CStringT@DV?$StrTraitMFC_DLL@DV?$ChTraitsCRT@D@ATL@@@@@ATL@@ABV12@@@QAEXXZ 0053fa80 f i CCompare.obj
 0002:00020ae0       ?_GetBaseClass@CComponentNoteExt@@KGPAUCRuntimeClass@@XZ 0053fae0 f   ComponentNoteExt.obj
 0002:00020b30       ?GetThisClass@CComponentNoteExt@@SGPAUCRuntimeClass@@XZ 0053fb30 f   ComponentNoteExt.obj
 0002:00020b70       ?GetRuntimeClass@CComponentNoteExt@@UBEPAUCRuntimeClass@@XZ 0053fb70 f   ComponentNoteExt.obj
 0002:00020bb0       ??0CComponentNoteExt@@QAE@PAVCWnd@@@Z 0053fbb0 f   ComponentNoteExt.obj
 0002:00020d00       ??_GCComponentNoteExt@@UAEPAXI@Z 0053fd00 f i ComponentNoteExt.obj
 0002:00020d00       ??_ECComponentNoteExt@@UAEPAXI@Z 0053fd00 f i ComponentNoteExt.obj
 0002:00020d70       ??1CComponentNoteExt@@UAE@XZ 0053fd70 f   ComponentNoteExt.obj
 0002:00020e90       ?DoDataExchange@CComponentNoteExt@@MAEXPAVCDataExchange@@@Z 0053fe90 f   ComponentNoteExt.obj
 0002:000210f0       ?GetMessageMap@CComponentNoteExt@@MBEPBUAFX_MSGMAP@@XZ 005400f0 f   ComponentNoteExt.obj
 0002:00021140       ?GetThisMessageMap@CComponentNoteExt@@KGPBUAFX_MSGMAP@@XZ 00540140 f   ComponentNoteExt.obj
 0002:00021180       ?Initialize@CComponentNoteExt@@QAEXH@Z 00540180 f   ComponentNoteExt.obj
 0002:000211d0       ?OnBnClickedExfile@CComponentNoteExt@@QAEXXZ 005401d0 f   ComponentNoteExt.obj
 0002:00021250       ?Sync@CComponentNoteExt@@QAEXPAVCFreePcbDoc@@@Z 00540250 f   ComponentNoteExt.obj
 0002:00021fb0       ?SetDCToWorldCoords@CDisplayList@@QAEXPAVCDC@@00HH@Z 00540fb0 f   DisplayList.obj
 0002:00022300       ??0Cuid@@QAE@XZ            00541300 f   Cuid.obj
 0002:00022420       ?GetNewUID@Cuid@@QAEHXZ    00541420 f   Cuid.obj
 0002:00022600       ?ReleaseUID@Cuid@@QAEXI@Z  00541600 f   Cuid.obj
 0002:000226f0       ??0DRError@@QAE@XZ         005416f0 f   DesignRules.obj
 0002:00022800       ??1DRError@@QAE@XZ         00541800 f   DesignRules.obj
 0002:00022900       ??0DRErrorList@@QAE@XZ     00541900 f   DesignRules.obj
 0002:00022970       ??1DRErrorList@@QAE@XZ     00541970 f   DesignRules.obj
 0002:00022a20       ?SetLists@DRErrorList@@QAEXPAVCDisplayList@@PAV?$CArray@VCPolyLine@@ABV1@@@@Z 00541a20 f   DesignRules.obj
 0002:00022a70       ?Clear@DRErrorList@@QAEXXZ 00541a70 f   DesignRules.obj
 0002:00022b40       ??_GDRError@@QAEPAXI@Z     00541b40 f i DesignRules.obj
 0002:00022bb0       ?Remove@DRErrorList@@QAEXPAVDRError@@@Z 00541bb0 f   DesignRules.obj
 0002:00022c80       ?Add@DRErrorList@@QAEPAVDRError@@PAV?$CStringT@DV?$StrTraitMFC_DLL@DV?$ChTraitsCRT@D@ATL@@@@@ATL@@Vid@@1HHHHHHPAVCText@@2@Z 00541c80 f   DesignRules.obj
 0002:000230a0       ?HighLight@DRErrorList@@QAEXPAVDRError@@@Z 005420a0 f   DesignRules.obj
 0002:00023310       ?MakeSolidCircles@DRErrorList@@QAEXH@Z 00542310 f   DesignRules.obj
 0002:00023490       ?MakeHollowCircles@DRErrorList@@QAEXXZ 00542490 f   DesignRules.obj
 0002:00023690       ?MoveOrigin@DRErrorList@@QAEXHH@Z 00542690 f   DesignRules.obj
 0002:00023810       ??A?$CArray@PAVdl_element@@ABQAV1@@@QAEAAPAVdl_element@@H@Z 00542810 f i DesignRules.obj
 0002:00023870       ?ElementAt@?$CArray@PAVdl_element@@ABQAV1@@@QAEAAPAVdl_element@@H@Z 00542870 f i DesignRules.obj
 0002:00023920       ??0id@@QAE@HHHHH@Z         00542920 f i DesignRules.obj
 0002:000239a0       ??0CDisplayList@@QAE@XZ    005429a0 f   DisplayList.obj
 0002:00023e70       ??0dl_element@@QAE@XZ      00542e70 f i DisplayList.obj
 0002:00023ee0       ??1dl_element@@QAE@XZ      00542ee0 f i DisplayList.obj
 0002:00023f40       ??_H@YGXPAXIHP6EPAX0@Z@Z   00542f40 f i DisplayList.obj
 0002:00024040       ??1CDisplayList@@QAE@XZ    00543040 f   DisplayList.obj
 0002:00024110       ??$SerializeElements@PAUCTemplate@@@@YGXAAVCArchive@@PAPAUCTemplate@@H@Z 00543110 f i DisplayList.obj
 0002:00024370       ??_GCTemplate@@QAEPAXI@Z   00543370 f i DisplayList.obj
 0002:000243d0       ??1CTemplate@@QAE@XZ       005433d0 f i DisplayList.obj
 0002:00024420       ?Add@CDisplayList@@QAEPAVdl_element@@PAXVid@@HHHPAUtagRECT@@HPAVCPoint@@HHPAV2@@Z 00543420 f   DisplayList.obj
 0002:00024930       ?AddSelector@CDisplayList@@QAEPAVdl_element@@PAXVid@@HHPAUtagRECT@@HPAVCPoint@@HH@Z 00543930 f   DisplayList.obj
 0002:00024ac0       ?AddSelector@CDisplayList@@QAEPAVdl_element@@PAV2@@Z 00543ac0 f   DisplayList.obj
 0002:00024c10       ?GetElById@CDisplayList@@QAEPAVdl_element@@HH@Z 00543c10 f   DisplayList.obj
 0002:00024d20       ?GetHighlightedBounds@CDisplayList@@QAE?AUtagRECT@@PAHH@Z 00543d20 f   DisplayList.obj
 0002:00025110       ?HighLight@CDisplayList@@QAEXPAVdl_element@@@Z 00544110 f   DisplayList.obj
 0002:000253c0       ?HighLight@CDisplayList@@QAEPAVdl_element@@HPAUtagRECT@@HPAVCPoint@@HH@Z 005443c0 f   DisplayList.obj
 0002:00025560       ?HighlightRect@CDisplayList@@QAEPAVdl_element@@PAUtagRECT@@HHH@Z 00544560 f   DisplayList.obj
 0002:00025650       ?HighlightSelRect@CDisplayList@@QAE?AUtagRECT@@H@Z 00544650 f   DisplayList.obj
 0002:00025710       ?SetTemplate@CDisplayList@@QAEXPAV?$CStringT@DV?$StrTraitMFC_DLL@DV?$ChTraitsCRT@D@ATL@@@@@ATL@@PAUtagRECT@@HH@Z 00544710 f   DisplayList.obj
 0002:00025c30       ?Get_Start@CDisplayList@@QAEPAVdl_element@@H@Z 00544c30 f   DisplayList.obj
 0002:00025c80       ?Get_End@CDisplayList@@QAEPAVdl_element@@H@Z 00544c80 f   DisplayList.obj
 0002:00025d20       ?Get_Rect@CDisplayList@@QAEPAUtagRECT@@PAVdl_element@@PAU2@@Z 00544d20 f   DisplayList.obj
 0002:00025ec0       ?Get_el_w@CDisplayList@@QAEHPAVdl_element@@@Z 00544ec0 f   DisplayList.obj
 0002:00025f30       ?Get_Selected@CDisplayList@@QAEHXZ 00544f30 f   DisplayList.obj
 0002:00025fd0       ?Get_Endpoints@CDisplayList@@QAEXPAVCPoint@@0@Z 00544fd0 f   DisplayList.obj
 0002:00026060       ?HLTClear@CDisplayList@@QAEXXZ 00545060 f   DisplayList.obj
 0002:000262c0       ??_Gdl_element@@QAEPAXI@Z  005452c0 f i DisplayList.obj
 0002:00026380       ?ProcessMessages@CDisplayList@@QAEHXZ 00545380 f   DisplayList.obj
 0002:00026420       ?Draw@CDisplayList@@QAEXPAVCDC@@H@Z 00545420 f   DisplayList.obj
 0002:0002afd0       ?SetSize@?$CArray@VCPoint@@ABV1@@@QAEXHH@Z 00549fd0 f i DisplayList.obj
 0002:0002b4c0       ?SetSize@?$CArray@PAUCTemplate@@ABQAU1@@@QAEXHH@Z 0054a4c0 f i DisplayList.obj
 0002:0002bde0       ?SetLayerRGB@CDisplayList@@QAEXHHHH@Z 0054ade0 f   DisplayList.obj
 0002:0002be60       ?SetLayerVisible@CDisplayList@@QAEXHH@Z 0054ae60 f   DisplayList.obj
 0002:0002beb0       ?TestSelect@CDisplayList@@QAEPAXHHPAVid@@PAH0PAX0HHPAV?$CArray@VCPolyLine@@ABV1@@@@Z 0054aeb0 f   DisplayList.obj
 0002:0002d370       ??_Fid@@QAEXXZ             0054c370 f i DisplayList.obj
 0002:0002d3d0       ?StartDraggingArray@CDisplayList@@QAEHPAVCDC@@HHH@Z 0054c3d0 f   DisplayList.obj
 0002:0002d4e0       ?StartDraggingRectangle@CDisplayList@@QAEHPAVCDC@@HHHHHHH@Z 0054c4e0 f   DisplayList.obj
 0002:0002d690       ?StartDraggingRatLine@CDisplayList@@QAEHPAVCDC@@HHHHHHH@Z 0054c690 f   DisplayList.obj
 0002:0002d7a0       ?SetDragArcStyle@CDisplayList@@QAEXH@Z 0054c7a0 f   DisplayList.obj
 0002:0002d830       ?StartDraggingArc@CDisplayList@@QAEHPAVCDC@@HHHHHHHH@Z 0054c830 f   DisplayList.obj
 0002:0002d9b0       ?StartDraggingLine@CDisplayList@@QAEHPAVCDC@@HHHHHHHHHHHH@Z 0054c9b0 f   DisplayList.obj
 0002:0002db60       ?StartDraggingLineVertex@CDisplayList@@QAEHPAVCDC@@HHHHHHHHHHHHHHHHH@Z 0054cb60 f   DisplayList.obj
 0002:0002ddd0       ?StartDraggingLineSegment@CDisplayList@@QAEHPAVCDC@@HHHHHHHHHHHHHHHHHHHHHHH@Z 0054cdd0 f   DisplayList.obj
 0002:0002e080       ?Drag@CDisplayList@@QAEXPAVCDC@@HH@Z 0054d080 f   DisplayList.obj
 0002:00030340       ?ScaleFactor@CFreePcbView@@QAEXNH@Z 0054f340 f   FreePcbView.obj
 0002:00030920       ?StopDragging@CDisplayList@@QAEHXZ 0054f920 f   DisplayList.obj
 0002:00030f50       ?FlipDragSide@CDisplayList@@QAEXPAVCDC@@@Z 0054ff50 f   DisplayList.obj
 0002:00031520       ?GetDragSide@CDisplayList@@QAEHXZ 00550520 f   DisplayList.obj
 0002:00031560       ?GetDragAngle@CDisplayList@@QAEHXZ 00550560 f   DisplayList.obj
 0002:000315a0       ?MakeDragLineArray@CDisplayList@@QAEHH@Z 005505a0 f   DisplayList.obj
 0002:00031680       ?MakeDragRatlineArray@CDisplayList@@QAEHHH@Z 00550680 f   DisplayList.obj
 0002:000317f0       ?AddDragLine@CDisplayList@@QAEHVCPoint@@0@Z 005507f0 f   DisplayList.obj
 0002:00031920       ?AddDragATargetLine@CDisplayList@@QAEHVCPoint@@0H@Z 00550920 f   DisplayList.obj
 0002:00031a40       ?DeleteTargetLines@CDisplayList@@QAEXXZ 00550a40 f   DisplayList.obj
 0002:00031b00       ?AddDragRatline@CDisplayList@@QAEHVCPoint@@0@Z 00550b00 f   DisplayList.obj
 0002:00032020       ?SetVisibleGrid@CDisplayList@@QAEXHN@Z 00551020 f   DisplayList.obj
 0002:00032350       ?SetStatic@CDisplayList@@QAEXH@Z 00551350 f   DisplayList.obj
 0002:00032580       ?WindowToPCB@CDisplayList@@QAE?AVCPoint@@V2@@Z 00551580 f   DisplayList.obj
 0002:000326d0       ?ScreenToPCB@CDisplayList@@QAE?AVCPoint@@V2@@Z 005516d0 f   DisplayList.obj
 0002:000328f0       ?GetWindowRect@CDisplayList@@QAE?AUtagRECT@@XZ 005518f0 f   DisplayList.obj
 0002:000329c0       ?ShowImages@CDisplayList@@QAEXH@Z 005519c0 f   DisplayList.obj
 0002:00032a90       ?Marker@CDisplayList@@QAEXHH@Z 00551a90 f   DisplayList.obj
 0002:00032c70       ?FindSource@CDisplayList@@QAEHPAV?$CStringT@DV?$StrTraitMFC_DLL@DV?$ChTraitsCRT@D@ATL@@@@@ATL@@@Z 00551c70 f   DisplayList.obj
 0002:00033050       ?AddTemplate@CDisplayList@@QAEHHHPAUtagRECT@@H@Z 00552050 f   DisplayList.obj
 0002:000335f0       ??0CTemplate@@QAE@XZ       005525f0 f i DisplayList.obj
 0002:00033770       ?GetSource@CDisplayList@@QAE?AV?$CStringT@DV?$StrTraitMFC_DLL@DV?$ChTraitsCRT@D@ATL@@@@@ATL@@H@Z 00552770 f   DisplayList.obj
 0002:000339a0       ?GetSourceIndex@CDisplayList@@QAEHH@Z 005529a0 f   DisplayList.obj
 0002:00033bc0       ?SetTemplateStyle@CDisplayList@@QAEXHH@Z 00552bc0 f   DisplayList.obj
 0002:00033c20       ?SetTemplateVis@CDisplayList@@QAEXHH@Z 00552c20 f   DisplayList.obj
 0002:00033c80       ?GetNumTemplates@CDisplayList@@QAEHXZ 00552c80 f   DisplayList.obj
 0002:00033e50       ?GetNumSources@CDisplayList@@QAEHXZ 00552e50 f   DisplayList.obj
 0002:00033f80       ?GetSize@?$CArray@VCPoint@@ABV1@@@QBEHXZ 00552f80 f i DisplayList.obj
 0002:000340b0       ?GetSize@?$CArray@PAUCTemplate@@ABQAU1@@@QBEHXZ 005530b0 f i DisplayList.obj
 0002:00034160       ?RemoveAll@?$CArray@PAUCTemplate@@ABQAU1@@@QAEXXZ 00553160 f i DisplayList.obj
 0002:000341c0       ?GetAt@?$CArray@PAUCTemplate@@ABQAU1@@@QAEAAPAUCTemplate@@H@Z 005531c0 f i DisplayList.obj
 0002:00034270       ??A?$CArray@PAUCTemplate@@ABQAU1@@@QAEAAPAUCTemplate@@H@Z 00553270 f i DisplayList.obj
 0002:00034320       ?ElementAt@?$CArray@VCPoint@@ABV1@@@QAEAAVCPoint@@H@Z 00553320 f i DisplayList.obj
 0002:00034430       ?ElementAt@?$CArray@PAUCTemplate@@ABQAU1@@@QAEAAPAUCTemplate@@H@Z 00553430 f i DisplayList.obj
 0002:00034500       ??1?$CArray@VCPoint@@ABV1@@@UAE@XZ 00553500 f i DisplayList.obj
 0002:000345e0       ?Serialize@?$CArray@VCPoint@@ABV1@@@UAEXAAVCArchive@@@Z 005535e0 f i DisplayList.obj
 0002:00034740       ?Dump@?$CArray@VCPoint@@ABV1@@@UBEXAAVCDumpContext@@@Z 00553740 f i DisplayList.obj
 0002:00034920       ??1?$CArray@PAUCTemplate@@ABQAU1@@@UAE@XZ 00553920 f i DisplayList.obj
 0002:00034a00       ?Serialize@?$CArray@PAUCTemplate@@ABQAU1@@@UAEXAAVCArchive@@@Z 00553a00 f i DisplayList.obj
 0002:00034c40       ??_E?$CArray@VCPoint@@ABV1@@@UAEPAXI@Z 00553c40 f i DisplayList.obj
 0002:00034c40       ??_G?$CArray@VCPoint@@ABV1@@@UAEPAXI@Z 00553c40 f i DisplayList.obj
 0002:00035260       ??_G?$CArray@PAUCTemplate@@ABQAU1@@@UAEPAXI@Z 00554260 f i DisplayList.obj
 0002:00035260       ??_E?$CArray@PAUCTemplate@@ABQAU1@@@UAEPAXI@Z 00554260 f i DisplayList.obj
 0002:00035540       ??$SerializeElements@VCPoint@@@@YGXAAVCArchive@@PAVCPoint@@H@Z 00554540 f i DisplayList.obj
 0002:00035ad0       ??$DumpElements@VCPoint@@@@YGXAAVCDumpContext@@PBVCPoint@@H@Z 00554ad0 f i DisplayList.obj
 0002:00035db0       ?_GetBaseClass@CDlgAddMaskCutout@@KGPAUCRuntimeClass@@XZ 00554db0 f   DlgAddMaskCutout.obj
 0002:00035e00       ?GetThisClass@CDlgAddMaskCutout@@SGPAUCRuntimeClass@@XZ 00554e00 f   DlgAddMaskCutout.obj
 0002:00035e40       ?GetRuntimeClass@CDlgAddMaskCutout@@UBEPAUCRuntimeClass@@XZ 00554e40 f   DlgAddMaskCutout.obj
 0002:00035e80       ??0CDlgAddMaskCutout@@QAE@PAVCWnd@@@Z 00554e80 f   DlgAddMaskCutout.obj
 0002:00036100       ??_GCDlgAddMaskCutout@@UAEPAXI@Z 00555100 f i DlgAddMaskCutout.obj
 0002:00036100       ??_ECDlgAddMaskCutout@@UAEPAXI@Z 00555100 f i DlgAddMaskCutout.obj
 0002:00036170       ??1CDlgAddMaskCutout@@UAE@XZ 00555170 f   DlgAddMaskCutout.obj
 0002:00036390       ?Initialize@CDlgAddMaskCutout@@QAEXHHHHHH@Z 00555390 f   DlgAddMaskCutout.obj
 0002:00036480       ?DoDataExchange@CDlgAddMaskCutout@@MAEXPAVCDataExchange@@@Z 00555480 f   DlgAddMaskCutout.obj
 0002:00037130       ?GetMessageMap@CDlgAddMaskCutout@@MBEPBUAFX_MSGMAP@@XZ 00556130 f   DlgAddMaskCutout.obj
 0002:00037180       ?GetThisMessageMap@CDlgAddMaskCutout@@KGPBUAFX_MSGMAP@@XZ 00556180 f   DlgAddMaskCutout.obj
 0002:000371c0       ?OnDef@CDlgAddMaskCutout@@QAEXXZ 005561c0 f   DlgAddMaskCutout.obj
 0002:00037270       ?OnBnClickedRadio2@CDlgAddMaskCutout@@QAEXXZ 00556270 f   DlgAddMaskCutout.obj
 0002:000372d0       ?OnBnClickedDotted@CDlgAddMaskCutout@@QAEXXZ 005562d0 f   DlgAddMaskCutout.obj
 0002:00037330       ?OnBnClickedRadio3@CDlgAddMaskCutout@@QAEXXZ 00556330 f   DlgAddMaskCutout.obj
 0002:00037390       ?OnBnClickedRadio1@CDlgAddMaskCutout@@QAEXXZ 00556390 f   DlgAddMaskCutout.obj
 0002:000373f0       ?SetFields@CDlgAddMaskCutout@@QAEXXZ 005563f0 f   DlgAddMaskCutout.obj
 0002:000377b0       ?OnCbnSelchangeComboAddPolyUnits@CDlgAddMaskCutout@@QAEXXZ 005567b0 f   DlgAddMaskCutout.obj
 0002:00037850       ?GetFields@CDlgAddMaskCutout@@QAEXXZ 00556850 f   DlgAddMaskCutout.obj
 0002:00037b90       ?OnBnClickedApplyInRange@CDlgAddMaskCutout@@QAEXXZ 00556b90 f   DlgAddMaskCutout.obj
 0002:00037bf0       ?OnBnClickedNotChange3@CDlgAddMaskCutout@@QAEXXZ 00556bf0 f   DlgAddMaskCutout.obj
 0002:00037c50       ?OnBnClickedNotChange2@CDlgAddMaskCutout@@QAEXXZ 00556c50 f   DlgAddMaskCutout.obj
 0002:00037cb0       ?_GetBaseClass@CDlgAddMerge@@KGPAUCRuntimeClass@@XZ 00556cb0 f   DlgAddMerge.obj
 0002:00037d00       ?GetThisClass@CDlgAddMerge@@SGPAUCRuntimeClass@@XZ 00556d00 f   DlgAddMerge.obj
 0002:00037d40       ?GetRuntimeClass@CDlgAddMerge@@UBEPAUCRuntimeClass@@XZ 00556d40 f   DlgAddMerge.obj
 0002:00037d80       ??0CDlgAddMerge@@QAE@PAVCWnd@@@Z 00556d80 f   DlgAddMerge.obj
 0002:00037ee0       ??_GCDlgAddMerge@@UAEPAXI@Z 00556ee0 f i DlgAddMerge.obj
 0002:00037ee0       ??_ECDlgAddMerge@@UAEPAXI@Z 00556ee0 f i DlgAddMerge.obj
 0002:00037f50       ??1CDlgAddMerge@@UAE@XZ    00556f50 f   DlgAddMerge.obj
 0002:00038060       ?DoDataExchange@CDlgAddMerge@@MAEXPAVCDataExchange@@@Z 00557060 f   DlgAddMerge.obj
 0002:00039cc0       ?GetMessageMap@CDlgAddMerge@@MBEPBUAFX_MSGMAP@@XZ 00558cc0 f   DlgAddMerge.obj
 0002:00039d10       ?GetThisMessageMap@CDlgAddMerge@@KGPBUAFX_MSGMAP@@XZ 00558d10 f   DlgAddMerge.obj
 0002:00039d50       ?GetStr@StrList@@QAE?AV?$CStringT@DV?$StrTraitMFC_DLL@DV?$ChTraitsCRT@D@ATL@@@@@ATL@@H@Z 00558d50 f i DlgAddMerge.obj
 0002:00039e40       ?GetSize@StrList@@QAEHXZ   00558e40 f i DlgAddMerge.obj
 0002:00039e80       ?_GetBaseClass@CDlgAddPoly@@KGPAUCRuntimeClass@@XZ 00558e80 f   DlgAddPoly.obj
 0002:00039ed0       ?GetThisClass@CDlgAddPoly@@SGPAUCRuntimeClass@@XZ 00558ed0 f   DlgAddPoly.obj
 0002:00039f10       ?GetRuntimeClass@CDlgAddPoly@@UBEPAUCRuntimeClass@@XZ 00558f10 f   DlgAddPoly.obj
 0002:00039f50       ??0CDlgAddPoly@@QAE@PAVCWnd@@@Z 00558f50 f   DlgAddPoly.obj
 0002:0003a070       ??_ECDlgAddPoly@@UAEPAXI@Z 00559070 f i DlgAddPoly.obj
 0002:0003a070       ??_GCDlgAddPoly@@UAEPAXI@Z 00559070 f i DlgAddPoly.obj
 0002:0003a0e0       ??1CDlgAddPoly@@UAE@XZ     005590e0 f   DlgAddPoly.obj
 0002:0003a1e0       ?DoDataExchange@CDlgAddPoly@@MAEXPAVCDataExchange@@@Z 005591e0 f   DlgAddPoly.obj
 0002:0003a4c0       ?Initialize@CDlgAddPoly@@QAEXHHHHH@Z 005594c0 f   DlgAddPoly.obj
 0002:0003a570       ?GetMessageMap@CDlgAddPoly@@MBEPBUAFX_MSGMAP@@XZ 00559570 f   DlgAddPoly.obj
 0002:0003a5c0       ?GetThisMessageMap@CDlgAddPoly@@KGPBUAFX_MSGMAP@@XZ 005595c0 f   DlgAddPoly.obj
 0002:0003a600       ?GetFields@CDlgAddPoly@@AAEXXZ 00559600 f   DlgAddPoly.obj
 0002:0003a7c0       ?SetFields@CDlgAddPoly@@AAEXXZ 005597c0 f   DlgAddPoly.obj
 0002:0003a980       ?OnCbnSelchangeComboAddPolyUnits@CDlgAddPoly@@AAEXXZ 00559980 f   DlgAddPoly.obj
 0002:0003aa20       ?_GetBaseClass@CDlgAddText@@KGPAUCRuntimeClass@@XZ 00559a20 f   DlgAddText.obj
 0002:0003aa70       ?GetThisClass@CDlgAddText@@SGPAUCRuntimeClass@@XZ 00559a70 f   DlgAddText.obj
 0002:0003aab0       ?GetRuntimeClass@CDlgAddText@@UBEPAUCRuntimeClass@@XZ 00559ab0 f   DlgAddText.obj
 0002:0003aaf0       ??0CDlgAddText@@QAE@PAVCWnd@@@Z 00559af0 f   DlgAddText.obj
 0002:0003ade0       ??_GCDlgAddText@@UAEPAXI@Z 00559de0 f i DlgAddText.obj
 0002:0003ade0       ??_ECDlgAddText@@UAEPAXI@Z 00559de0 f i DlgAddText.obj
 0002:0003ae50       ??1CDlgAddText@@UAE@XZ     00559e50 f   DlgAddText.obj
 0002:0003b0f0       ?DoDataExchange@CDlgAddText@@MAEXPAVCDataExchange@@@Z 0055a0f0 f   DlgAddText.obj
 0002:0003d030       ?GetMessageMap@CDlgAddText@@MBEPBUAFX_MSGMAP@@XZ 0055c030 f   DlgAddText.obj
 0002:0003d080       ?GetThisMessageMap@CDlgAddText@@KGPBUAFX_MSGMAP@@XZ 0055c080 f   DlgAddText.obj
 0002:0003d0c0       ?Initialize@CDlgAddText@@QAEXPAVCPageList@@PAV?$CStringT@DV?$StrTraitMFC_DLL@DV?$ChTraitsCRT@D@ATL@@@@@ATL@@1HHHHHHHHN@Z 0055c0c0 f   DlgAddText.obj
 0002:0003d420       ?OnInitDialog@CDlgAddText@@UAEHXZ 0055c420 f   DlgAddText.obj
 0002:0003d650       ?OnBnClickedSetWidth@CDlgAddText@@QAEXXZ 0055c650 f   DlgAddText.obj
 0002:0003d6b0       ?OnBnClickedDefWidth@CDlgAddText@@QAEXXZ 0055c6b0 f   DlgAddText.obj
 0002:0003d710       ?OnEnChangeEditHeight@CDlgAddText@@QAEXXZ 0055c710 f   DlgAddText.obj
 0002:0003d960       ?OnBnClickedOk@CDlgAddText@@QAEXXZ 0055c960 f   DlgAddText.obj
 0002:0003d9d0       ?OnBnClickedSetPosition@CDlgAddText@@QAEXXZ 0055c9d0 f   DlgAddText.obj
 0002:0003da30       ?OnBnClickedDrag@CDlgAddText@@QAEXXZ 0055ca30 f   DlgAddText.obj
 0002:0003da90       ?OnCbnSelchangeComboAddTextUnits@CDlgAddText@@QAEXXZ 0055ca90 f   DlgAddText.obj
 0002:0003db50       ?GetFields@CDlgAddText@@QAEXXZ 0055cb50 f   DlgAddText.obj
 0002:0003e230       ?SetFields@CDlgAddText@@QAEXXZ 0055d230 f   DlgAddText.obj
 0002:0003ea60       ?OnLbnSelchangeListLayer@CDlgAddText@@QAEXXZ 0055da60 f   DlgAddText.obj
 0002:0003eac0       ?OnBnClickedCheckCompressed@CDlgAddText@@QAEXXZ 0055dac0 f   DlgAddText.obj
 0002:0003eb50       ?OnBnClickedCheckUnclenched@CDlgAddText@@QAEXXZ 0055db50 f   DlgAddText.obj
 0002:0003ebe0       ?OnEnSetfocusEditText@CDlgAddText@@QAEXXZ 0055dbe0 f   DlgAddText.obj
 0002:0003ef20       ?OnCbnSelchangeEditHeight@CDlgAddText@@QAEXXZ 0055df20 f   DlgAddText.obj
 0002:0003f320       ??8ATL@@YA_NABV?$CStringT@DV?$StrTraitMFC_DLL@DV?$ChTraitsCRT@D@ATL@@@@@0@0@Z 0055e320 f i DlgAddText.obj
 0002:0003f3a0       ?_GetBaseClass@CDlgAddWidth@@KGPAUCRuntimeClass@@XZ 0055e3a0 f   DlgAddWidth.obj
 0002:0003f3f0       ?GetThisClass@CDlgAddWidth@@SGPAUCRuntimeClass@@XZ 0055e3f0 f   DlgAddWidth.obj
 0002:0003f430       ?GetRuntimeClass@CDlgAddWidth@@UBEPAUCRuntimeClass@@XZ 0055e430 f   DlgAddWidth.obj
 0002:0003f470       ??0CDlgAddWidth@@QAE@PAVCWnd@@@Z 0055e470 f   DlgAddWidth.obj
 0002:0003f4e0       ??_GCDlgAddWidth@@UAEPAXI@Z 0055e4e0 f i DlgAddWidth.obj
 0002:0003f4e0       ??_ECDlgAddWidth@@UAEPAXI@Z 0055e4e0 f i DlgAddWidth.obj
 0002:0003f550       ??1CDlgAddWidth@@UAE@XZ    0055e550 f   DlgAddWidth.obj
 0002:0003f5b0       ?DoDataExchange@CDlgAddWidth@@MAEXPAVCDataExchange@@@Z 0055e5b0 f   DlgAddWidth.obj
 0002:0003f960       ?GetMessageMap@CDlgAddWidth@@MBEPBUAFX_MSGMAP@@XZ 0055e960 f   DlgAddWidth.obj
 0002:0003f9b0       ?GetThisMessageMap@CDlgAddWidth@@KGPBUAFX_MSGMAP@@XZ 0055e9b0 f   DlgAddWidth.obj
 0002:0003f9f0       ?_GetBaseClass@CDlgAttrSync@@KGPAUCRuntimeClass@@XZ 0055e9f0 f   DlgAttrSync.obj
 0002:0003fa40       ?GetThisClass@CDlgAttrSync@@SGPAUCRuntimeClass@@XZ 0055ea40 f   DlgAttrSync.obj
 0002:0003fa80       ?GetRuntimeClass@CDlgAttrSync@@UBEPAUCRuntimeClass@@XZ 0055ea80 f   DlgAttrSync.obj
 0002:0003fac0       ??0CDlgAttrSync@@QAE@PAVCWnd@@@Z 0055eac0 f   DlgAttrSync.obj
 0002:0003fc00       ??_ECDlgAttrSync@@UAEPAXI@Z 0055ec00 f i DlgAttrSync.obj
 0002:0003fc00       ??_GCDlgAttrSync@@UAEPAXI@Z 0055ec00 f i DlgAttrSync.obj
 0002:0003fc70       ??1CDlgAttrSync@@UAE@XZ    0055ec70 f   DlgAttrSync.obj
 0002:0003fd70       ?Ini@CDlgAttrSync@@QAEXPAVCFreePcbDoc@@@Z 0055ed70 f   DlgAttrSync.obj
 0002:0003fdd0       ?DoDataExchange@CDlgAttrSync@@MAEXPAVCDataExchange@@@Z 0055edd0 f   DlgAttrSync.obj
 0002:000408b0       ?GetMessageMap@CDlgAttrSync@@MBEPBUAFX_MSGMAP@@XZ 0055f8b0 f   DlgAttrSync.obj
 0002:00040900       ?GetThisMessageMap@CDlgAttrSync@@KGPBUAFX_MSGMAP@@XZ 0055f900 f   DlgAttrSync.obj
 0002:00040940       ?OnCheck@CDlgAttrSync@@QAEXXZ 0055f940 f   DlgAttrSync.obj
 0002:00040a30       ?OnCheck2@CDlgAttrSync@@QAEXXZ 0055fa30 f   DlgAttrSync.obj
 0002:00040b50       ?OnAddRef@CDlgAttrSync@@QAEXXZ 0055fb50 f   DlgAttrSync.obj
 0002:00040cd0       ?OnRemove@CDlgAttrSync@@QAEXXZ 0055fcd0 f   DlgAttrSync.obj
 0002:00040db0       ?OnQ1@CDlgAttrSync@@QAEXXZ 0055fdb0 f   DlgAttrSync.obj
 0002:00040e30       ?OnQ2@CDlgAttrSync@@QAEXXZ 0055fe30 f   DlgAttrSync.obj
 0002:00040eb0       ?_GetBaseClass@CDlgCAD@@KGPAUCRuntimeClass@@XZ 0055feb0 f   DlgCAD.obj
 0002:00040f00       ?GetThisClass@CDlgCAD@@SGPAUCRuntimeClass@@XZ 0055ff00 f   DlgCAD.obj
 0002:00040f40       ?GetRuntimeClass@CDlgCAD@@UBEPAUCRuntimeClass@@XZ 0055ff40 f   DlgCAD.obj
 0002:00040f80       ??0CDlgCAD@@QAE@PAVCWnd@@@Z 0055ff80 f   DlgCAD.obj
 0002:00041420       ??_ECDlgCAD@@UAEPAXI@Z     00560420 f i DlgCAD.obj
 0002:00041420       ??_GCDlgCAD@@UAEPAXI@Z     00560420 f i DlgCAD.obj
 0002:00041490       ??1CDlgCAD@@UAE@XZ         00560490 f   DlgCAD.obj
 0002:000418f0       ?DoDataExchange@CDlgCAD@@MAEXPAVCDataExchange@@@Z 005608f0 f   DlgCAD.obj
 0002:00041fc0       ?GetMessageMap@CDlgCAD@@MBEPBUAFX_MSGMAP@@XZ 00560fc0 f   DlgCAD.obj
 0002:00042010       ?GetThisMessageMap@CDlgCAD@@KGPBUAFX_MSGMAP@@XZ 00561010 f   DlgCAD.obj
 0002:00042050       ?Initialize@CDlgCAD@@QAEXNPAV?$CStringT@DV?$StrTraitMFC_DLL@DV?$ChTraitsCRT@D@ATL@@@@@ATL@@000HHHHHHHHPAV?$CArray@VCPolyLine@@ABV1@@@PAUCAttrib@@PAVCDisplayList@@PAVStrList@@PAVCDlgLog@@@Z 00561050 f   DlgCAD.obj
 0002:000422d0       ?OnBnClickedGo@CDlgCAD@@QAEXXZ 005612d0 f   DlgCAD.obj
 0002:00043d80       ?GetFields@CDlgCAD@@QAEXXZ 00562d80 f   DlgCAD.obj
 0002:00044810       ?SetFields@CDlgCAD@@QAEXXZ 00563810 f   DlgCAD.obj
 0002:00045060       ?OnCbnSelchangeComboCadUnits@CDlgCAD@@QAEXXZ 00564060 f   DlgCAD.obj
 0002:00045100       ?OnBnClickedCancel@CDlgCAD@@QAEXXZ 00564100 f   DlgCAD.obj
 0002:00045170       ?OnBnClickedButtonDef@CDlgCAD@@QAEXXZ 00564170 f   DlgCAD.obj
 0002:00045820       ?OnBnClickedButtonFolder@CDlgCAD@@QAEXXZ 00564820 f   DlgCAD.obj
 0002:00045af0       ??1CPathDialog@@QAE@XZ     00564af0 f i DlgCAD.obj
 0002:00045b50       ??1CPathDialogSub@@UAE@XZ  00564b50 f i DlgCAD.obj
 0002:00045ba0       ?OnBnClickedButtonDone@CDlgCAD@@QAEXXZ 00564ba0 f   DlgCAD.obj
 0002:00045c30       ?OnChangeViewer@CDlgCAD@@QAEXXZ 00564c30 f   DlgCAD.obj
 0002:00045e90       ?_GetBaseClass@CDlgChangeLayer@@KGPAUCRuntimeClass@@XZ 00564e90 f   DlgChangeLayer.obj
 0002:00045ee0       ?GetThisClass@CDlgChangeLayer@@SGPAUCRuntimeClass@@XZ 00564ee0 f   DlgChangeLayer.obj
 0002:00045f20       ?GetRuntimeClass@CDlgChangeLayer@@UBEPAUCRuntimeClass@@XZ 00564f20 f   DlgChangeLayer.obj
 0002:00045f60       ??0CDlgChangeLayer@@QAE@PAVCWnd@@@Z 00564f60 f   DlgChangeLayer.obj
 0002:00046070       ??_ECDlgChangeLayer@@UAEPAXI@Z 00565070 f i DlgChangeLayer.obj
 0002:00046070       ??_GCDlgChangeLayer@@UAEPAXI@Z 00565070 f i DlgChangeLayer.obj
 0002:000460e0       ??1CDlgChangeLayer@@UAE@XZ 005650e0 f   DlgChangeLayer.obj
 0002:000461e0       ?DoDataExchange@CDlgChangeLayer@@MAEXPAVCDataExchange@@@Z 005651e0 f   DlgChangeLayer.obj
 0002:00046450       ?GetMessageMap@CDlgChangeLayer@@MBEPBUAFX_MSGMAP@@XZ 00565450 f   DlgChangeLayer.obj
 0002:000464a0       ?GetThisMessageMap@CDlgChangeLayer@@KGPBUAFX_MSGMAP@@XZ 005654a0 f   DlgChangeLayer.obj
 0002:000464e0       ?Initialize@CDlgChangeLayer@@QAEXHHH@Z 005654e0 f   DlgChangeLayer.obj
 0002:00046540       ?_GetBaseClass@DlgCreateBranch@@KGPAUCRuntimeClass@@XZ 00565540 f   DlgCreateBranch.obj
 0002:00046590       ?GetThisClass@DlgCreateBranch@@SGPAUCRuntimeClass@@XZ 00565590 f   DlgCreateBranch.obj
 0002:000465d0       ?GetRuntimeClass@DlgCreateBranch@@UBEPAUCRuntimeClass@@XZ 005655d0 f   DlgCreateBranch.obj
 0002:00046610       ??0DlgCreateBranch@@QAE@PAVCWnd@@@Z 00565610 f   DlgCreateBranch.obj
 0002:00046720       ??_GDlgCreateBranch@@UAEPAXI@Z 00565720 f i DlgCreateBranch.obj
 0002:00046720       ??_EDlgCreateBranch@@UAEPAXI@Z 00565720 f i DlgCreateBranch.obj
 0002:00046790       ??1DlgCreateBranch@@UAE@XZ 00565790 f   DlgCreateBranch.obj
 0002:00046890       ?DoDataExchange@DlgCreateBranch@@MAEXPAVCDataExchange@@@Z 00565890 f   DlgCreateBranch.obj
 0002:0004a290       ?IncrementDragAngle@CDisplayList@@QAEXPAVCDC@@@Z 00569290 f   DisplayList.obj
 0002:0004b110       ?GetMessageMap@DlgCreateBranch@@MBEPBUAFX_MSGMAP@@XZ 0056a110 f   DlgCreateBranch.obj
 0002:0004b160       ?GetThisMessageMap@DlgCreateBranch@@KGPBUAFX_MSGMAP@@XZ 0056a160 f   DlgCreateBranch.obj
 0002:0004b1a0       ?Initialize@DlgCreateBranch@@QAEXPAVCFreePcbDoc@@@Z 0056a1a0 f   DlgCreateBranch.obj
 0002:0004b1f0       ?OnBnClickedOk@DlgCreateBranch@@QAEXXZ 0056a1f0 f   DlgCreateBranch.obj
 0002:0004b240       ?OnBnClickedCheckCopy@DlgCreateBranch@@QAEXXZ 0056a240 f   DlgCreateBranch.obj
 0002:0004b2d0       ?OnBnClickedRadio4@DlgCreateBranch@@QAEXXZ 0056a2d0 f   DlgCreateBranch.obj
 0002:0004b320       ?OnBnClickedRadio5@DlgCreateBranch@@QAEXXZ 0056a320 f   DlgCreateBranch.obj
 0002:0004b370       ?_GetBaseClass@DlgDRC@@KGPAUCRuntimeClass@@XZ 0056a370 f   DlgDRC.obj
 0002:0004b3c0       ?GetThisClass@DlgDRC@@SGPAUCRuntimeClass@@XZ 0056a3c0 f   DlgDRC.obj
 0002:0004b400       ?GetRuntimeClass@DlgDRC@@UBEPAUCRuntimeClass@@XZ 0056a400 f   DlgDRC.obj
 0002:0004b440       ??0DlgDRC@@QAE@PAVCWnd@@@Z 0056a440 f   DlgDRC.obj
 0002:0004b580       ??_GDlgDRC@@UAEPAXI@Z      0056a580 f i DlgDRC.obj
 0002:0004b580       ??_EDlgDRC@@UAEPAXI@Z      0056a580 f i DlgDRC.obj
 0002:0004b5f0       ??1DlgDRC@@UAE@XZ          0056a5f0 f   DlgDRC.obj
 0002:0004b720       ?DoDataExchange@DlgDRC@@MAEXPAVCDataExchange@@@Z 0056a720 f   DlgDRC.obj
 0002:0004b8b0       ?GetMessageMap@DlgDRC@@MBEPBUAFX_MSGMAP@@XZ 0056a8b0 f   DlgDRC.obj
 0002:0004b900       ?GetThisMessageMap@DlgDRC@@KGPBUAFX_MSGMAP@@XZ 0056a900 f   DlgDRC.obj
 0002:0004b940       ?Initialize@DlgDRC@@QAEXHHHHH@Z 0056a940 f   DlgDRC.obj
 0002:0004b9e0       ?GetFields@DlgDRC@@QAEXXZ  0056a9e0 f   DlgDRC.obj
 0002:0004bdb0       ?SetFields@DlgDRC@@QAEXXZ  0056adb0 f   DlgDRC.obj
 0002:0004c150       ?OnCbnChangeUnits@DlgDRC@@QAEXXZ 0056b150 f   DlgDRC.obj
 0002:0004c2b0       ?OnBnClickedCancel@DlgDRC@@QAEXXZ 0056b2b0 f   DlgDRC.obj
 0002:0004c320       ?OnBnClickedOk@DlgDRC@@QAEXXZ 0056b320 f   DlgDRC.obj
 0002:0004c390       ?OnBnClickedCheck@DlgDRC@@QAEXXZ 0056b390 f   DlgDRC.obj
 0002:0004c3f0       ?_GetBaseClass@DlgEditBoardCorner@@KGPAUCRuntimeClass@@XZ 0056b3f0 f   DlgEditBoardCorner.obj
 0002:0004c440       ?GetThisClass@DlgEditBoardCorner@@SGPAUCRuntimeClass@@XZ 0056b440 f   DlgEditBoardCorner.obj
 0002:0004c480       ?GetRuntimeClass@DlgEditBoardCorner@@UBEPAUCRuntimeClass@@XZ 0056b480 f   DlgEditBoardCorner.obj
 0002:0004c4c0       ??0DlgEditBoardCorner@@QAE@PAVCWnd@@@Z 0056b4c0 f   DlgEditBoardCorner.obj
 0002:0004c610       ??_GDlgEditBoardCorner@@UAEPAXI@Z 0056b610 f i DlgEditBoardCorner.obj
 0002:0004c610       ??_EDlgEditBoardCorner@@UAEPAXI@Z 0056b610 f i DlgEditBoardCorner.obj
 0002:0004c680       ??1DlgEditBoardCorner@@UAE@XZ 0056b680 f   DlgEditBoardCorner.obj
 0002:0004c760       ?DoDataExchange@DlgEditBoardCorner@@MAEXPAVCDataExchange@@@Z 0056b760 f   DlgEditBoardCorner.obj
 0002:0004c8e0       ?Init@DlgEditBoardCorner@@QAEXPAV?$CStringT@DV?$StrTraitMFC_DLL@DV?$ChTraitsCRT@D@ATL@@@@@ATL@@HHH@Z 0056b8e0 f   DlgEditBoardCorner.obj
 0002:0004c960       ?GetMessageMap@DlgEditBoardCorner@@MBEPBUAFX_MSGMAP@@XZ 0056b960 f   DlgEditBoardCorner.obj
 0002:0004c9b0       ?GetThisMessageMap@DlgEditBoardCorner@@KGPBUAFX_MSGMAP@@XZ 0056b9b0 f   DlgEditBoardCorner.obj
 0002:0004c9f0       ?OnCbnSelchangeComboCornerUnits@DlgEditBoardCorner@@QAEXXZ 0056b9f0 f   DlgEditBoardCorner.obj
 0002:0004ca90       ?GetFields@DlgEditBoardCorner@@AAEXXZ 0056ba90 f   DlgEditBoardCorner.obj
 0002:0004ccb0       ?SetFields@DlgEditBoardCorner@@AAEXXZ 0056bcb0 f   DlgEditBoardCorner.obj
 0002:0004cea0       ?OnBnClickedOrigin@DlgEditBoardCorner@@QAEXXZ 0056bea0 f   DlgEditBoardCorner.obj
 0002:0004d110       ?_GetBaseClass@CDlgFindPart@@KGPAUCRuntimeClass@@XZ 0056c110 f   DlgFindPart.obj
 0002:0004d160       ?GetThisClass@CDlgFindPart@@SGPAUCRuntimeClass@@XZ 0056c160 f   DlgFindPart.obj
 0002:0004d1a0       ?GetRuntimeClass@CDlgFindPart@@UBEPAUCRuntimeClass@@XZ 0056c1a0 f   DlgFindPart.obj
 0002:0004d1e0       ??0CDlgFindPart@@QAE@PAVCWnd@@@Z 0056c1e0 f   DlgFindPart.obj
 0002:0004d320       ??_ECDlgFindPart@@UAEPAXI@Z 0056c320 f i DlgFindPart.obj
 0002:0004d320       ??_GCDlgFindPart@@UAEPAXI@Z 0056c320 f i DlgFindPart.obj
 0002:0004d390       ??1CDlgFindPart@@UAE@XZ    0056c390 f   DlgFindPart.obj
 0002:0004d4c0       ?DoDataExchange@CDlgFindPart@@MAEXPAVCDataExchange@@@Z 0056c4c0 f   DlgFindPart.obj
 0002:0004dbf0       ?GetMessageMap@CDlgFindPart@@MBEPBUAFX_MSGMAP@@XZ 0056cbf0 f   DlgFindPart.obj
 0002:0004dc40       ?GetThisMessageMap@CDlgFindPart@@KGPBUAFX_MSGMAP@@XZ 0056cc40 f   DlgFindPart.obj
 0002:0004dc80       ?Initialize@CDlgFindPart@@QAEXPAV?$CArray@V?$CStringT@DV?$StrTraitMFC_DLL@DV?$ChTraitsCRT@D@ATL@@@@@ATL@@ABV12@@@HHHHPAV?$CStringT@DV?$StrTraitMFC_DLL@DV?$ChTraitsCRT@D@ATL@@@@@ATL@@@Z 0056cc80 f   DlgFindPart.obj
 0002:0004dd20       ?OnCheck@CDlgFindPart@@QAEXXZ 0056cd20 f   DlgFindPart.obj
 0002:0004ddc0       ?OnPinDef@CDlgFindPart@@QAEXXZ 0056cdc0 f   DlgFindPart.obj
 0002:0004de40       ?_GetBaseClass@CDlgImportMerge@@KGPAUCRuntimeClass@@XZ 0056ce40 f   DlgImportMerge.obj
 0002:0004de90       ?GetThisClass@CDlgImportMerge@@SGPAUCRuntimeClass@@XZ 0056ce90 f   DlgImportMerge.obj
 0002:0004ded0       ?GetRuntimeClass@CDlgImportMerge@@UBEPAUCRuntimeClass@@XZ 0056ced0 f   DlgImportMerge.obj
 0002:0004df10       ??0CDlgImportMerge@@QAE@PAVCWnd@@@Z 0056cf10 f   DlgImportMerge.obj
 0002:0004e030       ??_GCDlgImportMerge@@UAEPAXI@Z 0056d030 f i DlgImportMerge.obj
 0002:0004e030       ??_ECDlgImportMerge@@UAEPAXI@Z 0056d030 f i DlgImportMerge.obj
 0002:0004e0a0       ??1CDlgImportMerge@@UAE@XZ 0056d0a0 f   DlgImportMerge.obj
 0002:0004e1b0       ?DoDataExchange@CDlgImportMerge@@MAEXPAVCDataExchange@@@Z 0056d1b0 f   DlgImportMerge.obj
 0002:0004e310       ?GetMessageMap@CDlgImportMerge@@MBEPBUAFX_MSGMAP@@XZ 0056d310 f   DlgImportMerge.obj
 0002:0004e360       ?GetThisMessageMap@CDlgImportMerge@@KGPBUAFX_MSGMAP@@XZ 0056d360 f   DlgImportMerge.obj
 0002:0004e3a0       ?Initialize@CDlgImportMerge@@QAEXPAVCLibPointer@@@Z 0056d3a0 f   DlgImportMerge.obj
 0002:0004e430       ?OnClickList@CDlgImportMerge@@QAEXXZ 0056d430 f   DlgImportMerge.obj
 0002:0004e720       ?OnClickList2@CDlgImportMerge@@QAEXXZ 0056d720 f   DlgImportMerge.obj
 0002:0004e870       ?OnDblClickList@CDlgImportMerge@@QAEXXZ 0056d870 f   DlgImportMerge.obj
 0002:0004ead0       ?OnDblClickList2@CDlgImportMerge@@QAEXXZ 0056dad0 f   DlgImportMerge.obj
 0002:0004ed00       ?OnChange@CDlgImportMerge@@QAEXXZ 0056dd00 f   DlgImportMerge.obj
 0002:0004ed50       ?Change@CDlgImportMerge@@QAEXXZ 0056dd50 f   DlgImportMerge.obj
 0002:0004ef50       ?DrawPattern@CDlgImportMerge@@QAEXPAV?$CStringT@DV?$StrTraitMFC_DLL@DV?$ChTraitsCRT@D@ATL@@@@@ATL@@@Z 0056df50 f   DlgImportMerge.obj
 0002:000507a0       ?RemoveAll@?$CArray@VCPolyLine@@ABV1@@@QAEXXZ 0056f7a0 f i DlgImportMerge.obj
 0002:00050800       ?abs@@YAJJ@Z               0056f800 f i DlgImportMerge.obj
 0002:00050850       ?SetSize@?$CArray@VCPolyLine@@ABV1@@@QAEXHH@Z 0056f850 f i DlgImportMerge.obj
 0002:00050fa0       ??3@YAXPAX0@Z              0056ffa0 f i DlgImportMerge.obj
 0002:00050fd0       ??_GCPolyLine@@QAEPAXI@Z   0056ffd0 f i DlgImportMerge.obj
 0002:00051040       ?_GetBaseClass@CDlgImportOptions@@KGPAUCRuntimeClass@@XZ 00570040 f   DlgImportOptions.obj
 0002:00051090       ?GetThisClass@CDlgImportOptions@@SGPAUCRuntimeClass@@XZ 00570090 f   DlgImportOptions.obj
 0002:000510d0       ?GetRuntimeClass@CDlgImportOptions@@UBEPAUCRuntimeClass@@XZ 005700d0 f   DlgImportOptions.obj
 0002:00051110       ??0CDlgImportOptions@@QAE@PAVCWnd@@@Z 00570110 f   DlgImportOptions.obj
 0002:000512c0       ??_ECDlgImportOptions@@UAEPAXI@Z 005702c0 f i DlgImportOptions.obj
 0002:000512c0       ??_GCDlgImportOptions@@UAEPAXI@Z 005702c0 f i DlgImportOptions.obj
 0002:00051330       ??1CDlgImportOptions@@UAE@XZ 00570330 f   DlgImportOptions.obj
 0002:000514d0       ?DoDataExchange@CDlgImportOptions@@MAEXPAVCDataExchange@@@Z 005704d0 f   DlgImportOptions.obj
 0002:00051b50       ?GetMessageMap@CDlgImportOptions@@MBEPBUAFX_MSGMAP@@XZ 00570b50 f   DlgImportOptions.obj
 0002:00051ba0       ?GetThisMessageMap@CDlgImportOptions@@KGPBUAFX_MSGMAP@@XZ 00570ba0 f   DlgImportOptions.obj
 0002:00051be0       ?Initialize@CDlgImportOptions@@QAEXH@Z 00570be0 f   DlgImportOptions.obj
 0002:00051c30       ?OnBnClickedSaveAndImport@CDlgImportOptions@@QAEXXZ 00570c30 f   DlgImportOptions.obj
 0002:00051cc0       ?OnBnClickedOk@CDlgImportOptions@@QAEXXZ 00570cc0 f   DlgImportOptions.obj
 0002:00051d50       ?_GetBaseClass@CDlgImportPart@@KGPAUCRuntimeClass@@XZ 00570d50 f   DlgImportPart.obj
 0002:00051da0       ?GetThisClass@CDlgImportPart@@SGPAUCRuntimeClass@@XZ 00570da0 f   DlgImportPart.obj
 0002:00051de0       ?GetRuntimeClass@CDlgImportPart@@UBEPAUCRuntimeClass@@XZ 00570de0 f   DlgImportPart.obj
 0002:00051e20       ??0CDlgImportPart@@QAE@PAVCWnd@@@Z 00570e20 f   DlgImportPart.obj
 0002:00052270       ??_GCDlgImportPart@@UAEPAXI@Z 00571270 f i DlgImportPart.obj
 0002:00052270       ??_ECDlgImportPart@@UAEPAXI@Z 00571270 f i DlgImportPart.obj
 0002:000522e0       ??1CDlgImportPart@@UAE@XZ  005712e0 f   DlgImportPart.obj
 0002:00052610       ?DoDataExchange@CDlgImportPart@@MAEXPAVCDataExchange@@@Z 00571610 f   DlgImportPart.obj
 0002:00053930       ?GetMessageMap@CDlgImportPart@@MBEPBUAFX_MSGMAP@@XZ 00572930 f   DlgImportPart.obj
 0002:00053980       ?GetThisMessageMap@CDlgImportPart@@KGPBUAFX_MSGMAP@@XZ 00572980 f   DlgImportPart.obj
 0002:000539c0       ?Initialize@CDlgImportPart@@QAEXPAV?$CArray@V?$CStringT@DV?$StrTraitMFC_DLL@DV?$ChTraitsCRT@D@ATL@@@@@ATL@@ABV12@@@HHHHPAV?$CStringT@DV?$StrTraitMFC_DLL@DV?$ChTraitsCRT@D@ATL@@@@@ATL@@PAVCLibPointer@@1@Z 005729c0 f   DlgImportPart.obj
 0002:00053b60       ?OnCheck@CDlgImportPart@@QAEXXZ 00572b60 f   DlgImportPart.obj
 0002:00053c00       ?OnPinDef@CDlgImportPart@@QAEXXZ 00572c00 f   DlgImportPart.obj
 0002:00053c80       ?OnClickList@CDlgImportPart@@QAEXXZ 00572c80 f   DlgImportPart.obj
 0002:00054440       ?OnClickList2@CDlgImportPart@@QAEXXZ 00573440 f   DlgImportPart.obj
 0002:00054890       ?OnDblClickList@CDlgImportPart@@QAEXXZ 00573890 f   DlgImportPart.obj
 0002:00054af0       ?OnDblClickList2@CDlgImportPart@@QAEXXZ 00573af0 f   DlgImportPart.obj
 0002:00054d00       ?OnClickListButton@CDlgImportPart@@QAEXXZ 00573d00 f   DlgImportPart.obj
 0002:00055350       ?OnChange@CDlgImportPart@@QAEXXZ 00574350 f   DlgImportPart.obj
 0002:00055710       ?Change@CDlgImportPart@@QAEXXZ 00574710 f   DlgImportPart.obj
 0002:00055a20       ?OnUniqueParts@CDlgImportPart@@QAEXXZ 00574a20 f   DlgImportPart.obj
 0002:00055ac0       ?OnPartsCurrentProject@CDlgImportPart@@QAEXXZ 00574ac0 f   DlgImportPart.obj
 0002:00055b60       ?OnOnceAnyProject@CDlgImportPart@@QAEXXZ 00574b60 f   DlgImportPart.obj
 0002:00055c00       ?PcbAssemblyKit@CDlgImportPart@@QAEHH@Z 00574c00 f   DlgImportPart.obj
 0002:00055f90       ?OnAboutUniqueParts@CDlgImportPart@@QAEXXZ 00574f90 f   DlgImportPart.obj
 0002:00056010       ?DrawPattern@CDlgImportPart@@QAEXPAV?$CStringT@DV?$StrTraitMFC_DLL@DV?$ChTraitsCRT@D@ATL@@@@@ATL@@@Z 00575010 f   DlgImportPart.obj
 0002:000589c0       ?OnBnClickedOk@CDlgImportPart@@QAEXXZ 005779c0 f   DlgImportPart.obj
 0002:00058f40       ?OpenTXTPreixes@CDlgImportPart@@QAEXXZ 00577f40 f   DlgImportPart.obj
 0002:00059010       ?OnCbnDropdownCombo1@CDlgImportPart@@QAEXXZ 00578010 f   DlgImportPart.obj
 0002:00059140       ?UploadPartlist@CDlgImportPart@@QAEXXZ 00578140 f   DlgImportPart.obj
 0002:00059b60       ?ReadPrefixes@CDlgImportPart@@QAEXXZ 00578b60 f   DlgImportPart.obj
 0002:0005a1b0       ?OnTimer@CDlgImportPart@@QAEXI@Z 005791b0 f   DlgImportPart.obj
 0002:0005a240       ?OnBnClickedRunl@CDlgImportPart@@QAEXXZ 00579240 f   DlgImportPart.obj
 0002:0005af60       ?UpdatebRunLibText@CDlgImportPart@@QAEXXZ 00579f60 f   DlgImportPart.obj
 0002:0005b2a0       ?CheckDocuments@CDlgImportPart@@QAEXPAV?$CStringT@DV?$StrTraitMFC_DLL@DV?$ChTraitsCRT@D@ATL@@@@@ATL@@0@Z 0057a2a0 f   DlgImportPart.obj
 0002:0005c290       ?OnBnClickedDoc1@CDlgImportPart@@QAEXXZ 0057b290 f   DlgImportPart.obj
 0002:0005c510       ?OnBnClickedDoc2@CDlgImportPart@@QAEXXZ 0057b510 f   DlgImportPart.obj
 0002:0005c970       ?OnBnClickedDoc3@CDlgImportPart@@QAEXXZ 0057b970 f   DlgImportPart.obj
 0002:0005cbf0       ?OnBnClickedDoc4@CDlgImportPart@@QAEXXZ 0057bbf0 f   DlgImportPart.obj
 0002:0005ce20       ?OnBnClickedRadioSearchAllPages@CDlgImportPart@@QAEXXZ 0057be20 f   DlgImportPart.obj
 0002:0005ce60       ?OnEnChangeDescription@CDlgImportPart@@QAEXXZ 0057be60 f   DlgImportPart.obj
 0002:0005db70       ?OnSelChangeDescription@CDlgImportPart@@QAEXXZ 0057cb70 f   DlgImportPart.obj
 0002:0005de30       ?OnBnClickedQ8@CDlgImportPart@@QAEXXZ 0057ce30 f   DlgImportPart.obj
 0002:0005deb0       ?OnBnClickedDoc5@CDlgImportPart@@QAEXXZ 0057ceb0 f   DlgImportPart.obj
 0002:0005e0c0       ?RemoveDescription@CDlgImportPart@@QAEXPAV?$CStringT@DV?$StrTraitMFC_DLL@DV?$ChTraitsCRT@D@ATL@@@@@ATL@@@Z 0057d0c0 f   DlgImportPart.obj
 0002:0005e330       ?OnBnClickedQu@CDlgImportPart@@QAEXXZ 0057d330 f   DlgImportPart.obj
 0002:0005e380       ?_GetBaseClass@CDlgIndexing@@KGPAUCRuntimeClass@@XZ 0057d380 f   DlgIndexing.obj
 0002:0005e3d0       ?GetThisClass@CDlgIndexing@@SGPAUCRuntimeClass@@XZ 0057d3d0 f   DlgIndexing.obj
 0002:0005e410       ?GetRuntimeClass@CDlgIndexing@@UBEPAUCRuntimeClass@@XZ 0057d410 f   DlgIndexing.obj
 0002:0005e450       ??0CDlgIndexing@@QAE@PAVCWnd@@@Z 0057d450 f   DlgIndexing.obj
 0002:0005e4c0       ??_GCDlgIndexing@@UAEPAXI@Z 0057d4c0 f i DlgIndexing.obj
 0002:0005e4c0       ??_ECDlgIndexing@@UAEPAXI@Z 0057d4c0 f i DlgIndexing.obj
 0002:0005e530       ??1CDlgIndexing@@UAE@XZ    0057d530 f   DlgIndexing.obj
 0002:0005e590       ?DoDataExchange@CDlgIndexing@@MAEXPAVCDataExchange@@@Z 0057d590 f   DlgIndexing.obj
 0002:0005e5f0       ?GetMessageMap@CDlgIndexing@@MBEPBUAFX_MSGMAP@@XZ 0057d5f0 f   DlgIndexing.obj
 0002:0005e640       ?GetThisMessageMap@CDlgIndexing@@KGPBUAFX_MSGMAP@@XZ 0057d640 f   DlgIndexing.obj
 0002:0005e680       ?_GetBaseClass@CDlgLayers@@KGPAUCRuntimeClass@@XZ 0057d680 f   DlgLayers.obj
 0002:0005e6d0       ?GetThisClass@CDlgLayers@@SGPAUCRuntimeClass@@XZ 0057d6d0 f   DlgLayers.obj
 0002:0005e710       ?GetRuntimeClass@CDlgLayers@@UBEPAUCRuntimeClass@@XZ 0057d710 f   DlgLayers.obj
 0002:0005e750       ??0CDlgLayers@@QAE@PAVCWnd@@@Z 0057d750 f   DlgLayers.obj
 0002:0005e820       ??_GCDlgLayers@@UAEPAXI@Z  0057d820 f i DlgLayers.obj
 0002:0005e820       ??_ECDlgLayers@@UAEPAXI@Z  0057d820 f i DlgLayers.obj
 0002:0005e890       ??1CDlgLayers@@UAE@XZ      0057d890 f   DlgLayers.obj
 0002:0005e950       ?DoDataExchange@CDlgLayers@@MAEXPAVCDataExchange@@@Z 0057d950 f   DlgLayers.obj
 0002:0005eb20       ?GetMessageMap@CDlgLayers@@MBEPBUAFX_MSGMAP@@XZ 0057db20 f   DlgLayers.obj
 0002:0005eb70       ?GetThisMessageMap@CDlgLayers@@KGPBUAFX_MSGMAP@@XZ 0057db70 f   DlgLayers.obj
 0002:0005ebb0       ?Initialize@CDlgLayers@@QAEXHQAHQAY02HH@Z 0057dbb0 f   DlgLayers.obj
 0002:0005ecd0       ?OnCtlColor@CDlgLayers@@QAEPAUHBRUSH__@@PAVCDC@@PAVCWnd@@I@Z 0057dcd0 f   DlgLayers.obj
 0002:0005ee80       ?OnBnClickedButtonLayer1@CDlgLayers@@QAEXXZ 0057de80 f   DlgLayers.obj
 0002:0005eee0       ?OnBnClickedButtonLayer2@CDlgLayers@@QAEXXZ 0057dee0 f   DlgLayers.obj
 0002:0005ef40       ?OnBnClickedButtonLayer3@CDlgLayers@@QAEXXZ 0057df40 f   DlgLayers.obj
 0002:0005efa0       ?OnBnClickedButtonLayer4@CDlgLayers@@QAEXXZ 0057dfa0 f   DlgLayers.obj
 0002:0005f000       ?OnBnClickedButtonLayer5@CDlgLayers@@QAEXXZ 0057e000 f   DlgLayers.obj
 0002:0005f060       ?OnBnClickedButtonLayer6@CDlgLayers@@QAEXXZ 0057e060 f   DlgLayers.obj
 0002:0005f0c0       ?OnBnClickedButtonLayer7@CDlgLayers@@QAEXXZ 0057e0c0 f   DlgLayers.obj
 0002:0005f120       ?OnBnClickedButtonLayer8@CDlgLayers@@QAEXXZ 0057e120 f   DlgLayers.obj
 0002:0005f180       ?OnBnClickedButtonLayer9@CDlgLayers@@QAEXXZ 0057e180 f   DlgLayers.obj
 0002:0005f1e0       ?OnBnClickedButtonLayer10@CDlgLayers@@QAEXXZ 0057e1e0 f   DlgLayers.obj
 0002:0005f240       ?OnBnClickedButtonLayer11@CDlgLayers@@QAEXXZ 0057e240 f   DlgLayers.obj
 0002:0005f2a0       ?OnBnClickedButtonLayer12@CDlgLayers@@QAEXXZ 0057e2a0 f   DlgLayers.obj
 0002:0005f300       ?OnBnClickedButtonLayer13@CDlgLayers@@QAEXXZ 0057e300 f   DlgLayers.obj
 0002:0005f360       ?OnBnClickedButtonLayer14@CDlgLayers@@QAEXXZ 0057e360 f   DlgLayers.obj
 0002:0005f3c0       ?OnBnClickedButtonLayer15@CDlgLayers@@QAEXXZ 0057e3c0 f   DlgLayers.obj
 0002:0005f420       ?OnBnClickedButtonLayer16@CDlgLayers@@QAEXXZ 0057e420 f   DlgLayers.obj
 0002:0005f480       ?OnBnClickedButtonLayer17@CDlgLayers@@QAEXXZ 0057e480 f   DlgLayers.obj
 0002:0005f4e0       ?OnBnClickedButtonLayer18@CDlgLayers@@QAEXXZ 0057e4e0 f   DlgLayers.obj
 0002:0005f540       ?OnBnClickedButtonLayer19@CDlgLayers@@QAEXXZ 0057e540 f   DlgLayers.obj
 0002:0005f5a0       ?OnBnClickedButtonLayer20@CDlgLayers@@QAEXXZ 0057e5a0 f   DlgLayers.obj
 0002:0005f600       ?OnBnClickedButtonLayer21@CDlgLayers@@QAEXXZ 0057e600 f   DlgLayers.obj
 0002:0005f660       ?OnBnClickedButtonLayer22@CDlgLayers@@QAEXXZ 0057e660 f   DlgLayers.obj
 0002:0005f6c0       ?OnBnClickedButtonLayer23@CDlgLayers@@QAEXXZ 0057e6c0 f   DlgLayers.obj
 0002:0005f720       ?OnBnClickedButtonLayer24@CDlgLayers@@QAEXXZ 0057e720 f   DlgLayers.obj
 0002:0005f780       ?OnBnClickedButtonLayer25@CDlgLayers@@QAEXXZ 0057e780 f   DlgLayers.obj
 0002:0005f7e0       ?OnBnClickedButtonLayer26@CDlgLayers@@QAEXXZ 0057e7e0 f   DlgLayers.obj
 0002:0005f840       ?OnBnClickedButtonLayer27@CDlgLayers@@QAEXXZ 0057e840 f   DlgLayers.obj
 0002:0005f8a0       ?OnBnClickedButtonLayer28@CDlgLayers@@QAEXXZ 0057e8a0 f   DlgLayers.obj
 0002:0005f900       ?OnBnClickedButtonLayer29@CDlgLayers@@QAEXXZ 0057e900 f   DlgLayers.obj
 0002:0005f960       ?OnBnClickedButtonLayer30@CDlgLayers@@QAEXXZ 0057e960 f   DlgLayers.obj
 0002:0005f9c0       ?OnBnClickedButtonLayer31@CDlgLayers@@QAEXXZ 0057e9c0 f   DlgLayers.obj
 0002:0005fa20       ?EditColor@CDlgLayers@@QAEXH@Z 0057ea20 f   DlgLayers.obj
 0002:0005fc10       ??1CColorDialog@@UAE@XZ    0057ec10 f i DlgLayers.obj
 0002:0005fc60       ??1CCommonDialog@@UAE@XZ   0057ec60 f i DlgLayers.obj
 0002:0005fcc0       ??_ECCommonDialog@@UAEPAXI@Z 0057ecc0 f i DlgLayers.obj
 0002:0005fcc0       ??_GCCommonDialog@@UAEPAXI@Z 0057ecc0 f i DlgLayers.obj
 0002:0005fd30       ?_GetBaseClass@CDlgLog@@KGPAUCRuntimeClass@@XZ 0057ed30 f   DlgLog.obj
 0002:0005fd80       ?GetThisClass@CDlgLog@@SGPAUCRuntimeClass@@XZ 0057ed80 f   DlgLog.obj
 0002:0005fdc0       ?GetRuntimeClass@CDlgLog@@UBEPAUCRuntimeClass@@XZ 0057edc0 f   DlgLog.obj
 0002:0005fe00       ??0CDlgLog@@QAE@PAVCWnd@@@Z 0057ee00 f   DlgLog.obj
 0002:0005fef0       ??_GCDlgLog@@UAEPAXI@Z     0057eef0 f i DlgLog.obj
 0002:0005fef0       ??_ECDlgLog@@UAEPAXI@Z     0057eef0 f i DlgLog.obj
 0002:0005ff60       ??1CDlgLog@@UAE@XZ         0057ef60 f   DlgLog.obj
 0002:00060020       ?DoDataExchange@CDlgLog@@MAEXPAVCDataExchange@@@Z 0057f020 f   DlgLog.obj
 0002:000600c0       ?GetMessageMap@CDlgLog@@MBEPBUAFX_MSGMAP@@XZ 0057f0c0 f   DlgLog.obj
 0002:00060110       ?GetThisMessageMap@CDlgLog@@KGPBUAFX_MSGMAP@@XZ 0057f110 f   DlgLog.obj
 0002:00060150       ?Move@CDlgLog@@QAEXHH@Z    0057f150 f   DlgLog.obj
 0002:00060230       ?Clear@CDlgLog@@QAEXXZ     0057f230 f   DlgLog.obj
 0002:00060290       ?RemoveAll@CDlgLog@@QAEXXZ 0057f290 f   DlgLog.obj
 0002:00060310       ?AddLine@CDlgLog@@QAEXPBD@Z 0057f310 f   DlgLog.obj
 0002:000603b0       ?AddParagraph@CDlgLog@@QAEXV?$CStringT@DV?$StrTraitMFC_DLL@DV?$ChTraitsCRT@D@ATL@@@@@ATL@@@Z 0057f3b0 f   DlgLog.obj
 0002:000607c0       ?AddHeader@CDlgLog@@QAEXV?$CStringT@DV?$StrTraitMFC_DLL@DV?$ChTraitsCRT@D@ATL@@@@@ATL@@H@Z 0057f7c0 f   DlgLog.obj
 0002:00060c20       ?OnBnClickedOk@CDlgLog@@QAEXXZ 0057fc20 f   DlgLog.obj
 0002:00060cb0       ?OnSetCursor@CDlgLog@@QAEHPAVCWnd@@II@Z 0057fcb0 f   DlgLog.obj
 0002:00060d40       ?OnBnClickedHideMe@CDlgLog@@QAEXXZ 0057fd40 f   DlgLog.obj
 0002:00060db0       ?OnShowMe@CDlgLog@@QAEXXZ  0057fdb0 f   DlgLog.obj
 0002:00060e30       ?OnBnClickedTXT@CDlgLog@@QAEXXZ 0057fe30 f   DlgLog.obj
 0002:00061220       ?_GetBaseClass@CDlgMoveOrigin@@KGPAUCRuntimeClass@@XZ 00580220 f   DlgMoveOrigin.obj
 0002:00061270       ?GetThisClass@CDlgMoveOrigin@@SGPAUCRuntimeClass@@XZ 00580270 f   DlgMoveOrigin.obj
 0002:000612b0       ?GetRuntimeClass@CDlgMoveOrigin@@UBEPAUCRuntimeClass@@XZ 005802b0 f   DlgMoveOrigin.obj
 0002:000612f0       ??0CDlgMoveOrigin@@QAE@PAVCWnd@@@Z 005802f0 f   DlgMoveOrigin.obj
 0002:00061410       ??_GCDlgMoveOrigin@@UAEPAXI@Z 00580410 f i DlgMoveOrigin.obj
 0002:00061410       ??_ECDlgMoveOrigin@@UAEPAXI@Z 00580410 f i DlgMoveOrigin.obj
 0002:00061480       ??1CDlgMoveOrigin@@UAE@XZ  00580480 f   DlgMoveOrigin.obj
 0002:00061590       ?DoDataExchange@CDlgMoveOrigin@@MAEXPAVCDataExchange@@@Z 00580590 f   DlgMoveOrigin.obj
 0002:000616f0       ?GetMessageMap@CDlgMoveOrigin@@MBEPBUAFX_MSGMAP@@XZ 005806f0 f   DlgMoveOrigin.obj
 0002:00061740       ?GetThisMessageMap@CDlgMoveOrigin@@KGPBUAFX_MSGMAP@@XZ 00580740 f   DlgMoveOrigin.obj
 0002:00061780       ?Initialize@CDlgMoveOrigin@@QAEXH@Z 00580780 f   DlgMoveOrigin.obj
 0002:000617f0       ?GetFields@CDlgMoveOrigin@@QAEXXZ 005807f0 f   DlgMoveOrigin.obj
 0002:000619e0       ?SetFields@CDlgMoveOrigin@@QAEXXZ 005809e0 f   DlgMoveOrigin.obj
 0002:00061cc0       ?OnCbnSelchangeUnits@CDlgMoveOrigin@@QAEXXZ 00580cc0 f   DlgMoveOrigin.obj
 0002:00061d20       ?OnBnClickedDrag@CDlgMoveOrigin@@QAEXXZ 00580d20 f   DlgMoveOrigin.obj
 0002:00061d80       ?OnBnClickedSet@CDlgMoveOrigin@@QAEXXZ 00580d80 f   DlgMoveOrigin.obj
 0002:00061de0       ?_GetBaseClass@CDlgMyMessageBox@@KGPAUCRuntimeClass@@XZ 00580de0 f   DlgMyMessageBox.obj
 0002:00061e30       ?GetThisClass@CDlgMyMessageBox@@SGPAUCRuntimeClass@@XZ 00580e30 f   DlgMyMessageBox.obj
 0002:00061e70       ?GetRuntimeClass@CDlgMyMessageBox@@UBEPAUCRuntimeClass@@XZ 00580e70 f   DlgMyMessageBox.obj
 0002:00061eb0       ??0CDlgMyMessageBox@@QAE@PAVCWnd@@@Z 00580eb0 f   DlgMyMessageBox.obj
 0002:00061fe0       ??_GCDlgMyMessageBox@@UAEPAXI@Z 00580fe0 f i DlgMyMessageBox.obj
 0002:00061fe0       ??_ECDlgMyMessageBox@@UAEPAXI@Z 00580fe0 f i DlgMyMessageBox.obj
 0002:00062050       ??1CDlgMyMessageBox@@UAE@XZ 00581050 f   DlgMyMessageBox.obj
 0002:00062170       ?DoDataExchange@CDlgMyMessageBox@@MAEXPAVCDataExchange@@@Z 00581170 f   DlgMyMessageBox.obj
 0002:00062420       ?GetMessageMap@CDlgMyMessageBox@@MBEPBUAFX_MSGMAP@@XZ 00581420 f   DlgMyMessageBox.obj
 0002:00062470       ?GetThisMessageMap@CDlgMyMessageBox@@KGPBUAFX_MSGMAP@@XZ 00581470 f   DlgMyMessageBox.obj
 0002:000624b0       ?Initialize@CDlgMyMessageBox@@QAEXPBD_J@Z 005814b0 f   DlgMyMessageBox.obj
 0002:00062540       ?_GetBaseClass@CDlgMyMessageBox2@@KGPAUCRuntimeClass@@XZ 00581540 f   DlgMyMessageBox2.obj
 0002:00062590       ?GetThisClass@CDlgMyMessageBox2@@SGPAUCRuntimeClass@@XZ 00581590 f   DlgMyMessageBox2.obj
 0002:000625d0       ?GetRuntimeClass@CDlgMyMessageBox2@@UBEPAUCRuntimeClass@@XZ 005815d0 f   DlgMyMessageBox2.obj
 0002:00062610       ??0CDlgMyMessageBox2@@QAE@PAVCWnd@@@Z 00581610 f   DlgMyMessageBox2.obj
 0002:000626f0       ??_ECDlgMyMessageBox2@@UAEPAXI@Z 005816f0 f i DlgMyMessageBox2.obj
 0002:000626f0       ??_GCDlgMyMessageBox2@@UAEPAXI@Z 005816f0 f i DlgMyMessageBox2.obj
 0002:00062760       ??1CDlgMyMessageBox2@@UAE@XZ 00581760 f   DlgMyMessageBox2.obj
 0002:00062830       ?DoDataExchange@CDlgMyMessageBox2@@MAEXPAVCDataExchange@@@Z 00581830 f   DlgMyMessageBox2.obj
 0002:00062950       ?GetMessageMap@CDlgMyMessageBox2@@MBEPBUAFX_MSGMAP@@XZ 00581950 f   DlgMyMessageBox2.obj
 0002:000629a0       ?GetThisMessageMap@CDlgMyMessageBox2@@KGPBUAFX_MSGMAP@@XZ 005819a0 f   DlgMyMessageBox2.obj
 0002:000629e0       ?Initialize@CDlgMyMessageBox2@@QAEXPAV?$CStringT@DV?$StrTraitMFC_DLL@DV?$ChTraitsCRT@D@ATL@@@@@ATL@@@Z 005819e0 f   DlgMyMessageBox2.obj
 0002:00062a30       ?ComparePartlist@@YGHJJJ@Z 00581a30 f   DlgPartlist.obj
 0002:000631e0       ?_GetBaseClass@CDlgPartlist@@KGPAUCRuntimeClass@@XZ 005821e0 f   DlgPartlist.obj
 0002:00063230       ?GetThisClass@CDlgPartlist@@SGPAUCRuntimeClass@@XZ 00582230 f   DlgPartlist.obj
 0002:00063270       ?GetRuntimeClass@CDlgPartlist@@UBEPAUCRuntimeClass@@XZ 00582270 f   DlgPartlist.obj
 0002:000632b0       ??0CDlgPartlist@@QAE@PAVCWnd@@@Z 005822b0 f   DlgPartlist.obj
 0002:00063400       ??_GCDlgPartlist@@UAEPAXI@Z 00582400 f i DlgPartlist.obj
 0002:00063400       ??_ECDlgPartlist@@UAEPAXI@Z 00582400 f i DlgPartlist.obj
 0002:00063470       ??1CDlgPartlist@@UAE@XZ    00582470 f   DlgPartlist.obj
 0002:000635b0       ?DoDataExchange@CDlgPartlist@@MAEXPAVCDataExchange@@@Z 005825b0 f   DlgPartlist.obj
 0002:000638f0       ?GetMessageMap@CDlgPartlist@@MBEPBUAFX_MSGMAP@@XZ 005828f0 f   DlgPartlist.obj
 0002:00063940       ?GetThisMessageMap@CDlgPartlist@@KGPBUAFX_MSGMAP@@XZ 00582940 f   DlgPartlist.obj
 0002:00063980       ?OnInitDialog@CDlgPartlist@@UAEHXZ 00582980 f   DlgPartlist.obj
 0002:000639f0       ?DrawListCtrl@CDlgPartlist@@QAEXXZ 005829f0 f   DlgPartlist.obj
 0002:00063dc0       ?Initialize@CDlgPartlist@@QAEXPAVCFreePcbView@@@Z 00582dc0 f   DlgPartlist.obj
 0002:00063f00       ?OnLvnColumnClickList1@CDlgPartlist@@QAEXPAUtagNMHDR@@PAJ@Z 00582f00 f   DlgPartlist.obj
 0002:000640f0       ?OnNMClickList1@CDlgPartlist@@QAEXPAUtagNMHDR@@PAJ@Z 005830f0 f   DlgPartlist.obj
 0002:00064150       ?SaveSelections@CDlgPartlist@@QAEXXZ 00583150 f   DlgPartlist.obj
 0002:000642a0       ?RestoreSelections@CDlgPartlist@@QAEXXZ 005832a0 f   DlgPartlist.obj
 0002:000643b0       ?OnJumpTo@CDlgPartlist@@QAEXPAUtagNMHDR@@PAJ@Z 005833b0 f   DlgPartlist.obj
 0002:00064410       ?JumpTo@CDlgPartlist@@QAEXXZ 00583410 f   DlgPartlist.obj
 0002:00064720       ?Size@CDlgPartlist@@QAEXHHH@Z 00583720 f   DlgPartlist.obj
 0002:00064980       ?OnSize@CDlgPartlist@@IAEXIHH@Z 00583980 f   DlgPartlist.obj
 0002:000649f0       ?OnMove@CDlgPartlist@@IAEXHH@Z 005839f0 f   DlgPartlist.obj
 0002:00064b20       ?OnFilter@CDlgPartlist@@QAEXXZ 00583b20 f   DlgPartlist.obj
 0002:00065bb0       ?Find@CDlgPartlist@@QAEHPAV?$CStringT@DV?$StrTraitMFC_DLL@DV?$ChTraitsCRT@D@ATL@@@@@ATL@@0@Z 00584bb0 f   DlgPartlist.obj
 0002:00065cc0       ?ReDraw@CDlgPartlist@@QAEXXZ 00584cc0 f   DlgPartlist.obj
 0002:00065d30       ?OnCancel@CDlgPartlist@@UAEXXZ 00584d30 f   DlgPartlist.obj
 0002:00065da0       ?OnHighlight@CDlgPartlist@@QAEXXZ 00584da0 f   DlgPartlist.obj
 0002:00066300       ?OnChange@CDlgPartlist@@QAEXXZ 00585300 f   DlgPartlist.obj
 0002:00066360       ?OnPCBCheck@CDlgPartlist@@QAEXXZ 00585360 f   DlgPartlist.obj
 0002:000663c0       ?GetColWidths@CDlgPartlist@@QAEXXZ 005853c0 f   DlgPartlist.obj
 0002:000665e0       ?OnTXT@CDlgPartlist@@QAEXXZ 005855e0 f   DlgPartlist.obj
 0002:00067490       ?InvertSelection@CDlgPartlist@@QAEXXZ 00586490 f   DlgPartlist.obj
 0002:00067570       ?GetPCBButtonCheck@CDlgPartlist@@QAEHXZ 00586570 f   DlgPartlist.obj
 0002:000675d0       ?OnBnClickedSall@CDlgPartlist@@QAEXXZ 005865d0 f   DlgPartlist.obj
 0002:00067670       ?OnBnClickedHpcb@CDlgPartlist@@QAEXXZ 00586670 f   DlgPartlist.obj
 0002:000676e0       ?OnEnChangeFilter@CDlgPartlist@@QAEXXZ 005866e0 f   DlgPartlist.obj
 0002:00067720       ?GetSize@?$CArray@HABH@@QBEHXZ 00586720 f i DlgPartlist.obj
 0002:00067760       ??_9CDlgPartlist@@$BBII@AE 00586760 f i DlgPartlist.obj
 0002:00067770       ??0?$CArray@HABH@@QAE@XZ   00586770 f i DlgPartlist.obj
 0002:00067800       ?SetSize@?$CArray@HABH@@QAEXHH@Z 00586800 f i DlgPartlist.obj
 0002:00067d90       ?RemoveAll@?$CArray@HABH@@QAEXXZ 00586d90 f i DlgPartlist.obj
 0002:00067df0       ?Add@?$CArray@HABH@@QAEHABH@Z 00586df0 f i DlgPartlist.obj
 0002:00067e60       ??A?$CArray@HABH@@QAEAAHH@Z 00586e60 f i DlgPartlist.obj
 0002:00067ec0       ??1?$CArray@HABH@@UAE@XZ   00586ec0 f i DlgPartlist.obj
 0002:00067fd0       ?Serialize@?$CArray@HABH@@UAEXAAVCArchive@@@Z 00586fd0 f i DlgPartlist.obj
 0002:000680a0       ?Dump@?$CArray@HABH@@UBEXAAVCDumpContext@@@Z 005870a0 f i DlgPartlist.obj
 0002:00068180       ?AssertValid@?$CArray@HABH@@UBEXXZ 00587180 f i DlgPartlist.obj
 0002:000682e0       ??_E?$CArray@HABH@@UAEPAXI@Z 005872e0 f i DlgPartlist.obj
 0002:000682e0       ??_G?$CArray@HABH@@UAEPAXI@Z 005872e0 f i DlgPartlist.obj
 0002:00068350       ?ElementAt@?$CArray@HABH@@QAEAAHH@Z 00587350 f i DlgPartlist.obj
 0002:00068400       ?SetAtGrow@?$CArray@HABH@@QAEXHABH@Z 00587400 f i DlgPartlist.obj
 0002:000684d0       ??$SerializeElements@H@@YGXAAVCArchive@@PAHH@Z 005874d0 f i DlgPartlist.obj
 0002:000686c0       ??$DumpElements@H@@YGXAAVCDumpContext@@PBHH@Z 005876c0 f i DlgPartlist.obj
 0002:000687b0       ?_GetBaseClass@CDlgPDFLayers@@KGPAUCRuntimeClass@@XZ 005877b0 f   DlgPDFLayers.obj
 0002:00068800       ?GetThisClass@CDlgPDFLayers@@SGPAUCRuntimeClass@@XZ 00587800 f   DlgPDFLayers.obj
 0002:00068840       ?GetRuntimeClass@CDlgPDFLayers@@UBEPAUCRuntimeClass@@XZ 00587840 f   DlgPDFLayers.obj
 0002:00068880       ??0CDlgPDFLayers@@QAE@PAVCWnd@@@Z 00587880 f   DlgPDFLayers.obj
 0002:00068970       ??_GCDlgPDFLayers@@UAEPAXI@Z 00587970 f i DlgPDFLayers.obj
 0002:00068970       ??_ECDlgPDFLayers@@UAEPAXI@Z 00587970 f i DlgPDFLayers.obj
 0002:000689e0       ??1CDlgPDFLayers@@UAE@XZ   005879e0 f   DlgPDFLayers.obj
 0002:00068ac0       ?DoDataExchange@CDlgPDFLayers@@MAEXPAVCDataExchange@@@Z 00587ac0 f   DlgPDFLayers.obj
 0002:00069540       ?GetMessageMap@CDlgPDFLayers@@MBEPBUAFX_MSGMAP@@XZ 00588540 f   DlgPDFLayers.obj
 0002:00069590       ?GetThisMessageMap@CDlgPDFLayers@@KGPBUAFX_MSGMAP@@XZ 00588590 f   DlgPDFLayers.obj
 0002:000695d0       ?Initialize@CDlgPDFLayers@@QAEXHQAHQAY02HQAPADHHMHHH@Z 005885d0 f   DlgPDFLayers.obj
 0002:000698f0       ?OnCtlColor@CDlgPDFLayers@@QAEPAUHBRUSH__@@PAVCDC@@PAVCWnd@@I@Z 005888f0 f   DlgPDFLayers.obj
 0002:00069aa0       ?OnBnClickedButtonLayer1@CDlgPDFLayers@@QAEXXZ 00588aa0 f   DlgPDFLayers.obj
 0002:00069b00       ?OnBnClickedButtonLayer2@CDlgPDFLayers@@QAEXXZ 00588b00 f   DlgPDFLayers.obj
 0002:00069b60       ?OnBnClickedButtonLayer3@CDlgPDFLayers@@QAEXXZ 00588b60 f   DlgPDFLayers.obj
 0002:00069bc0       ?OnBnClickedButtonLayer4@CDlgPDFLayers@@QAEXXZ 00588bc0 f   DlgPDFLayers.obj
 0002:00069c20       ?OnBnClickedButtonLayer5@CDlgPDFLayers@@QAEXXZ 00588c20 f   DlgPDFLayers.obj
 0002:00069c80       ?OnBnClickedButtonLayer6@CDlgPDFLayers@@QAEXXZ 00588c80 f   DlgPDFLayers.obj
 0002:00069ce0       ?OnBnClickedButtonLayer7@CDlgPDFLayers@@QAEXXZ 00588ce0 f   DlgPDFLayers.obj
 0002:00069d40       ?OnBnClickedButtonLayer8@CDlgPDFLayers@@QAEXXZ 00588d40 f   DlgPDFLayers.obj
 0002:00069da0       ?OnBnClickedButtonLayer9@CDlgPDFLayers@@QAEXXZ 00588da0 f   DlgPDFLayers.obj
 0002:00069e00       ?OnBnClickedButtonLayer10@CDlgPDFLayers@@QAEXXZ 00588e00 f   DlgPDFLayers.obj
 0002:00069e60       ?OnBnClickedButtonLayer11@CDlgPDFLayers@@QAEXXZ 00588e60 f   DlgPDFLayers.obj
 0002:00069ec0       ?OnBnClickedButtonLayer12@CDlgPDFLayers@@QAEXXZ 00588ec0 f   DlgPDFLayers.obj
 0002:00069f20       ?OnBnClickedButtonLayer13@CDlgPDFLayers@@QAEXXZ 00588f20 f   DlgPDFLayers.obj
 0002:00069f80       ?OnBnClickedButtonLayer14@CDlgPDFLayers@@QAEXXZ 00588f80 f   DlgPDFLayers.obj
 0002:00069fe0       ?OnBnClickedButtonLayer15@CDlgPDFLayers@@QAEXXZ 00588fe0 f   DlgPDFLayers.obj
 0002:0006a040       ?OnBnClickedButtonLayer16@CDlgPDFLayers@@QAEXXZ 00589040 f   DlgPDFLayers.obj
 0002:0006a0a0       ?OnBnClickedButtonLayer17@CDlgPDFLayers@@QAEXXZ 005890a0 f   DlgPDFLayers.obj
 0002:0006a100       ?OnBnClickedButtonLayer18@CDlgPDFLayers@@QAEXXZ 00589100 f   DlgPDFLayers.obj
 0002:0006a160       ?OnBnClickedButtonLayer19@CDlgPDFLayers@@QAEXXZ 00589160 f   DlgPDFLayers.obj
 0002:0006a1c0       ?OnBnClickedButtonLayer20@CDlgPDFLayers@@QAEXXZ 005891c0 f   DlgPDFLayers.obj
 0002:0006a220       ?OnBnClickedButtonLayer21@CDlgPDFLayers@@QAEXXZ 00589220 f   DlgPDFLayers.obj
 0002:0006a280       ?OnBnClickedButtonLayer22@CDlgPDFLayers@@QAEXXZ 00589280 f   DlgPDFLayers.obj
 0002:0006a2e0       ?OnBnClickedButtonLayer23@CDlgPDFLayers@@QAEXXZ 005892e0 f   DlgPDFLayers.obj
 0002:0006a340       ?OnBnClickedButtonLayer24@CDlgPDFLayers@@QAEXXZ 00589340 f   DlgPDFLayers.obj
 0002:0006a3a0       ?OnBnClickedButtonLayer25@CDlgPDFLayers@@QAEXXZ 005893a0 f   DlgPDFLayers.obj
 0002:0006a400       ?OnBnClickedButtonLayer26@CDlgPDFLayers@@QAEXXZ 00589400 f   DlgPDFLayers.obj
 0002:0006a460       ?OnBnClickedButtonLayer27@CDlgPDFLayers@@QAEXXZ 00589460 f   DlgPDFLayers.obj
 0002:0006a4c0       ?OnBnClickedButtonLayer28@CDlgPDFLayers@@QAEXXZ 005894c0 f   DlgPDFLayers.obj
 0002:0006a520       ?OnBnClickedButtonLayer29@CDlgPDFLayers@@QAEXXZ 00589520 f   DlgPDFLayers.obj
 0002:0006a580       ?OnBnClickedButtonLayer30@CDlgPDFLayers@@QAEXXZ 00589580 f   DlgPDFLayers.obj
 0002:0006a5e0       ?OnBnClickedButtonLayer31@CDlgPDFLayers@@QAEXXZ 005895e0 f   DlgPDFLayers.obj
 0002:0006a640       ?EditColor@CDlgPDFLayers@@QAEXH@Z 00589640 f   DlgPDFLayers.obj
 0002:0006a830       ?OnBnCancel@CDlgPDFLayers@@QAEXXZ 00589830 f   DlgPDFLayers.obj
 0002:0006a8c0       ?OnCbnSelchangeTextFonts@CDlgPDFLayers@@QAEXXZ 005898c0 f   DlgPDFLayers.obj
 0002:0006a900       ?_GetBaseClass@DlgPinMap@@KGPAUCRuntimeClass@@XZ 00589900 f   DlgPinMap.obj
 0002:0006a950       ?GetThisClass@DlgPinMap@@SGPAUCRuntimeClass@@XZ 00589950 f   DlgPinMap.obj
 0002:0006a990       ?GetRuntimeClass@DlgPinMap@@UBEPAUCRuntimeClass@@XZ 00589990 f   DlgPinMap.obj
 0002:0006a9d0       ??0DlgPinMap@@QAE@PAVCWnd@@@Z 005899d0 f   DlgPinMap.obj
 0002:0006aaf0       ??_GDlgPinMap@@UAEPAXI@Z   00589af0 f i DlgPinMap.obj
 0002:0006aaf0       ??_EDlgPinMap@@UAEPAXI@Z   00589af0 f i DlgPinMap.obj
 0002:0006ab60       ??1DlgPinMap@@UAE@XZ       00589b60 f   DlgPinMap.obj
 0002:0006ac60       ?DoDataExchange@DlgPinMap@@MAEXPAVCDataExchange@@@Z 00589c60 f   DlgPinMap.obj
 0002:0006cfe0       ?GetMessageMap@DlgPinMap@@MBEPBUAFX_MSGMAP@@XZ 0058bfe0 f   DlgPinMap.obj
 0002:0006d030       ?GetThisMessageMap@DlgPinMap@@KGPBUAFX_MSGMAP@@XZ 0058c030 f   DlgPinMap.obj
 0002:0006d070       ?Initialize@DlgPinMap@@QAEXPAVCText@@PAVCPageList@@@Z 0058c070 f   DlgPinMap.obj
 0002:0006d0d0       ?Filter@DlgPinMap@@QAEXXZ  0058c0d0 f   DlgPinMap.obj
 0002:0006d400       ?OnChange@DlgPinMap@@QAEXXZ 0058c400 f   DlgPinMap.obj
 0002:0006d450       ?OnSize@DlgPinMap@@IAEXIHH@Z 0058c450 f   DlgPinMap.obj
 0002:0006d5b0       ?OnLbnSelchangePinlist@DlgPinMap@@QAEXXZ 0058c5b0 f   DlgPinMap.obj
 0002:0006e660       ?OnBnClickedPinbutt@DlgPinMap@@QAEXXZ 0058d660 f   DlgPinMap.obj
 0002:0006ea90       ?WidthCompare@@YGHJJJ@Z    0058da90 f   DlgProjectOptions.obj
 0002:0006eaf0       ?_GetBaseClass@CDlgProjectOptions@@KGPAUCRuntimeClass@@XZ 0058daf0 f   DlgProjectOptions.obj
 0002:0006eb40       ?GetThisClass@CDlgProjectOptions@@SGPAUCRuntimeClass@@XZ 0058db40 f   DlgProjectOptions.obj
 0002:0006eb80       ?GetRuntimeClass@CDlgProjectOptions@@UBEPAUCRuntimeClass@@XZ 0058db80 f   DlgProjectOptions.obj
 0002:0006ebc0       ??0CDlgProjectOptions@@QAE@PAVCWnd@@@Z 0058dbc0 f   DlgProjectOptions.obj
 0002:0006edb0       ??_ECDlgProjectOptions@@UAEPAXI@Z 0058ddb0 f i DlgProjectOptions.obj
 0002:0006edb0       ??_GCDlgProjectOptions@@UAEPAXI@Z 0058ddb0 f i DlgProjectOptions.obj
 0002:0006ee20       ??1CDlgProjectOptions@@UAE@XZ 0058de20 f   DlgProjectOptions.obj
 0002:0006efb0       ?DoDataExchange@CDlgProjectOptions@@EAEXPAVCDataExchange@@@Z 0058dfb0 f   DlgProjectOptions.obj
 0002:0006fde0       ?GetMessageMap@CDlgProjectOptions@@MBEPBUAFX_MSGMAP@@XZ 0058ede0 f   DlgProjectOptions.obj
 0002:0006fe30       ?GetThisMessageMap@CDlgProjectOptions@@KGPBUAFX_MSGMAP@@XZ 0058ee30 f   DlgProjectOptions.obj
 0002:0006fe70       ?Init@CDlgProjectOptions@@QAEXHPAV?$CStringT@DV?$StrTraitMFC_DLL@DV?$ChTraitsCRT@D@ATL@@@@@ATL@@000HHHHHHMN@Z 0058ee70 f   DlgProjectOptions.obj
 0002:000705a0       ?OnInitDialog@CDlgProjectOptions@@EAEHXZ 0058f5a0 f   DlgProjectOptions.obj
 0002:00070650       ?OnEnChangeEditName@CDlgProjectOptions@@IAEXXZ 0058f650 f   DlgProjectOptions.obj
 0002:00070690       ?OnEnChangeEditFolder@CDlgProjectOptions@@IAEXXZ 0058f690 f   DlgProjectOptions.obj
 0002:000706f0       ?OnEnSetfocusEditFolder@CDlgProjectOptions@@IAEXXZ 0058f6f0 f   DlgProjectOptions.obj
 0002:00070740       ?OnEnKillfocusEditFolder@CDlgProjectOptions@@IAEXXZ 0058f740 f   DlgProjectOptions.obj
 0002:00070790       ?OnBnClickedButtonLib@CDlgProjectOptions@@QAEXXZ 0058f790 f   DlgProjectOptions.obj
 0002:000709d0       ?OnBnClickedButtonProjectFolder@CDlgProjectOptions@@QAEXXZ 0058f9d0 f   DlgProjectOptions.obj
 0002:00070c40       ?OnBnClickedQ11@CDlgProjectOptions@@QAEXXZ 0058fc40 f   DlgProjectOptions.obj
 0002:00070cc0       ?OnBnClickedDefaultFolder@CDlgProjectOptions@@QAEXXZ 0058fcc0 f   DlgProjectOptions.obj
 0002:00070d00       ?_GetBaseClass@CDlgProtection@@KGPAUCRuntimeClass@@XZ 0058fd00 f   DlgProtection.obj
 0002:00070d50       ?GetThisClass@CDlgProtection@@SGPAUCRuntimeClass@@XZ 0058fd50 f   DlgProtection.obj
 0002:00070d90       ?GetRuntimeClass@CDlgProtection@@UBEPAUCRuntimeClass@@XZ 0058fd90 f   DlgProtection.obj
 0002:00070dd0       ??0CDlgProtection@@QAE@PAVCWnd@@@Z 0058fdd0 f   DlgProtection.obj
 0002:00070ec0       ??_GCDlgProtection@@UAEPAXI@Z 0058fec0 f i DlgProtection.obj
 0002:00070ec0       ??_ECDlgProtection@@UAEPAXI@Z 0058fec0 f i DlgProtection.obj
 0002:00070f30       ??1CDlgProtection@@UAE@XZ  0058ff30 f   DlgProtection.obj
 0002:00071010       ?DoDataExchange@CDlgProtection@@MAEXPAVCDataExchange@@@Z 00590010 f   DlgProtection.obj
 0002:00071320       ?GetMessageMap@CDlgProtection@@MBEPBUAFX_MSGMAP@@XZ 00590320 f   DlgProtection.obj
 0002:00071370       ?GetThisMessageMap@CDlgProtection@@KGPBUAFX_MSGMAP@@XZ 00590370 f   DlgProtection.obj
 0002:000713b0       ?Initialize@CDlgProtection@@QAEXPAVCFreePcbDoc@@@Z 005903b0 f   DlgProtection.obj
 0002:00071400       ?OnBnClickedOk@CDlgProtection@@QAEXXZ 00590400 f   DlgProtection.obj
 0002:00071450       ?OnBnClickedCancel@CDlgProtection@@QAEXXZ 00590450 f   DlgProtection.obj
 0002:000714a0       ?FindArchive@CDlgProtection@@QAEHH@Z 005904a0 f   DlgProtection.obj
 0002:00071950       ?_GetBaseClass@CDlgReassignLayers@@KGPAUCRuntimeClass@@XZ 00590950 f   DlgReassignLayers.obj
 0002:000719a0       ?GetThisClass@CDlgReassignLayers@@SGPAUCRuntimeClass@@XZ 005909a0 f   DlgReassignLayers.obj
 0002:000719e0       ?GetRuntimeClass@CDlgReassignLayers@@UBEPAUCRuntimeClass@@XZ 005909e0 f   DlgReassignLayers.obj
 0002:00071a20       ??0CDlgReassignLayers@@QAE@PAVCWnd@@@Z 00590a20 f   DlgReassignLayers.obj
 0002:00071b00       ??_GCDlgReassignLayers@@UAEPAXI@Z 00590b00 f i DlgReassignLayers.obj
 0002:00071b00       ??_ECDlgReassignLayers@@UAEPAXI@Z 00590b00 f i DlgReassignLayers.obj
 0002:00071b70       ??1CDlgReassignLayers@@UAE@XZ 00590b70 f   DlgReassignLayers.obj
 0002:00071c30       ?DoDataExchange@CDlgReassignLayers@@MAEXPAVCDataExchange@@@Z 00590c30 f   DlgReassignLayers.obj
 0002:00072010       ?Initialize@CDlgReassignLayers@@QAEXHH@Z 00591010 f   DlgReassignLayers.obj
 0002:00072070       ?GetMessageMap@CDlgReassignLayers@@MBEPBUAFX_MSGMAP@@XZ 00591070 f   DlgReassignLayers.obj
 0002:000720c0       ?GetThisMessageMap@CDlgReassignLayers@@KGPBUAFX_MSGMAP@@XZ 005910c0 f   DlgReassignLayers.obj
 0002:00072100       ?_GetBaseClass@DlgRenumbers@@KGPAUCRuntimeClass@@XZ 00591100 f   DlgRenumbers.obj
 0002:00072150       ?GetThisClass@DlgRenumbers@@SGPAUCRuntimeClass@@XZ 00591150 f   DlgRenumbers.obj
 0002:00072190       ?GetRuntimeClass@DlgRenumbers@@UBEPAUCRuntimeClass@@XZ 00591190 f   DlgRenumbers.obj
 0002:000721d0       ??0DlgRenumbers@@QAE@PAVCWnd@@@Z 005911d0 f   DlgRenumbers.obj
 0002:000723a0       ??_GDlgRenumbers@@UAEPAXI@Z 005913a0 f i DlgRenumbers.obj
 0002:000723a0       ??_EDlgRenumbers@@UAEPAXI@Z 005913a0 f i DlgRenumbers.obj
 0002:00072410       ??1DlgRenumbers@@UAE@XZ    00591410 f   DlgRenumbers.obj
 0002:000725c0       ?Ini@DlgRenumbers@@QAEXPAV?$CStringT@DV?$StrTraitMFC_DLL@DV?$ChTraitsCRT@D@ATL@@@@@ATL@@HHH@Z 005915c0 f   DlgRenumbers.obj
 0002:00072640       ?DoDataExchange@DlgRenumbers@@MAEXPAVCDataExchange@@@Z 00591640 f   DlgRenumbers.obj
 0002:00073030       ?GetMessageMap@DlgRenumbers@@MBEPBUAFX_MSGMAP@@XZ 00592030 f   DlgRenumbers.obj
 0002:00073080       ?GetThisMessageMap@DlgRenumbers@@KGPBUAFX_MSGMAP@@XZ 00592080 f   DlgRenumbers.obj
 0002:000730c0       ?OnBnClickedRadioTb@DlgRenumbers@@IAEXXZ 005920c0 f   DlgRenumbers.obj
 0002:00073100       ?_GetBaseClass@DlgReplaceText@@KGPAUCRuntimeClass@@XZ 00592100 f   DlgReplaceText.obj
 0002:00073150       ?GetThisClass@DlgReplaceText@@SGPAUCRuntimeClass@@XZ 00592150 f   DlgReplaceText.obj
 0002:00073190       ?GetRuntimeClass@DlgReplaceText@@UBEPAUCRuntimeClass@@XZ 00592190 f   DlgReplaceText.obj
 0002:000731d0       ??0DlgReplaceText@@QAE@PAVCWnd@@@Z 005921d0 f   DlgReplaceText.obj
 0002:00073350       ??_GDlgReplaceText@@UAEPAXI@Z 00592350 f i DlgReplaceText.obj
 0002:00073350       ??_EDlgReplaceText@@UAEPAXI@Z 00592350 f i DlgReplaceText.obj
 0002:000733c0       ??1DlgReplaceText@@UAE@XZ  005923c0 f   DlgReplaceText.obj
 0002:000734d0       ?DoDataExchange@DlgReplaceText@@MAEXPAVCDataExchange@@@Z 005924d0 f   DlgReplaceText.obj
 0002:000736e0       ?GetMessageMap@DlgReplaceText@@MBEPBUAFX_MSGMAP@@XZ 005926e0 f   DlgReplaceText.obj
 0002:00073730       ?GetThisMessageMap@DlgReplaceText@@KGPBUAFX_MSGMAP@@XZ 00592730 f   DlgReplaceText.obj
 0002:00073770       ?CompareBOM@@YGHJJJ@Z      00592770 f   DlgReport.obj
 0002:00073b50       ?_GetBaseClass@CDlgPartlistRep@@KGPAUCRuntimeClass@@XZ 00592b50 f   DlgReport.obj
 0002:00073ba0       ?GetThisClass@CDlgPartlistRep@@SGPAUCRuntimeClass@@XZ 00592ba0 f   DlgReport.obj
 0002:00073be0       ?GetRuntimeClass@CDlgPartlistRep@@UBEPAUCRuntimeClass@@XZ 00592be0 f   DlgReport.obj
 0002:00073c20       ??0CDlgPartlistRep@@QAE@PAVCWnd@@@Z 00592c20 f   DlgReport.obj
 0002:00073dd0       ??_GCDlgPartlistRep@@UAEPAXI@Z 00592dd0 f i DlgReport.obj
 0002:00073dd0       ??_ECDlgPartlistRep@@UAEPAXI@Z 00592dd0 f i DlgReport.obj
 0002:00073e40       ??1CDlgPartlistRep@@UAE@XZ 00592e40 f   DlgReport.obj
 0002:00073f90       ?SaveBomOptions@CDlgPartlistRep@@QAEXXZ 00592f90 f   DlgReport.obj
 0002:00074280       ?DoDataExchange@CDlgPartlistRep@@MAEXPAVCDataExchange@@@Z 00593280 f   DlgReport.obj
 0002:00074800       ?ReloadList@CDlgPartlistRep@@QAEXXZ 00593800 f   DlgReport.obj
 0002:000754b0       ??1BomInTable@@QAE@XZ      005944b0 f i DlgReport.obj
 0002:00075670       ?GetMessageMap@CDlgPartlistRep@@MBEPBUAFX_MSGMAP@@XZ 00594670 f   DlgReport.obj
 0002:000756c0       ?GetThisMessageMap@CDlgPartlistRep@@KGPBUAFX_MSGMAP@@XZ 005946c0 f   DlgReport.obj
 0002:00075700       ?OnInitDialog@CDlgPartlistRep@@UAEHXZ 00594700 f   DlgReport.obj
 0002:00075770       ?DrawListCtrl@CDlgPartlistRep@@QAEXXZ 00594770 f   DlgReport.obj
 0002:00075b90       ?Initialize@CDlgPartlistRep@@QAEXPAVCPageList@@@Z 00594b90 f   DlgReport.obj
 0002:00075c30       ?OnLvnColumnClickList1@CDlgPartlistRep@@QAEXPAUtagNMHDR@@PAJ@Z 00594c30 f   DlgReport.obj
 0002:00075ef0       ?OnNMClickList1@CDlgPartlistRep@@QAEXPAUtagNMHDR@@PAJ@Z 00594ef0 f   DlgReport.obj
 0002:00076340       ?SaveSelections@CDlgPartlistRep@@QAEXXZ 00595340 f   DlgReport.obj
 0002:00076460       ?RestoreSelections@CDlgPartlistRep@@QAEXXZ 00595460 f   DlgReport.obj
 0002:00076560       ?OnTXT@CDlgPartlistRep@@QAEXXZ 00595560 f   DlgReport.obj
 0002:00077fc0       ?OnChange@CDlgPartlistRep@@QAEXXZ 00596fc0 f   DlgReport.obj
 0002:00078030       ?OnClick1@CDlgPartlistRep@@QAEXXZ 00597030 f   DlgReport.obj
 0002:000780a0       ?OnClick2@CDlgPartlistRep@@QAEXXZ 005970a0 f   DlgReport.obj
 0002:00078110       ?OnBnClickedBom2@CDlgPartlistRep@@QAEXXZ 00597110 f   DlgReport.obj
 0002:00078170       ?OnBnClickedEntirePr@CDlgPartlistRep@@QAEXXZ 00597170 f   DlgReport.obj
 0002:000781e0       ?OnBnClickedExcl@CDlgPartlistRep@@QAEXXZ 005971e0 f   DlgReport.obj
 0002:00078220       ?OnBnClickedIncl@CDlgPartlistRep@@QAEXXZ 00597220 f   DlgReport.obj
 0002:00078260       ?OnNMRClickList1@CDlgPartlistRep@@QAEXPAUtagNMHDR@@PAJ@Z 00597260 f   DlgReport.obj
 0002:000788b0       ?OnNMDblclkList1@CDlgPartlistRep@@QAEXPAUtagNMHDR@@PAJ@Z 005978b0 f   DlgReport.obj
 0002:00078b40       ?OnCbnDropdownRefLists@CDlgPartlistRep@@QAEXXZ 00597b40 f   DlgReport.obj
 0002:00078cb0       ?OnBnClickedCancel@CDlgPartlistRep@@QAEXXZ 00597cb0 f   DlgReport.obj
 0002:00078d20       ?_GetBaseClass@CDlgSetAreaHatch@@KGPAUCRuntimeClass@@XZ 00597d20 f   DlgSetAreaHatch.obj
 0002:00078d70       ?GetThisClass@CDlgSetAreaHatch@@SGPAUCRuntimeClass@@XZ 00597d70 f   DlgSetAreaHatch.obj
 0002:00078db0       ?GetRuntimeClass@CDlgSetAreaHatch@@UBEPAUCRuntimeClass@@XZ 00597db0 f   DlgSetAreaHatch.obj
 0002:00078df0       ??0CDlgSetAreaHatch@@QAE@PAVCWnd@@@Z 00597df0 f   DlgSetAreaHatch.obj
 0002:00078f00       ??_GCDlgSetAreaHatch@@UAEPAXI@Z 00597f00 f i DlgSetAreaHatch.obj
 0002:00078f00       ??_ECDlgSetAreaHatch@@UAEPAXI@Z 00597f00 f i DlgSetAreaHatch.obj
 0002:00078f70       ??1CDlgSetAreaHatch@@UAE@XZ 00597f70 f   DlgSetAreaHatch.obj
 0002:00079070       ?DoDataExchange@CDlgSetAreaHatch@@MAEXPAVCDataExchange@@@Z 00598070 f   DlgSetAreaHatch.obj
 0002:000790b0       ?GetMessageMap@CDlgSetAreaHatch@@MBEPBUAFX_MSGMAP@@XZ 005980b0 f   DlgSetAreaHatch.obj
 0002:00079100       ?GetThisMessageMap@CDlgSetAreaHatch@@KGPBUAFX_MSGMAP@@XZ 00598100 f   DlgSetAreaHatch.obj
 0002:00079140       ?Init@CDlgSetAreaHatch@@QAEXH@Z 00598140 f   DlgSetAreaHatch.obj
 0002:00079190       ?_GetBaseClass@CDlgShortcuts@@KGPAUCRuntimeClass@@XZ 00598190 f   DlgShortcuts.obj
 0002:000791e0       ?GetThisClass@CDlgShortcuts@@SGPAUCRuntimeClass@@XZ 005981e0 f   DlgShortcuts.obj
 0002:00079220       ?GetRuntimeClass@CDlgShortcuts@@UBEPAUCRuntimeClass@@XZ 00598220 f   DlgShortcuts.obj
 0002:00079260       ??0CDlgShortcuts@@QAE@PAVCWnd@@@Z 00598260 f   DlgShortcuts.obj
 0002:000792d0       ??_GCDlgShortcuts@@UAEPAXI@Z 005982d0 f i DlgShortcuts.obj
 0002:000792d0       ??_ECDlgShortcuts@@UAEPAXI@Z 005982d0 f i DlgShortcuts.obj
 0002:00079340       ??1CDlgShortcuts@@UAE@XZ   00598340 f   DlgShortcuts.obj
 0002:000793a0       ?DoDataExchange@CDlgShortcuts@@MAEXPAVCDataExchange@@@Z 005983a0 f   DlgShortcuts.obj
 0002:00079400       ?GetMessageMap@CDlgShortcuts@@MBEPBUAFX_MSGMAP@@XZ 00598400 f   DlgShortcuts.obj
 0002:00079450       ?GetThisMessageMap@CDlgShortcuts@@KGPBUAFX_MSGMAP@@XZ 00598450 f   DlgShortcuts.obj
 0002:00079490       ?_GetBaseClass@CDlgSideStyle@@KGPAUCRuntimeClass@@XZ 00598490 f   DlgSideStyle.obj
 0002:000794e0       ?GetThisClass@CDlgSideStyle@@SGPAUCRuntimeClass@@XZ 005984e0 f   DlgSideStyle.obj
 0002:00079520       ?GetRuntimeClass@CDlgSideStyle@@UBEPAUCRuntimeClass@@XZ 00598520 f   DlgSideStyle.obj
 0002:00079560       ??0CDlgSideStyle@@QAE@PAVCWnd@@@Z 00598560 f   DlgSideStyle.obj
 0002:000795d0       ??_ECDlgSideStyle@@UAEPAXI@Z 005985d0 f i DlgSideStyle.obj
 0002:000795d0       ??_GCDlgSideStyle@@UAEPAXI@Z 005985d0 f i DlgSideStyle.obj
 0002:00079640       ??1CDlgSideStyle@@UAE@XZ   00598640 f   DlgSideStyle.obj
 0002:000796a0       ?DoDataExchange@CDlgSideStyle@@MAEXPAVCDataExchange@@@Z 005986a0 f   DlgSideStyle.obj
 0002:00079720       ?GetMessageMap@CDlgSideStyle@@MBEPBUAFX_MSGMAP@@XZ 00598720 f   DlgSideStyle.obj
 0002:00079770       ?GetThisMessageMap@CDlgSideStyle@@KGPBUAFX_MSGMAP@@XZ 00598770 f   DlgSideStyle.obj
 0002:000797b0       ?Initialize@CDlgSideStyle@@QAEXH@Z 005987b0 f   DlgSideStyle.obj
 0002:00079800       ?_GetBaseClass@CDlgAttr@@KGPAUCRuntimeClass@@XZ 00598800 f   DlgAttr.obj
 0002:00079850       ?GetThisClass@CDlgAttr@@SGPAUCRuntimeClass@@XZ 00598850 f   DlgAttr.obj
 0002:00079890       ?GetRuntimeClass@CDlgAttr@@UBEPAUCRuntimeClass@@XZ 00598890 f   DlgAttr.obj
 0002:000798d0       ??0CDlgAttr@@QAE@PAVCWnd@@@Z 005988d0 f   DlgAttr.obj
 0002:00079d70       ??_ECDlgAttr@@UAEPAXI@Z    00598d70 f i DlgAttr.obj
 0002:00079d70       ??_GCDlgAttr@@UAEPAXI@Z    00598d70 f i DlgAttr.obj
 0002:00079de0       ??1CDlgAttr@@UAE@XZ        00598de0 f   DlgAttr.obj
 0002:0007a260       ?DoDataExchange@CDlgAttr@@MAEXPAVCDataExchange@@@Z 00599260 f   DlgAttr.obj
 0002:0007db40       ?Initialize@CDlgAttr@@QAEXPAV?$CArray@V?$CStringT@DV?$StrTraitMFC_DLL@DV?$ChTraitsCRT@D@ATL@@@@@ATL@@ABV12@@@PAVCFreePcbDoc@@PAV?$CStringT@DV?$StrTraitMFC_DLL@DV?$ChTraitsCRT@D@ATL@@@@@ATL@@222222222Vattr_size@@HH@Z 0059cb40 f   DlgAttr.obj
 0002:0007e080       ?GetMessageMap@CDlgAttr@@MBEPBUAFX_MSGMAP@@XZ 0059d080 f   DlgAttr.obj
 0002:0007e0d0       ?GetThisMessageMap@CDlgAttr@@KGPBUAFX_MSGMAP@@XZ 0059d0d0 f   DlgAttr.obj
 0002:0007e110       ?OnChange@CDlgAttr@@QAEXXZ 0059d110 f   DlgAttr.obj
 0002:0007e700       ?OnOpenLib@CDlgAttr@@QAEXXZ 0059d700 f   DlgAttr.obj
 0002:0007ecf0       ?OnQ1@CDlgAttr@@QAEXXZ     0059dcf0 f   DlgAttr.obj
 0002:0007ed70       ?OnQ2@CDlgAttr@@QAEXXZ     0059dd70 f   DlgAttr.obj
 0002:0007edf0       ?OnQ3@CDlgAttr@@QAEXXZ     0059ddf0 f   DlgAttr.obj
 0002:0007ee70       ?OnQ4@CDlgAttr@@QAEXXZ     0059de70 f   DlgAttr.obj
 0002:0007eef0       ?OnQ5@CDlgAttr@@QAEXXZ     0059def0 f   DlgAttr.obj
 0002:0007ef70       ?OnQ6@CDlgAttr@@QAEXXZ     0059df70 f   DlgAttr.obj
 0002:0007eff0       ?OnQ7@CDlgAttr@@QAEXXZ     0059dff0 f   DlgAttr.obj
 0002:0007f070       ?OnQ8@CDlgAttr@@QAEXXZ     0059e070 f   DlgAttr.obj
 0002:0007f0f0       ?OnQ9@CDlgAttr@@QAEXXZ     0059e0f0 f   DlgAttr.obj
 0002:0007f170       ?OnQ10@CDlgAttr@@QAEXXZ    0059e170 f   DlgAttr.obj
 0002:0007f1f0       ?OnCmd1@CDlgAttr@@QAEXXZ   0059e1f0 f   DlgAttr.obj
 0002:0007f440       ?OnCmd2@CDlgAttr@@QAEXXZ   0059e440 f   DlgAttr.obj
 0002:0007f7e0       ?OnCmd3@CDlgAttr@@QAEXXZ   0059e7e0 f   DlgAttr.obj
 0002:0007fa30       ?OnCmd4@CDlgAttr@@QAEXXZ   0059ea30 f   DlgAttr.obj
 0002:0007fc80       ?OnCmd5@CDlgAttr@@QAEXXZ   0059ec80 f   DlgAttr.obj
 0002:0007fed0       ?OnCmd6@CDlgAttr@@QAEXXZ   0059eed0 f   DlgAttr.obj
 0002:000802c0       ?OnCmd7@CDlgAttr@@QAEXXZ   0059f2c0 f   DlgAttr.obj
 0002:00080510       ?OnCopyData@CDlgAttr@@QAEHPAVCWnd@@PAUtagCOPYDATASTRUCT@@@Z 0059f510 f   DlgAttr.obj
 0002:00080680       ?OnCbnSelchangeFname@CDlgAttr@@QAEXXZ 0059f680 f   DlgAttr.obj
 0002:000806f0       ?OnCbnSelchangePartvalue@CDlgAttr@@QAEXXZ 0059f6f0 f   DlgAttr.obj
 0002:00080750       ?OnCbnSelchangePinname@CDlgAttr@@QAEXXZ 0059f750 f   DlgAttr.obj
 0002:00080790       ?OnCbnSelchangeNetname@CDlgAttr@@QAEXXZ 0059f790 f   DlgAttr.obj
 0002:000807f0       ?ShowHint@CDlgAttr@@QAEXH@Z 0059f7f0 f   DlgAttr.obj
 0002:00080cc0       ?OnCbnSelchangeRefdes@CDlgAttr@@QAEXXZ 0059fcc0 f   DlgAttr.obj
 0002:00080d00       ?OnCbnSelendokRefdes@CDlgAttr@@QAEXXZ 0059fd00 f   DlgAttr.obj
 0002:00080d40       ?OnCbnCloseupRefdes@CDlgAttr@@QAEXXZ 0059fd40 f   DlgAttr.obj
 0002:00080d80       ?OnCbnEditupdateRefdes@CDlgAttr@@QAEXXZ 0059fd80 f   DlgAttr.obj
 0002:00080dc0       ?OnCmd8@CDlgAttr@@QAEXXZ   0059fdc0 f   DlgAttr.obj
 0002:00081000       ?OnCmd9@CDlgAttr@@QAEXXZ   005a0000 f   DlgAttr.obj
 0002:00081410       ?OnQ11@CDlgAttr@@QAEXXZ    005a0410 f   DlgAttr.obj
 0002:00081490       ?OnQ12@CDlgAttr@@QAEXXZ    005a0490 f   DlgAttr.obj
 0002:00081510       ??MATL@@YA_NABV?$CStringT@DV?$StrTraitMFC_DLL@DV?$ChTraitsCRT@D@ATL@@@@@0@PBD@Z 005a0510 f i DlgAttr.obj
 0002:00081580       ??OATL@@YA_NABV?$CStringT@DV?$StrTraitMFC_DLL@DV?$ChTraitsCRT@D@ATL@@@@@0@PBD@Z 005a0580 f i DlgAttr.obj
 0002:000815f0       ??0attr_size@@QAE@XZ       005a05f0 f i DlgAttr.obj
 0002:00081710       ?Multiply@attr_size@@QAEXM@Z 005a0710 f i DlgAttr.obj
 0002:00081a40       ?ParseStringFields@@YAHPAV?$CStringT@DV?$StrTraitMFC_DLL@DV?$ChTraitsCRT@D@ATL@@@@@ATL@@PAV?$CArray@V?$CStringT@DV?$StrTraitMFC_DLL@DV?$ChTraitsCRT@D@ATL@@@@@ATL@@ABV12@@@@Z 005a0a40 f   file_io.obj
 0002:00081da0       ?ParseKeyString@@YAHPAV?$CStringT@DV?$StrTraitMFC_DLL@DV?$ChTraitsCRT@D@ATL@@@@@ATL@@0PAV?$CArray@V?$CStringT@DV?$StrTraitMFC_DLL@DV?$ChTraitsCRT@D@ATL@@@@@ATL@@ABV12@@@@Z 005a0da0 f   file_io.obj
 0002:00082520       ?my_atoi@@YAHPAV?$CStringT@DV?$StrTraitMFC_DLL@DV?$ChTraitsCRT@D@ATL@@@@@ATL@@@Z 005a1520 f   file_io.obj
 0002:00082c30       ?my_atof@@YANPAV?$CStringT@DV?$StrTraitMFC_DLL@DV?$ChTraitsCRT@D@ATL@@@@@ATL@@@Z 005a1c30 f   file_io.obj
 0002:00083400       ?CreateObject@CFreePcbDoc@@SGPAVCObject@@XZ 005a2400 f   Documents.obj
 0002:000834f0       ?_GetBaseClass@CFreePcbDoc@@KGPAUCRuntimeClass@@XZ 005a24f0 f   Documents.obj
 0002:00083540       ?GetThisClass@CFreePcbDoc@@SGPAUCRuntimeClass@@XZ 005a2540 f   Documents.obj
 0002:00083580       ?GetRuntimeClass@CFreePcbDoc@@UBEPAUCRuntimeClass@@XZ 005a2580 f   Documents.obj
 0002:000835c0       ?GetMessageMap@CFreePcbDoc@@MBEPBUAFX_MSGMAP@@XZ 005a25c0 f   Documents.obj
 0002:00083610       ?GetThisMessageMap@CFreePcbDoc@@KGPBUAFX_MSGMAP@@XZ 005a2610 f   Documents.obj
 0002:00083650       ??0CFreePcbDoc@@IAE@XZ     005a2650 f   Documents.obj
 0002:000843b0       ??_ECFreePcbDoc@@UAEPAXI@Z 005a33b0 f i Documents.obj
 0002:000843b0       ??_GCFreePcbDoc@@UAEPAXI@Z 005a33b0 f i Documents.obj
 0002:00084420       ??1CFreePcbDoc@@UAE@XZ     005a3420 f   Documents.obj
 0002:00084c70       ??_GSMFontUtil@@QAEPAXI@Z  005a3c70 f i Documents.obj
 0002:00084ce0       ?SendInitialUpdate@CFreePcbDoc@@QAEXXZ 005a3ce0 f   Documents.obj
 0002:00084d30       ?OnNewDocument@CFreePcbDoc@@UAEHXZ 005a3d30 f   Documents.obj
 0002:00084e20       ?Serialize@CFreePcbDoc@@UAEXAAVCArchive@@@Z 005a3e20 f   Documents.obj
 0002:00084e60       ?AssertValid@CFreePcbDoc@@UBEXXZ 005a3e60 f   Documents.obj
 0002:00084eb0       ?Dump@CFreePcbDoc@@UBEXAAVCDumpContext@@@Z 005a3eb0 f   Documents.obj
 0002:00084f10       ?OnSaveDocument@CFreePcbDoc@@UAEHPBD@Z 005a3f10 f   Documents.obj
 0002:00084f70       ?OnFileNew@CFreePcbDoc@@QAEXXZ 005a3f70 f   Documents.obj
 0002:00086920       ?GetName@CDlgProjectOptions@@QAE?AV?$CStringT@DV?$StrTraitMFC_DLL@DV?$ChTraitsCRT@D@ATL@@@@@ATL@@XZ 005a5920 f i Documents.obj
 0002:000869b0       ?GetPathToFolder@CDlgProjectOptions@@QAE?AV?$CStringT@DV?$StrTraitMFC_DLL@DV?$ChTraitsCRT@D@ATL@@@@@ATL@@XZ 005a59b0 f i Documents.obj
 0002:00086a40       ?GetLibFolder@CDlgProjectOptions@@QAE?AV?$CStringT@DV?$StrTraitMFC_DLL@DV?$ChTraitsCRT@D@ATL@@@@@ATL@@XZ 005a5a40 f i Documents.obj
 0002:00086ad0       ?GetNumALayers@CDlgProjectOptions@@QAEHXZ 005a5ad0 f i Documents.obj
 0002:00086b10       ?GetPolyWidth@CDlgProjectOptions@@QAEHXZ 005a5b10 f i Documents.obj
 0002:00086b50       ?GetFont@CDlgProjectOptions@@QAEHXZ 005a5b50 f i Documents.obj
 0002:00086b90       ?GetNodeWidth@CDlgProjectOptions@@QAEHXZ 005a5b90 f i Documents.obj
 0002:00086bd0       ?GetScale@CDlgProjectOptions@@QAENXZ 005a5bd0 f i Documents.obj
 0002:00086c10       ?RunFileDialog@CFreePcbDoc@@QAE?AV?$CStringT@DV?$StrTraitMFC_DLL@DV?$ChTraitsCRT@D@ATL@@@@@ATL@@HV23@@Z 005a5c10 f   Documents.obj
 0002:000878e0       ?OnFileOpen@CFreePcbDoc@@QAEXXZ 005a68e0 f   Documents.obj
 0002:00087a80       ?OnFileAutoOpen@CFreePcbDoc@@QAEXPBD@Z 005a6a80 f   Documents.obj
 0002:00088250       ?FileOpen@CFreePcbDoc@@QAEHPBD@Z 005a7250 f   Documents.obj
 0002:0008a450       ?OnFileClose@CFreePcbDoc@@QAEXXZ 005a9450 f   Documents.obj
 0002:0008a4a0       ?FileClose@CFreePcbDoc@@QAEHXZ 005a94a0 f   Documents.obj
 0002:0008ad60       ?OnFileSave@CFreePcbDoc@@QAEXXZ 005a9d60 f   Documents.obj
 0002:0008aef0       ?AutoSave@CFreePcbDoc@@QAEHXZ 005a9ef0 f   Documents.obj
 0002:0008b7d0       ?FileSave@CFreePcbDoc@@QAEHPAV?$CStringT@DV?$StrTraitMFC_DLL@DV?$ChTraitsCRT@D@ATL@@@@@ATL@@000H@Z 005aa7d0 f   Documents.obj
 0002:0008d280       ?OnFileSaveAs@CFreePcbDoc@@QAEXXZ 005ac280 f   Documents.obj
 0002:0008d810       ?WriteOutlinesPoly@CFreePcbDoc@@QAEXPAVCStdioFile@@H@Z 005ac810 f   Documents.obj
 0002:0008fd10       ?ReadGraphics@CFreePcbDoc@@QAE?AV?$CStringT@DV?$StrTraitMFC_DLL@DV?$ChTraitsCRT@D@ATL@@@@@ATL@@PAVCStdioFile@@PAV?$CArray@VCPolyLine@@ABV1@@@HHPAUtagRECT@@H_JHH@Z 005aed10 f   Documents.obj
 0002:00094370       ?ReadOptions@CFreePcbDoc@@QAEHPAVCStdioFile@@H@Z 005b3370 f   Documents.obj
 0002:00098270       ?OnTextReplace@CFreePcbView@@QAEXXZ 005b7270 f   FreePcbView.obj
 0002:00099230       ?WriteOptions@CFreePcbDoc@@QAEXPAVCStdioFile@@HPAV?$CStringT@DV?$StrTraitMFC_DLL@DV?$ChTraitsCRT@D@ATL@@@@@ATL@@@Z 005b8230 f   Documents.obj
 0002:0009c6b0       ?InitializeNewProject@CFreePcbDoc@@QAEXXZ 005bb6b0 f   Documents.obj
 0002:0009de20       ?ProjectModified@CFreePcbDoc@@QAEXHH@Z 005bce20 f   Documents.obj
 0002:0009e450       ?SaveOptions@CFreePcbDoc@@QAEXXZ 005bd450 f   Documents.obj
 0002:0009e860       ?OnViewLayers@CFreePcbDoc@@QAEXXZ 005bd860 f   Documents.obj
 0002:0009eaf0       ?Check_Txt_Msg@CFreePcbDoc@@QAEHPAV?$CStringT@DV?$StrTraitMFC_DLL@DV?$ChTraitsCRT@D@ATL@@@@@ATL@@0@Z 005bdaf0 f   Documents.obj
 0002:0009ef00       ?FileExport@CFreePcbDoc@@QAEXV?$CStringT@DV?$StrTraitMFC_DLL@DV?$ChTraitsCRT@D@ATL@@@@@ATL@@H@Z 005bdf00 f   Documents.obj
 0002:0009f210       ?OnFileExport1@CFreePcbDoc@@QAEXXZ 005be210 f   Documents.obj
 0002:0009f270       ?OnFileExport@CFreePcbDoc@@QAEXH@Z 005be270 f   Documents.obj
 0002:0009fa00       ?OnFileSetNetlist@CFreePcbDoc@@QAEXXZ 005bea00 f   Documents.obj
 0002:0009fef0       ?GetSessionLayer@@YAHPAV?$CStringT@DV?$StrTraitMFC_DLL@DV?$ChTraitsCRT@D@ATL@@@@@ATL@@@Z 005beef0 f   Documents.obj
 0002:000a00d0       ?ExportPCBNetlist@CFreePcbDoc@@QAEHPAVCStdioFile@@IIPAV?$CArray@V?$CStringT@DV?$StrTraitMFC_DLL@DV?$ChTraitsCRT@D@ATL@@@@@ATL@@ABV12@@@@Z 005bf0d0 f   Documents.obj
 0002:000a2dd0       ?OnAppExit@CFreePcbDoc@@QAEXXZ 005c1dd0 f   Documents.obj
 0002:000a2e40       ?CreateMoveOriginUndoRecord@CFreePcbDoc@@QAEPAUundo_move_origin@@HH@Z 005c1e40 f   Documents.obj
 0002:000a2ee0       ?MoveOriginUndoCallback@CFreePcbDoc@@SAXPAXH@Z 005c1ee0 f   Documents.obj
 0002:000a2fb0       ?CreateOutlinePolyUndoRecord@CFreePcbDoc@@QAEPAUundo_outline_poly@@PAVCPolyLine@@H@Z 005c1fb0 f   Documents.obj
 0002:000a3300       ?OutlinePolyUndoCallback@CFreePcbDoc@@SAXPAXH@Z 005c2300 f   Documents.obj
 0002:000a3760       ?OnFileGenerateCadFiles@CFreePcbDoc@@QAEXXZ 005c2760 f   Documents.obj
 0002:000a4030       ?OnProjectAdaptGrid@CFreePcbDoc@@QAEXXZ 005c3030 f   Documents.obj
 0002:000a6240       ?abs@@YANN@Z               005c5240 f i Documents.obj
 0002:000a62a0       ?OnProjectPartList@CFreePcbDoc@@QAEXXZ 005c52a0 f   Documents.obj
 0002:000a64f0       ?OnProjectGenBOM@CFreePcbDoc@@QAEXXZ 005c54f0 f   Documents.obj
 0002:000a6680       ?OnProjectGenBOM2@CFreePcbDoc@@QAEXXZ 005c5680 f   Documents.obj
 0002:000a6780       ?OnProjectGenBOM3@CFreePcbDoc@@QAEXXZ 005c5780 f   Documents.obj
 0002:000a6950       ?OnProjectGenTag@CFreePcbDoc@@QAEXXZ 005c5950 f   Documents.obj
 0002:000a6b20       ??0TagTable@@QAE@XZ        005c5b20 f i Documents.obj
 0002:000a6d00       ??1TagTable@@QAE@XZ        005c5d00 f i Documents.obj
 0002:000a6ec0       ?OnProjectOptions@CFreePcbDoc@@QAEXXZ 005c5ec0 f   Documents.obj
 0002:000a8070       ?OnTimer@CFreePcbDoc@@QAEXXZ 005c7070 f   Documents.obj
 0002:000a80b0       ?OnToolsDrc@CFreePcbDoc@@QAEXXZ 005c70b0 f   Documents.obj
 0002:000a8310       ?OnToolsClearDrc@CFreePcbDoc@@QAEXXZ 005c7310 f   Documents.obj
 0002:000a83d0       ?OnToolsClearAllDrc@CFreePcbDoc@@QAEXXZ 005c73d0 f   Documents.obj
 0002:000a8490       ?OnToolsShowDRCErrorlist@CFreePcbDoc@@QAEXXZ 005c7490 f   Documents.obj
 0002:000a84d0       ?OnViewLog@CFreePcbDoc@@QAEXXZ 005c74d0 f   Documents.obj
 0002:000a8540       ?OnEditSelectAll@CFreePcbDoc@@QAEXXZ 005c7540 f   Documents.obj
 0002:000a8830       ?OnEditPasteFromFile@CFreePcbDoc@@QAEXXZ 005c7830 f   Documents.obj
 0002:000a8f90       ?PasteFromFile@CFreePcbDoc@@QAEXV?$CStringT@DV?$StrTraitMFC_DLL@DV?$ChTraitsCRT@D@ATL@@@@@ATL@@HH@Z 005c7f90 f   Documents.obj
 0002:000a9a40       ?OnFileGerbV@CFreePcbDoc@@QAEXV?$CStringT@DV?$StrTraitMFC_DLL@DV?$ChTraitsCRT@D@ATL@@@@@ATL@@0@Z 005c8a40 f   Documents.obj
 0002:000aa230       ?OnEditUndo@CFreePcbDoc@@QAEXXZ 005c9230 f   Documents.obj
 0002:000aa320       ?OnEditRedo@CFreePcbDoc@@QAEXXZ 005c9320 f   Documents.obj
 0002:000aa470       ?ResetUndoState@CFreePcbDoc@@QAEXXZ 005c9470 f   Documents.obj
 0002:000aa4f0       ?OnRepeatDrc@CFreePcbDoc@@QAEXXZ 005c94f0 f   Documents.obj
 0002:000aa590       ?OPRefreshID@CFreePcbDoc@@QAEXXZ 005c9590 f   Documents.obj
 0002:000aa6b0       ?CombineBoardOutlines@CFreePcbDoc@@QAEHHH@Z 005c96b0 f   Documents.obj
 0002:000ab630       ?ClipOP@CFreePcbDoc@@QAEXH@Z 005ca630 f   Documents.obj
 0002:000abd30       ?OnCreatePolyline@CFreePcbDoc@@QAEXXZ 005cad30 f   Documents.obj
 0002:000ad300       ?OnProjectCombineBoard@CFreePcbDoc@@QAEXXZ 005cc300 f   Documents.obj
 0002:000adc30       ?DRC@CFreePcbDoc@@QAEHXZ   005ccc30 f   Documents.obj
 0002:000b5b30       ?GetSelected@StrList@@QAEHXZ 005d4b30 f i FreePcbView.obj
 0002:000b5ba0       ?StartDraggingGroup@CFreePcbView@@QAEXHHH@Z 005d4ba0 f   FreePcbView.obj
 0002:000b7ae0       ?fabs@@YAMM@Z              005d6ae0 f i Documents.obj
 0002:000b7b40       _fabsf                     005d6b40 f i Documents.obj
 0002:000b7bb0       ?GetGerberPathes@CFreePcbDoc@@QAEHV?$CStringT@DV?$StrTraitMFC_DLL@DV?$ChTraitsCRT@D@ATL@@@@@ATL@@@Z 005d6bb0 f   Documents.obj
 0002:000b8860       ?GetTextListbyLayer@CFreePcbDoc@@QAEPAVCTextList@@H@Z 005d7860 f   Documents.obj
 0002:000b8970       ?GetFreeNet@CFreePcbDoc@@QAEPAVCText@@PAV?$CStringT@DV?$StrTraitMFC_DLL@DV?$ChTraitsCRT@D@ATL@@@@@ATL@@HHHH@Z 005d7970 f   Documents.obj
 0002:000b8c50       ?CheckFree@CFreePcbDoc@@QAEHPAVCPolyLine@@H@Z 005d7c50 f   Documents.obj
 0002:000b8cf0       ?FindFreePolyline@CFreePcbDoc@@QAEHH@Z 005d7cf0 f   Documents.obj
 0002:000b8dd0       ?CreatePCBNets@CFreePcbDoc@@QAEHH@Z 005d7dd0 f   Documents.obj
 0002:000bc650       ??0poly_ptr_array@@QAE@XZ  005db650 f i Documents.obj
 0002:000bc6c0       ??1poly_ptr_array@@QAE@XZ  005db6c0 f i Documents.obj
 0002:000bc720       ?FindNodeLines@CFreePcbDoc@@QAEHPAVCText@@0PAHHPAUpoly_ptr_array@@PAUtagRECT@@@Z 005db720 f   Documents.obj
 0002:000bcaf0       ?FindNodeLine@CFreePcbDoc@@QAEHHPAVCText@@0HHPAV?$CArray@PAVCPolyLine@@ABQAV1@@@PAUtagRECT@@2@Z 005dbaf0 f   Documents.obj
 0002:000be5e0       ?ScanAttr@CFreePcbDoc@@QAEPAVCText@@PAVCPolyLine@@PAH@Z 005dd5e0 f   Documents.obj
 0002:000be6d0       ?AttributeIndexing@CFreePcbDoc@@QAEXPAVCText@@H@Z 005dd6d0 f   Documents.obj
 0002:000be930       ?AttributeIndexing@CFreePcbDoc@@QAEXH@Z 005dd930 f   Documents.obj
 0002:000bea60       ?GetPartBounds@CFreePcbDoc@@QAE?AUtagRECT@@PAVCText@@0@Z 005dda60 f   Documents.obj
 0002:000becb0       ?GetPolylineBounds@CFreePcbDoc@@QAE?AUtagRECT@@PAU2@@Z 005ddcb0 f   Documents.obj
 0002:000befe0       ?SelectPart@CFreePcbDoc@@QAEXPAVCText@@0HH@Z 005ddfe0 f   Documents.obj
 0002:000bf8e0       ?HighlightPartAttributes@CFreePcbDoc@@QAEXPAVCText@@0@Z 005de8e0 f   Documents.obj
 0002:000bfb70       ?SelectPartAttributes@CFreePcbDoc@@QAEXPAVCText@@H@Z 005deb70 f   Documents.obj
 0002:000bfe50       ?SelectLineAttributes@CFreePcbDoc@@QAEXPAVCPolyLine@@H@Z 005dee50 f   Documents.obj
 0002:000c0130       ?SelectGroupAttributes@CFreePcbDoc@@QAEXXZ 005df130 f   Documents.obj
 0002:000c0770       ?HighlightLineAttributes@CFreePcbDoc@@QAEXPAVCPolyLine@@@Z 005df770 f   Documents.obj
 0002:000c0960       ?TryToRemoveSuffix@CFreePcbDoc@@QAEXXZ 005df960 f   Documents.obj
 0002:000c1310       ?Renumber__Add@CFreePcbDoc@@QAEXPAV?$CStringT@DV?$StrTraitMFC_DLL@DV?$ChTraitsCRT@D@ATL@@@@@ATL@@0HHH@Z 005e0310 f   Documents.obj
 0002:000c2860       ?RenumberPartDesignations@CFreePcbDoc@@QAEXXZ 005e1860 f   Documents.obj
 0002:000c2d80       ?ClearPartDesignations@CFreePcbDoc@@QAEXXZ 005e1d80 f   Documents.obj
 0002:000c32f0       ?RaisePartNumbers@CFreePcbDoc@@QAEXXZ 005e22f0 f   Documents.obj
 0002:000c4660       ?PartRenumbering@CFreePcbDoc@@QAEXPAV?$CStringT@DV?$StrTraitMFC_DLL@DV?$ChTraitsCRT@D@ATL@@@@@ATL@@0HHHH@Z 005e3660 f   Documents.obj
 0002:000c5fc0       ?ReplacePartPattern@CFreePcbDoc@@QAEXPAVCText@@@Z 005e4fc0 f   Documents.obj
 0002:000c7d30       ?UpdatePartPattern@CFreePcbDoc@@QAEXPAVCText@@0@Z 005e6d30 f   Documents.obj
 0002:000c9300       ?CheckComponentInLibrary@CFreePcbDoc@@QAEXPAVCText@@PAV?$CStringT@DV?$StrTraitMFC_DLL@DV?$ChTraitsCRT@D@ATL@@@@@ATL@@1@Z 005e8300 f   Documents.obj
 0002:000cdc10       ?AssertValid@?$CArray@Vid@@ABV1@@@UBEXXZ 005ecc10 f i FreePcbView.obj
 0002:000cdd30       ?SelectItemsInRect@CFreePcbView@@QAEXVCRect@@I@Z 005ecd30 f   FreePcbView.obj
 0002:000cee50       ?HighLightNet@CFreePcbDoc@@QAEXPAVCText@@@Z 005ede50 f   Documents.obj
 0002:000cf040       ?OnFilePrint@CFreePcbDoc@@QAEXXZ 005ee040 f   Documents.obj
 0002:000d4550       ?OnTextSimilar@CFreePcbView@@QAEXXZ 005f3550 f   FreePcbView.obj
 0002:000d57b0       ?abs@@YAMM@Z               005f47b0 f i Documents.obj
 0002:000d5810       ?AddPage@CFreePcbDoc@@QAEXXZ 005f4810 f   Documents.obj
 0002:000d5980       ?AddNewPage@CFreePcbDoc@@QAEXPAV?$CStringT@DV?$StrTraitMFC_DLL@DV?$ChTraitsCRT@D@ATL@@@@@ATL@@H@Z 005f4980 f   Documents.obj
 0002:000d6800       ?SwitchToPage@CFreePcbDoc@@QAEHHHH@Z 005f5800 f   Documents.obj
 0002:000d7160       ?RenamePage@CFreePcbDoc@@QAEXHPAV?$CStringT@DV?$StrTraitMFC_DLL@DV?$ChTraitsCRT@D@ATL@@@@@ATL@@@Z 005f6160 f   Documents.obj
 0002:000d7640       ?DeletePage@CFreePcbDoc@@QAEXH@Z 005f6640 f   Documents.obj
 0002:000d86a0       ?SwitchToPage1@CFreePcbDoc@@QAEXXZ 005f76a0 f   Documents.obj
 0002:000d8700       ?SwitchToPage2@CFreePcbDoc@@QAEXXZ 005f7700 f   Documents.obj
 0002:000d8760       ?SwitchToPage3@CFreePcbDoc@@QAEXXZ 005f7760 f   Documents.obj
 0002:000d87c0       ?SwitchToPage4@CFreePcbDoc@@QAEXXZ 005f77c0 f   Documents.obj
 0002:000d8820       ?SwitchToPage5@CFreePcbDoc@@QAEXXZ 005f7820 f   Documents.obj
 0002:000d8880       ?SwitchToPage6@CFreePcbDoc@@QAEXXZ 005f7880 f   Documents.obj
 0002:000d88e0       ?SwitchToPage7@CFreePcbDoc@@QAEXXZ 005f78e0 f   Documents.obj
 0002:000d8940       ?SwitchToPage8@CFreePcbDoc@@QAEXXZ 005f7940 f   Documents.obj
 0002:000d89a0       ?DeletePage1@CFreePcbDoc@@QAEXXZ 005f79a0 f   Documents.obj
 0002:000d8a00       ?DeletePage2@CFreePcbDoc@@QAEXXZ 005f7a00 f   Documents.obj
 0002:000d8a60       ?DeletePage3@CFreePcbDoc@@QAEXXZ 005f7a60 f   Documents.obj
 0002:000d8ac0       ?DeletePage4@CFreePcbDoc@@QAEXXZ 005f7ac0 f   Documents.obj
 0002:000d8b20       ?DeletePage5@CFreePcbDoc@@QAEXXZ 005f7b20 f   Documents.obj
 0002:000d8b80       ?DeletePage6@CFreePcbDoc@@QAEXXZ 005f7b80 f   Documents.obj
 0002:000d8be0       ?DeletePage7@CFreePcbDoc@@QAEXXZ 005f7be0 f   Documents.obj
 0002:000d8c40       ?DeletePage8@CFreePcbDoc@@QAEXXZ 005f7c40 f   Documents.obj
 0002:000d8ca0       ?RenamePage1@CFreePcbDoc@@QAEXXZ 005f7ca0 f   Documents.obj
 0002:000d8d00       ?RenamePage2@CFreePcbDoc@@QAEXXZ 005f7d00 f   Documents.obj
 0002:000d8d60       ?RenamePage3@CFreePcbDoc@@QAEXXZ 005f7d60 f   Documents.obj
 0002:000d8dc0       ?RenamePage4@CFreePcbDoc@@QAEXXZ 005f7dc0 f   Documents.obj
 0002:000d8e20       ?RenamePage5@CFreePcbDoc@@QAEXXZ 005f7e20 f   Documents.obj
 0002:000d8e80       ?RenamePage6@CFreePcbDoc@@QAEXXZ 005f7e80 f   Documents.obj
 0002:000d8ee0       ?RenamePage7@CFreePcbDoc@@QAEXXZ 005f7ee0 f   Documents.obj
 0002:000d8f40       ?RenamePage8@CFreePcbDoc@@QAEXXZ 005f7f40 f   Documents.obj
 0002:000d8fa0       ?OnAttachBMP1@CFreePcbDoc@@QAEXXZ 005f7fa0 f   Documents.obj
 0002:000d9000       ?OnAttachBMP2@CFreePcbDoc@@QAEXXZ 005f8000 f   Documents.obj
 0002:000d9340       ?OnAttachGND1@CFreePcbDoc@@QAEXXZ 005f8340 f   Documents.obj
 0002:000d9450       ?OnAttachGND2@CFreePcbDoc@@QAEXXZ 005f8450 f   Documents.obj
 0002:000d9560       ?OnAttachGND3@CFreePcbDoc@@QAEXXZ 005f8560 f   Documents.obj
 0002:000d9670       ?OnAttachGND4@CFreePcbDoc@@QAEXXZ 005f8670 f   Documents.obj
 0002:000d9780       ?OnAttachGND5@CFreePcbDoc@@QAEXXZ 005f8780 f   Documents.obj
 0002:000d9890       ?OnDetachBMP@CFreePcbDoc@@QAEXXZ 005f8890 f   Documents.obj
 0002:000d9a70       ?AttachBMP@CFreePcbDoc@@QAEXHPAV?$CStringT@DV?$StrTraitMFC_DLL@DV?$ChTraitsCRT@D@ATL@@@@@ATL@@@Z 005f8a70 f   Documents.obj
 0002:000da0c0       ?AddSource@CFreePcbDoc@@QAEHPAV?$CStringT@DV?$StrTraitMFC_DLL@DV?$ChTraitsCRT@D@ATL@@@@@ATL@@@Z 005f90c0 f   Documents.obj
 0002:000db1b0       ?OnAttrSync@CFreePcbDoc@@QAEXXZ 005fa1b0 f   Documents.obj
 0002:000db2e0       ?AttributeSync@CFreePcbDoc@@QAEHPAVCText@@PAV?$CStringT@DV?$StrTraitMFC_DLL@DV?$ChTraitsCRT@D@ATL@@@@@ATL@@0H@Z 005fa2e0 f   Documents.obj
 0002:000db7f0       ?AttributeSync@CFreePcbDoc@@QAEXXZ 005fa7f0 f   Documents.obj
 0002:000dc3f0       ?GetNumPins@CFreePcbDoc@@QAEHPAVCText@@PAV?$CArray@VCPolyLine@@ABV1@@@@Z 005fb3f0 f   Documents.obj
 0002:000dc4d0       ?GetNumAllPins@CFreePcbDoc@@QAEHPAVCText@@PAV?$CArray@VCPolyLine@@ABV1@@@@Z 005fb4d0 f   Documents.obj
 0002:000dc5a0       ?AddRefList@CFreePcbDoc@@QAEXXZ 005fb5a0 f   Documents.obj
 0002:000dc600       ?DelRefList@CFreePcbDoc@@QAEXXZ 005fb600 f   Documents.obj
 0002:000dc660       ?RefList@CFreePcbDoc@@QAEHH@Z 005fb660 f   Documents.obj
 0002:000dcd40       ?AddNewRefList@CFreePcbDoc@@QAEHPAV?$CStringT@DV?$StrTraitMFC_DLL@DV?$ChTraitsCRT@D@ATL@@@@@ATL@@@Z 005fbd40 f   Documents.obj
 0002:000dcf00       ?OnReflistRemoveItem@CFreePcbDoc@@QAEXH@Z 005fbf00 f   Documents.obj
 0002:000dd120       ?PlayRefList1@CFreePcbDoc@@QAEXXZ 005fc120 f   Documents.obj
 0002:000dd180       ?PlayRefList2@CFreePcbDoc@@QAEXXZ 005fc180 f   Documents.obj
 0002:000dd1e0       ?PlayRefList3@CFreePcbDoc@@QAEXXZ 005fc1e0 f   Documents.obj
 0002:000dd240       ?PlayRefList4@CFreePcbDoc@@QAEXXZ 005fc240 f   Documents.obj
 0002:000dd2a0       ?PlayRefList5@CFreePcbDoc@@QAEXXZ 005fc2a0 f   Documents.obj
 0002:000dd300       ?PlayRefList6@CFreePcbDoc@@QAEXXZ 005fc300 f   Documents.obj
 0002:000dd360       ?PlayRefList7@CFreePcbDoc@@QAEXXZ 005fc360 f   Documents.obj
 0002:000dd3c0       ?PlayRefList8@CFreePcbDoc@@QAEXXZ 005fc3c0 f   Documents.obj
 0002:000dd420       ?PlayRefList9@CFreePcbDoc@@QAEXXZ 005fc420 f   Documents.obj
 0002:000dd480       ?PlayRefList10@CFreePcbDoc@@QAEXXZ 005fc480 f   Documents.obj
 0002:000dd4e0       ?PlayRefList11@CFreePcbDoc@@QAEXXZ 005fc4e0 f   Documents.obj
 0002:000dd540       ?PlayRefList12@CFreePcbDoc@@QAEXXZ 005fc540 f   Documents.obj
 0002:000dd5a0       ?PlayRefList13@CFreePcbDoc@@QAEXXZ 005fc5a0 f   Documents.obj
 0002:000dd600       ?PlayRefList14@CFreePcbDoc@@QAEXXZ 005fc600 f   Documents.obj
 0002:000dd660       ?PlayRefList15@CFreePcbDoc@@QAEXXZ 005fc660 f   Documents.obj
 0002:000dd6c0       ?PlayRefList16@CFreePcbDoc@@QAEXXZ 005fc6c0 f   Documents.obj
 0002:000dd720       ?PlayRefList17@CFreePcbDoc@@QAEXXZ 005fc720 f   Documents.obj
 0002:000dd780       ?PlayRefList18@CFreePcbDoc@@QAEXXZ 005fc780 f   Documents.obj
 0002:000dd7e0       ?PlayRefList19@CFreePcbDoc@@QAEXXZ 005fc7e0 f   Documents.obj
 0002:000dd840       ?PlayRefList20@CFreePcbDoc@@QAEXXZ 005fc840 f   Documents.obj
 0002:000dd8a0       ?PlayRefList@CFreePcbDoc@@QAEXH@Z 005fc8a0 f   Documents.obj
 0002:000ddf80       ?EnsureNotMinimized@CFreePcbDoc@@QAEXPAUHWND__@@HH@Z 005fcf80 f   Documents.obj
 0002:000dfbc0       ?GetAdapter@CDocument@@UAEPAUIDocument@ATL@@XZ 005febc0 f i Documents.obj
 0002:000dfd90       ??0CDocumentAdapter@CDocument@@QAE@PAV1@@Z 005fed90 f i Documents.obj
 0002:000dfe00       ??0IDocument@ATL@@IAE@XZ   005fee00 f i Documents.obj
 0002:000dfe50       ?AddRef@IDocument@ATL@@UAEJXZ 005fee50 f i Documents.obj
 0002:000dfeb0       ?Release@IDocument@ATL@@UAEJXZ 005feeb0 f i Documents.obj
 0002:000dffb0       ??_EIDocument@ATL@@UAEPAXI@Z 005fefb0 f i Documents.obj
 0002:000dffb0       ??_GIDocument@ATL@@UAEPAXI@Z 005fefb0 f i Documents.obj
 0002:000e0020       ??1IDocument@ATL@@UAE@XZ   005ff020 f i Documents.obj
 0002:000e0060       ?LoadFromStream@CDocumentAdapter@CDocument@@UAEJPAUIStream@@K@Z 005ff060 f i Documents.obj
 0002:000e0190       ??0CTraceFileAndLineInfo@ATL@@QAE@PBDH@Z 005ff190 f i Documents.obj
 0002:000e01e0       ??RCTraceFileAndLineInfo@ATL@@QBAXPBDZZ 005ff1e0 f i Documents.obj
 0002:000e0270       ?TraceV@CTrace@ATL@@QBAXPBDHKI0PAD@Z 005ff270 f i Documents.obj
 0002:000e02e0       ??BCTraceCategory@ATL@@QBEKXZ 005ff2e0 f i Documents.obj
 0002:000e0320       ?InitializeSearchContent@CDocumentAdapter@CDocument@@UAEXXZ 005ff320 f i Documents.obj
 0002:000e03f0       ?ClearChunkList@CDocumentAdapter@CDocument@@UAEXXZ 005ff3f0 f i Documents.obj
 0002:000e04c0       ?SetChunkValue@CDocumentAdapter@CDocument@@UAEHPAUIFilterChunkValue@ATL@@@Z 005ff4c0 f i Documents.obj
 0002:000e0590       ?BeginReadChunks@CDocumentAdapter@CDocument@@UAEXXZ 005ff590 f i Documents.obj
 0002:000e0660       ?ReadNextChunkValue@CDocumentAdapter@CDocument@@UAEHPAPAUIFilterChunkValue@ATL@@@Z 005ff660 f i Documents.obj
 0002:000e0730       ?RemoveChunk@CDocumentAdapter@CDocument@@UAEXABU_GUID@@K@Z 005ff730 f i Documents.obj
 0002:000e0810       ?FindChunk@CDocumentAdapter@CDocument@@UAEPAU__POSITION@@ABU_GUID@@K@Z 005ff810 f i Documents.obj
 0002:000e08f0       ?GetContainer@CDocumentAdapter@CDocument@@UBEPAXXZ 005ff8f0 f i Documents.obj
 0002:000e0930       ?GetThumbnail@CDocumentAdapter@CDocument@@UAEHIPAPAUHBITMAP__@@PAW4WTS_ALPHATYPE@@@Z 005ff930 f i Documents.obj
 0002:000e0a10       ?OnBeforeRichPreviewFontChanged@CDocument@@UAEXXZ 005ffa10 f i Documents.obj
 0002:000e0a50       ?OnRichPreviewFontChanged@CDocument@@UAEXXZ 005ffa50 f i Documents.obj
 0002:000e0a90       ?OnRichPreviewTextColorChanged@CDocument@@UAEXXZ 005ffa90 f i Documents.obj
 0002:000e0ad0       ?OnRichPreviewBackColorChanged@CDocument@@UAEXXZ 005ffad0 f i Documents.obj
 0002:000e0b10       ?OnRichPreviewSiteChanged@CDocument@@UAEXXZ 005ffb10 f i Documents.obj
 0002:000e0b50       ?InitializeSearchContent@CDocument@@UAEXXZ 005ffb50 f i Documents.obj
 0002:000e0bd0       ??_GCDocumentAdapter@CDocument@@UAEPAXI@Z 005ffbd0 f i Documents.obj
 0002:000e0bd0       ??_ECDocumentAdapter@CDocument@@UAEPAXI@Z 005ffbd0 f i Documents.obj
 0002:000e0c40       ??1CDocumentAdapter@CDocument@@UAE@XZ 005ffc40 f i Documents.obj
 0002:000e0d60       ?OnSendMess@CFreePcbDoc@@QAEPAUHWND__@@PAU2@PAV?$CStringT@DV?$StrTraitMFC_DLL@DV?$ChTraitsCRT@D@ATL@@@@@ATL@@@Z 005ffd60 f   Documents.obj
 0002:000e0f10       ?SwitchToPCB@CFreePcbDoc@@QAEXXZ 005fff10 f   Documents.obj
 0002:000e0f70       ?SwitchToPcbOnButton@CFreePcbDoc@@QAEXXZ 005fff70 f   Documents.obj
 0002:000e10c0       ?SwitchToPCB@CFreePcbDoc@@QAEXHHH@Z 006000c0 f   Documents.obj
 0002:000e2e20       ?SwitchToCDS@CFreePcbDoc@@QAEXPAV?$CStringT@DV?$StrTraitMFC_DLL@DV?$ChTraitsCRT@D@ATL@@@@@ATL@@0H@Z 00601e20 f   Documents.obj
 0002:000e3880       ?CheckBOM@CFreePcbDoc@@QAEXXZ 00602880 f   Documents.obj
 0002:000e39d0       ?ExtractBLK@CFreePcbDoc@@QAEHPAV?$CStringT@DV?$StrTraitMFC_DLL@DV?$ChTraitsCRT@D@ATL@@@@@ATL@@00@Z 006029d0 f   Documents.obj
 0002:000e3e30       ?ExtractBLK_PTR@CFreePcbDoc@@QAEHPAV?$CStringT@DV?$StrTraitMFC_DLL@DV?$ChTraitsCRT@D@ATL@@@@@ATL@@000@Z 00602e30 f   Documents.obj
 0002:000e4330       ?RenumberComplexPart@CFreePcbDoc@@QAEHPAVCText@@PAV?$CStringT@DV?$StrTraitMFC_DLL@DV?$ChTraitsCRT@D@ATL@@@@@ATL@@11@Z 00603330 f   Documents.obj
 0002:000e5180       ?SelectAdj@CFreePcbDoc@@QAEXXZ 00604180 f   Documents.obj
 0002:000e5260       ?OnSimilarPoly@CFreePcbDoc@@QAEXXZ 00604260 f   Documents.obj
 0002:000e5610       ?OnReplacePoly@CFreePcbDoc@@QAEXXZ 00604610 f   Documents.obj
 0002:000e5ba0       ?OnOpenTemplate@CFreePcbDoc@@QAEHI@Z 00604ba0 f   Documents.obj
 0002:000e6a30       ?OnCompare@CFreePcbDoc@@QAEHI@Z 00605a30 f   Documents.obj
 0002:000e6b60       ?OnProtection@CFreePcbDoc@@QAEXXZ 00605b60 f   Documents.obj
 0002:000e7040       ?OnCreateBranch@CFreePcbDoc@@QAEXXZ 00606040 f   Documents.obj
 0002:000e7140       ?OnSelectProjectFolder@CFreePcbDoc@@QAEXXZ 00606140 f   Documents.obj
 0002:000e7350       ?OnReloadMenu@CFreePcbDoc@@QAEXXZ 00606350 f   Documents.obj
 0002:000e74f0       ?OnRunLibManager@CFreePcbDoc@@QAEXXZ 006064f0 f   Documents.obj
 0002:000e77f0       ?OnRunFontManager@CFreePcbDoc@@QAEXXZ 006067f0 f   Documents.obj
 0002:000e7980       ?OnRunImpDxf@CFreePcbDoc@@QAEXXZ 00606980 f   Documents.obj
 0002:000e7b10       ?OnRunImpPcad@CFreePcbDoc@@QAEXXZ 00606b10 f   Documents.obj
 0002:000e7ca0       ?OnImportNetlist@CFreePcbDoc@@QAEXXZ 00606ca0 f   Documents.obj
 0002:000e7f50       ?OnAddFavorite@CFreePcbDoc@@QAEXXZ 00606f50 f   Documents.obj
 0002:000e86f0       ?OnOpenComponentDatasheets@CFreePcbDoc@@QAEXXZ 006076f0 f   Documents.obj
 0002:000e8860       ?OnOpenComponentDatasheetsM@CFreePcbDoc@@QAEXXZ 00607860 f   Documents.obj
 0002:000e8a40       ?OnComponentImage@CFreePcbDoc@@QAEXXZ 00607a40 f   Documents.obj
 0002:000e8d30       ?ComponentImage@CFreePcbDoc@@QAEXPAV?$CStringT@DV?$StrTraitMFC_DLL@DV?$ChTraitsCRT@D@ATL@@@@@ATL@@@Z 00607d30 f   Documents.obj
 0002:000e9210       ?OnComponentURL@CFreePcbDoc@@QAEXXZ 00608210 f   Documents.obj
 0002:000e9f50       ?OnComponentNote@CFreePcbDoc@@QAEXXZ 00608f50 f   Documents.obj
 0002:000e9fb0       ?OnTXTNote@CFreePcbDoc@@QAEXXZ 00608fb0 f   Documents.obj
 0002:000ea010       ?OnDOCNote@CFreePcbDoc@@QAEXXZ 00609010 f   Documents.obj
 0002:000ea070       ?OnPDFNote@CFreePcbDoc@@QAEXXZ 00609070 f   Documents.obj
 0002:000ea0d0       ?OnURLNote@CFreePcbDoc@@QAEXXZ 006090d0 f   Documents.obj
 0002:000ea130       ?ComponentNote@CFreePcbDoc@@QAEXH@Z 00609130 f   Documents.obj
 0002:000ec420       ?OnSpeedFile@CFreePcbDoc@@QAEHI@Z 0060b420 f   Documents.obj
 0002:000ec4d0       ?OnRangeCmds@CFreePcbDoc@@QAEHI@Z 0060b4d0 f   Documents.obj
 0002:000ec560       ?OnAddMarks@CFreePcbDoc@@QAEXXZ 0060b560 f   Documents.obj
 0002:000ecb80       ?OnGetPinMap@CFreePcbDoc@@QAEXXZ 0060bb80 f   Documents.obj
 0002:000ecda0       ?PinTextAlignment@CFreePcbDoc@@QAEHPAVCText@@@Z 0060bda0 f   Documents.obj
 0002:000ed5e0       ?EnableMenuItems@CFreePcbDoc@@QAEXXZ 0060c5e0 f   Documents.obj
 0002:000eda50       ?DisableMenuItems@CFreePcbDoc@@QAEXXZ 0060ca50 f   Documents.obj
 0002:000edd10       ?GetAt@?$CArray@VCPoint@@ABV1@@@QAEAAVCPoint@@H@Z 0060cd10 f i Documents.obj
 0002:000eddc0       ?InsertAt@?$CArray@V?$CStringT@DV?$StrTraitMFC_DLL@DV?$ChTraitsCRT@D@ATL@@@@@ATL@@ABV12@@@QAEXHABV?$CStringT@DV?$StrTraitMFC_DLL@DV?$ChTraitsCRT@D@ATL@@@@@ATL@@H@Z 0060cdc0 f i Documents.obj
 0002:000ee090       ??0?$CArray@VCPolyLine@@ABV1@@@QAE@XZ 0060d090 f i Documents.obj
 0002:000ee120       ??A?$CArray@VCPolyLine@@ABV1@@@QAEAAVCPolyLine@@H@Z 0060d120 f i Documents.obj
 0002:000ee180       ??0?$CArray@PAVCPolyLine@@ABQAV1@@@QAE@XZ 0060d180 f i Documents.obj
 0002:000ee210       ?GetSize@?$CArray@PAVCPolyLine@@ABQAV1@@@QBEHXZ 0060d210 f i Documents.obj
 0002:000ee250       ?GetAt@?$CArray@PAVCPolyLine@@ABQAV1@@@QAEAAPAVCPolyLine@@H@Z 0060d250 f i Documents.obj
 0002:000ee300       ?Add@?$CArray@PAVCPolyLine@@ABQAV1@@@QAEHABQAVCPolyLine@@@Z 0060d300 f i Documents.obj
 0002:000ee370       ??A?$CArray@PAVCPolyLine@@ABQAV1@@@QAEAAPAVCPolyLine@@H@Z 0060d370 f i Documents.obj
 0002:000ee3d0       ??0?$CArray@NABN@@QAE@XZ   0060d3d0 f i Documents.obj
 0002:000ee460       ?GetSize@?$CArray@NABN@@QBEHXZ 0060d460 f i Documents.obj
 0002:000ee4a0       ?RemoveAll@?$CArray@NABN@@QAEXXZ 0060d4a0 f i Documents.obj
 0002:000ee500       ?Add@?$CArray@NABN@@QAEHABN@Z 0060d500 f i Documents.obj
 0002:000ee570       ??A?$CArray@NABN@@QAEAANH@Z 0060d570 f i Documents.obj
 0002:000ee5d0       ??0?$CArray@VCArc@@ABV1@@@QAE@XZ 0060d5d0 f i Documents.obj
 0002:000ee660       ??1?$CArray@VCArc@@ABV1@@@UAE@XZ 0060d660 f i Documents.obj
 0002:000ee770       ?Serialize@?$CArray@VCArc@@ABV1@@@UAEXAAVCArchive@@@Z 0060d770 f i Documents.obj
 0002:000ee840       ?Dump@?$CArray@VCArc@@ABV1@@@UBEXAAVCDumpContext@@@Z 0060d840 f i Documents.obj
 0002:000ee920       ?AssertValid@?$CArray@VCArc@@ABV1@@@UBEXXZ 0060d920 f i Documents.obj
 0002:000eea80       ??_G?$CArray@VCArc@@ABV1@@@UAEPAXI@Z 0060da80 f i Documents.obj
 0002:000eea80       ??_E?$CArray@VCArc@@ABV1@@@UAEPAXI@Z 0060da80 f i Documents.obj
 0002:000eeaf0       ?ElementAt@?$CArray@VCPolyLine@@ABV1@@@QAEAAVCPolyLine@@H@Z 0060daf0 f i Documents.obj
 0002:000eeba0       ?ElementAt@?$CArray@PAVCPolyLine@@ABQAV1@@@QAEAAPAVCPolyLine@@H@Z 0060dba0 f i Documents.obj
 0002:000eec50       ?SetAtGrow@?$CArray@PAVCPolyLine@@ABQAV1@@@QAEXHABQAVCPolyLine@@@Z 0060dc50 f i Documents.obj
 0002:000eed20       ?ElementAt@?$CArray@NABN@@QAEAANH@Z 0060dd20 f i Documents.obj
 0002:000eedd0       ?SetAtGrow@?$CArray@NABN@@QAEXHABN@Z 0060ddd0 f i Documents.obj
 0002:000eeea0       ?SetSize@?$CArray@VCArc@@ABV1@@@QAEXHH@Z 0060dea0 f i Documents.obj
 0002:000ef440       ??$SerializeElements@VCArc@@@@YGXAAVCArchive@@PAVCArc@@H@Z 0060e440 f i Documents.obj
 0002:000ef630       ??$DumpElements@VCArc@@@@YGXAAVCDumpContext@@PBVCArc@@H@Z 0060e630 f i Documents.obj
 0002:000ef720       ?Set@id@@QAEXHHHHH@Z       0060e720 f i Documents.obj
 0002:000ef790       ?GetGridStyle@CDisplayList@@QAEHXZ 0060e790 f i Documents.obj
 0002:000ef7d0       ?SetGridStyle@CDisplayList@@QAEXH@Z 0060e7d0 f i Documents.obj
 0002:000ef820       ?GetTopLayer@CDisplayList@@QAEHXZ 0060e820 f i Documents.obj
 0002:000ef860       ?SetTopLayer@CDisplayList@@QAEXH@Z 0060e860 f i Documents.obj
 0002:000ef8b0       ?GetLayer@CDisplayList@@QAEHH@Z 0060e8b0 f i Documents.obj
 0002:000ef900       ?GetHatch@CPolyLine@@QAEHXZ 0060e900 f i Documents.obj
 0002:000ef940       ?GetUtility@CPolyLine@@QAEHXZ 0060e940 f i Documents.obj
 0002:000ef980       ?GetUtility@CPolyLine@@QAEHH@Z 0060e980 f i Documents.obj
 0002:000ef9e0       ?GetGroupRect@CPolyLine@@QAEPAUtagRECT@@XZ 0060e9e0 f i Documents.obj
 0002:000efa50       ?SetUtility@CPolyLine@@QAEXH@Z 0060ea50 f i Documents.obj
 0002:000efaa0       ?SetUtility@CPolyLine@@QAEXHH@Z 0060eaa0 f i Documents.obj
 0002:000efb10       ?SetHatch@CPolyLine@@QAEXH@Z 0060eb10 f i Documents.obj
 0002:000efb80       ?GetGpcPoly@CPolyLine@@QAEPAUgpc_polygon@@XZ 0060eb80 f i Documents.obj
 0002:000efbc0       ??0StrList@@QAE@XZ         0060ebc0 f i Documents.obj
 0002:000efcb0       ?AddNew@StrList@@QAEHV?$CStringT@DV?$StrTraitMFC_DLL@DV?$ChTraitsCRT@D@ATL@@@@@ATL@@@Z 0060ecb0 f i Documents.obj
 0002:000efeb0       ?Clear@StrList@@QAEXXZ     0060eeb0 f i Documents.obj
 0002:000eff20       ?RemoveAt@StrList@@QAEXH@Z 0060ef20 f i Documents.obj
 0002:000effb0       ??_EStrList@@UAEPAXI@Z     0060efb0 f i Documents.obj
 0002:000effb0       ??_GStrList@@UAEPAXI@Z     0060efb0 f i Documents.obj
 0002:000f0020       ??1StrList@@UAE@XZ         0060f020 f i Documents.obj
 0002:000f00e0       ?OnFileCam1@CFreePcbDoc@@QAEXXZ 0060f0e0 f i Documents.obj
 0002:000f01f0       ?OnFileCam2@CFreePcbDoc@@QAEXXZ 0060f1f0 f i Documents.obj
 0002:000f0300       ?OnFileCam3@CFreePcbDoc@@QAEXXZ 0060f300 f i Documents.obj
 0002:000f0410       ?OnFileCam4@CFreePcbDoc@@QAEXXZ 0060f410 f i Documents.obj
 0002:000f0520       ?OnFileCam5@CFreePcbDoc@@QAEXXZ 0060f520 f i Documents.obj
 0002:000f0630       ?OnFileCam6@CFreePcbDoc@@QAEXXZ 0060f630 f i Documents.obj
 0002:000f0740       ?OnFileCam7@CFreePcbDoc@@QAEXXZ 0060f740 f i Documents.obj
 0002:000f0850       ?OnFileCam8@CFreePcbDoc@@QAEXXZ 0060f850 f i Documents.obj
 0002:000f0960       ?OnFileCam9@CFreePcbDoc@@QAEXXZ 0060f960 f i Documents.obj
 0002:000f0a70       ?OnFileCam10@CFreePcbDoc@@QAEXXZ 0060fa70 f i Documents.obj
 0002:000f0b80       ?OnFileCam11@CFreePcbDoc@@QAEXXZ 0060fb80 f i Documents.obj
 0002:000f0c90       ?OnFileCam12@CFreePcbDoc@@QAEXXZ 0060fc90 f i Documents.obj
 0002:000f0da0       ?OnFileCam13@CFreePcbDoc@@QAEXXZ 0060fda0 f i Documents.obj
 0002:000f0eb0       ?OnFileCam14@CFreePcbDoc@@QAEXXZ 0060feb0 f i Documents.obj
 0002:000f0fc0       ?OnFileCam15@CFreePcbDoc@@QAEXXZ 0060ffc0 f i Documents.obj
 0002:000f10d0       ?OnFileCam16@CFreePcbDoc@@QAEXXZ 006100d0 f i Documents.obj
 0002:000f11e0       ?OnFileCam17@CFreePcbDoc@@QAEXXZ 006101e0 f i Documents.obj
 0002:000f12f0       ?OnFileCam18@CFreePcbDoc@@QAEXXZ 006102f0 f i Documents.obj
 0002:000f1400       ?OnFileCam19@CFreePcbDoc@@QAEXXZ 00610400 f i Documents.obj
 0002:000f1510       ?OnFileCam20@CFreePcbDoc@@QAEXXZ 00610510 f i Documents.obj
 0002:000f1620       ?OnFileCam21@CFreePcbDoc@@QAEXXZ 00610620 f i Documents.obj
 0002:000f1730       ?InvalidateLeftPane@CFreePcbView@@QAEXXZ 00610730 f i Documents.obj
 0002:000f1780       ?RemoveAt@?$CArray@HABH@@QAEXHH@Z 00610780 f i Documents.obj
 0002:000f1930       ??A?$CArray@VCPolyPt@@ABV1@@@QAEAAVCPolyPt@@H@Z 00610930 f i Documents.obj
 0002:000f1990       ??1?$CArray@PAVCPolyLine@@ABQAV1@@@UAE@XZ 00610990 f i Documents.obj
 0002:000f1aa0       ?Serialize@?$CArray@PAVCPolyLine@@ABQAV1@@@UAEXAAVCArchive@@@Z 00610aa0 f i Documents.obj
 0002:000f1b70       ?Dump@?$CArray@PAVCPolyLine@@ABQAV1@@@UBEXAAVCDumpContext@@@Z 00610b70 f i Documents.obj
 0002:000f1c50       ?AssertValid@?$CArray@PAVCPolyLine@@ABQAV1@@@UBEXXZ 00610c50 f i Documents.obj
 0002:000f1db0       ??1?$CArray@VCPolyLine@@ABV1@@@UAE@XZ 00610db0 f i Documents.obj
 0002:000f1ee0       ?Serialize@?$CArray@VCPolyLine@@ABV1@@@UAEXAAVCArchive@@@Z 00610ee0 f i Documents.obj
 0002:000f1fb0       ?Dump@?$CArray@VCPolyLine@@ABV1@@@UBEXAAVCDumpContext@@@Z 00610fb0 f i Documents.obj
 0002:000f2090       ?AssertValid@?$CArray@VCPolyLine@@ABV1@@@UBEXXZ 00611090 f i Documents.obj
 0002:000f21f0       ??1?$CArray@NABN@@UAE@XZ   006111f0 f i Documents.obj
 0002:000f2300       ?Serialize@?$CArray@NABN@@UAEXAAVCArchive@@@Z 00611300 f i Documents.obj
 0002:000f23d0       ?Dump@?$CArray@NABN@@UBEXAAVCDumpContext@@@Z 006113d0 f i Documents.obj
 0002:000f24b0       ?AssertValid@?$CArray@NABN@@UBEXXZ 006114b0 f i Documents.obj
 0002:000f2610       ??_E?$CArray@PAVCPolyLine@@ABQAV1@@@UAEPAXI@Z 00611610 f i Documents.obj
 0002:000f2610       ??_G?$CArray@PAVCPolyLine@@ABQAV1@@@UAEPAXI@Z 00611610 f i Documents.obj
 0002:000f2680       ??_G?$CArray@VCPolyLine@@ABV1@@@UAEPAXI@Z 00611680 f i Documents.obj
 0002:000f2680       ??_E?$CArray@VCPolyLine@@ABV1@@@UAEPAXI@Z 00611680 f i Documents.obj
 0002:000f26f0       ??_G?$CArray@NABN@@UAEPAXI@Z 006116f0 f i Documents.obj
 0002:000f26f0       ??_E?$CArray@NABN@@UAEPAXI@Z 006116f0 f i Documents.obj
 0002:000f2760       ?ElementAt@?$CArray@VCPolyPt@@ABV1@@@QAEAAVCPolyPt@@H@Z 00611760 f i Documents.obj
 0002:000f2810       ?SetSize@?$CArray@PAVCPolyLine@@ABQAV1@@@QAEXHH@Z 00611810 f i Documents.obj
 0002:000f2da0       ??$SerializeElements@PAVCPolyLine@@@@YGXAAVCArchive@@PAPAVCPolyLine@@H@Z 00611da0 f i Documents.obj
 0002:000f2f90       ??$DumpElements@PAVCPolyLine@@@@YGXAAVCDumpContext@@PBQAVCPolyLine@@H@Z 00611f90 f i Documents.obj
 0002:000f3080       ??$SerializeElements@VCPolyLine@@@@YGXAAVCArchive@@PAVCPolyLine@@H@Z 00612080 f i Documents.obj
 0002:000f3280       ??$DumpElements@VCPolyLine@@@@YGXAAVCDumpContext@@PBVCPolyLine@@H@Z 00612280 f i Documents.obj
 0002:000f3370       ?SetSize@?$CArray@NABN@@QAEXHH@Z 00612370 f i Documents.obj
 0002:000f3900       ??$SerializeElements@N@@YGXAAVCArchive@@PANH@Z 00612900 f i Documents.obj
 0002:000f3af0       ??$DumpElements@N@@YGXAAVCDumpContext@@PBNH@Z 00612af0 f i Documents.obj
 0002:000f3be0       ?CreateObject@CFreePcbView@@SGPAVCObject@@XZ 00612be0 f   FreePcbView.obj
 0002:000f3cd0       ?_GetBaseClass@CFreePcbView@@KGPAUCRuntimeClass@@XZ 00612cd0 f   FreePcbView.obj
 0002:000f3d20       ?GetThisClass@CFreePcbView@@SGPAUCRuntimeClass@@XZ 00612d20 f   FreePcbView.obj
 0002:000f3d60       ?GetRuntimeClass@CFreePcbView@@UBEPAUCRuntimeClass@@XZ 00612d60 f   FreePcbView.obj
 0002:000f3da0       ?GetMessageMap@CFreePcbView@@MBEPBUAFX_MSGMAP@@XZ 00612da0 f   FreePcbView.obj
 0002:000f3df0       ?GetThisMessageMap@CFreePcbView@@KGPBUAFX_MSGMAP@@XZ 00612df0 f   FreePcbView.obj
 0002:000f3e30       ??0CFreePcbView@@QAE@XZ    00612e30 f   FreePcbView.obj
 0002:000f4240       ??_GCFreePcbView@@UAEPAXI@Z 00613240 f i FreePcbView.obj
 0002:000f4240       ??_ECFreePcbView@@UAEPAXI@Z 00613240 f i FreePcbView.obj
 0002:000f42b0       ?InitInstance@CFreePcbView@@QAEXXZ 006132b0 f   FreePcbView.obj
 0002:000f4790       ?InitializeView@CFreePcbView@@QAEXXZ 00613790 f   FreePcbView.obj
 0002:000f4d20       ??1CFreePcbView@@UAE@XZ    00613d20 f   FreePcbView.obj
 0002:000f4ef0       ?PreCreateWindow@CFreePcbView@@UAEHAAUtagCREATESTRUCTA@@@Z 00613ef0 f   FreePcbView.obj
 0002:000f4f50       ?OnDraw@CFreePcbView@@UAEXPAVCDC@@@Z 00613f50 f   FreePcbView.obj
 0002:000f7200       ?OnPreparePrinting@CFreePcbView@@MAEHPAUCPrintInfo@@@Z 00616200 f   FreePcbView.obj
 0002:000f7260       ?OnBeginPrinting@CFreePcbView@@MAEXPAVCDC@@PAUCPrintInfo@@@Z 00616260 f   FreePcbView.obj
 0002:000f72a0       ?OnEndPrinting@CFreePcbView@@MAEXPAVCDC@@PAUCPrintInfo@@@Z 006162a0 f   FreePcbView.obj
 0002:000f72e0       ?AssertValid@CFreePcbView@@UBEXXZ 006162e0 f   FreePcbView.obj
 0002:000f7330       ?Dump@CFreePcbView@@UBEXAAVCDumpContext@@@Z 00616330 f   FreePcbView.obj
 0002:000f7390       ?GetDocument@CFreePcbView@@QAEPAVCFreePcbDoc@@XZ 00616390 f   FreePcbView.obj
 0002:000f7430       ?OnSize@CFreePcbView@@IAEXIHH@Z 00616430 f   FreePcbView.obj
 0002:000f7aa0       ?OnLButtonUp@CFreePcbView@@QAEXIVCPoint@@@Z 00616aa0 f   FreePcbView.obj
 0002:000ff470       ?OnLButtonDblClk@CFreePcbView@@IAEXIVCPoint@@@Z 0061e470 f   FreePcbView.obj
 0002:000ff4d0       ?OnRButtonDown@CFreePcbView@@IAEXIVCPoint@@@Z 0061e4d0 f   FreePcbView.obj
 0002:000fff00       ?OnSysKeyDown@CFreePcbView@@IAEXIII@Z 0061ef00 f   FreePcbView.obj
 0002:000fff90       ?OnSysKeyUp@CFreePcbView@@IAEXIII@Z 0061ef90 f   FreePcbView.obj
 0002:00100000       ?OnKeyUp@CFreePcbView@@QAEXIII@Z 0061f000 f   FreePcbView.obj
 0002:00100460       ?OnKeyDown@CFreePcbView@@IAEXIII@Z 0061f460 f   FreePcbView.obj
 0002:00100550       ?HandleKeyPress@CFreePcbView@@QAEXIII@Z 0061f550 f   FreePcbView.obj
 0002:00105e00       ?pow@@YANNH@Z              00624e00 f i FreePcbView.obj
 0002:00105e60       ?abs@@YA_J_J@Z             00624e60 f i FreePcbView.obj
 0002:00105ec0       ?OnMouseMove@CFreePcbView@@IAEXIVCPoint@@@Z 00624ec0 f   FreePcbView.obj
 0002:00106580       ?SetDCToWorldCoords@CFreePcbView@@QAEHPAVCDC@@@Z 00625580 f   FreePcbView.obj
 0002:00106630       ?SetCursorMode@CFreePcbView@@QAEXH@Z 00625630 f   FreePcbView.obj
 0002:00106700       ?SetFKText@CFreePcbView@@QAEXH@Z 00625700 f   FreePcbView.obj
 0002:00107b30       ?DrawBottomPane@CFreePcbView@@QAEXXZ 00626b30 f   FreePcbView.obj
 0002:001084a0       ?ShowRelativeDistance@CFreePcbView@@QAEXHH@Z 006274a0 f   FreePcbView.obj
 0002:001086e0       ?ShowRelativeDistance@CFreePcbView@@QAEXHHHH@Z 006276e0 f   FreePcbView.obj
 0002:00108930       ?ShowSelectStatus@CFreePcbView@@QAEHXZ 00627930 f   FreePcbView.obj
 0002:00109c30       ?ShowCursor@CFreePcbView@@QAEHXZ 00628c30 f   FreePcbView.obj
 0002:00109f10       ?ShowActiveLayer@CFreePcbView@@QAEHHH@Z 00628f10 f   FreePcbView.obj
 0002:0010a380       ?OnMouseWheel@CFreePcbView@@IAEHIFVCPoint@@@Z 00629380 f   FreePcbView.obj
 0002:0010af40       ?CancelSelection@CFreePcbView@@QAEXH@Z 00629f40 f   FreePcbView.obj
 0002:0010b430       ?ProjectRunInfoBox@CFreePcbView@@QAEXXZ 0062a430 f   FreePcbView.obj
 0002:0010b470       ?OnProjectRunInfoBox@CFreePcbView@@QAEXXZ 0062a470 f   FreePcbView.obj
 0002:0010b4b0       ?OnSetOriginToSelectedItem@CFreePcbView@@QAEXXZ 0062a4b0 f   FreePcbView.obj
 0002:0010b510       ?SetOriginToSelectedItem@CFreePcbView@@QAEXXZ 0062a510 f   FreePcbView.obj
 0002:0010b800       ?OnContextMenu@CFreePcbView@@QAEXPAVCWnd@@VCPoint@@@Z 0062a800 f   FreePcbView.obj
 0002:0010cfc0       ?OnTextMove@CFreePcbView@@QAEXXZ 0062bfc0 f   FreePcbView.obj
 0002:0010d150       ?OnPartRemoveMerge@CFreePcbView@@QAEXXZ 0062c150 f   FreePcbView.obj
 0002:0010d290       ?OnTextAlignL@CFreePcbView@@QAEXXZ 0062c290 f   FreePcbView.obj
 0002:0010d2f0       ?OnTextAlignR@CFreePcbView@@QAEXXZ 0062c2f0 f   FreePcbView.obj
 0002:0010d350       ?OnTextAlignT@CFreePcbView@@QAEXXZ 0062c350 f   FreePcbView.obj
 0002:0010d3b0       ?OnTextAlignB@CFreePcbView@@QAEXXZ 0062c3b0 f   FreePcbView.obj
 0002:0010d410       ?OnTextAlign@CFreePcbView@@QAEXD@Z 0062c410 f   FreePcbView.obj
 0002:0010d720       ?OnTextAlignRV@CFreePcbView@@QAEXXZ 0062c720 f   FreePcbView.obj
 0002:0010d780       ?OnTextAlignRF@CFreePcbView@@QAEXXZ 0062c780 f   FreePcbView.obj
 0002:0010d7e0       ?OnTextAlignRVF@CFreePcbView@@QAEXXZ 0062c7e0 f   FreePcbView.obj
 0002:0010d840       ?OnTextAlignRFV@CFreePcbView@@QAEXXZ 0062c840 f   FreePcbView.obj
 0002:0010d8a0       ?TextAlignRVF@CFreePcbView@@QAEXHHH@Z 0062c8a0 f   FreePcbView.obj
 0002:0010df10       ?OnTextEdit@CFreePcbView@@QAEXXZ 0062cf10 f   FreePcbView.obj
 0002:00110530       ?OnOPCornerMove@CFreePcbView@@QAEXXZ 0062f530 f   FreePcbView.obj
 0002:001106c0       ?OnOPCornerEdit@CFreePcbView@@QAEXXZ 0062f6c0 f   FreePcbView.obj
 0002:00110e60       ?GetX@DlgEditBoardCorner@@QAEHXZ 0062fe60 f i FreePcbView.obj
 0002:00110ea0       ?GetY@DlgEditBoardCorner@@QAEHXZ 0062fea0 f i FreePcbView.obj
 0002:00110ee0       ?OnOPCornerDelete@CFreePcbView@@QAEXXZ 0062fee0 f   FreePcbView.obj
 0002:00111160       ?SelPolylineTest@CFreePcbView@@QAEXPAPAVCText@@PAV?$CStringT@DV?$StrTraitMFC_DLL@DV?$ChTraitsCRT@D@ATL@@@@@ATL@@11PAH222H@Z 00630160 f   FreePcbView.obj
 0002:00111880       ?MultipleAttributes@CFreePcbView@@QAEXH@Z 00630880 f   FreePcbView.obj
 0002:00114c60       ?OnOPSetAttributes@CFreePcbView@@QAEXXZ 00633c60 f   FreePcbView.obj
 0002:00114ce0       ?OPSetAttributes@CFreePcbView@@QAE?AV?$CStringT@DV?$StrTraitMFC_DLL@DV?$ChTraitsCRT@D@ATL@@@@@ATL@@PAV23@@Z 00633ce0 f   FreePcbView.obj
 0002:00118bc0       ?OnOPSideAddCorner@CFreePcbView@@QAEXXZ 00637bc0 f   FreePcbView.obj
 0002:00118cf0       ?CurNone@CFreePcbView@@QAEHXZ 00637cf0 f   FreePcbView.obj
 0002:00118d40       ?CurSelected@CFreePcbView@@QAEHXZ 00637d40 f   FreePcbView.obj
 0002:00118dc0       ?CurDragging@CFreePcbView@@QAEHXZ 00637dc0 f   FreePcbView.obj
 0002:00118e50       ?CurDraggingPlacement@CFreePcbView@@QAEHXZ 00637e50 f   FreePcbView.obj
 0002:0011a970       ?OnChangeVisibleGrid@CFreePcbView@@QAEJIJ@Z 00639970 f   FreePcbView.obj
 0002:0011aa50       ?OnChangePlacementGrid@CFreePcbView@@QAEJIJ@Z 00639a50 f   FreePcbView.obj
 0002:0011aae0       ?OnChangeTextGrid@CFreePcbView@@QAEJIJ@Z 00639ae0 f   FreePcbView.obj
 0002:0011abd0       ?OnChangeSnapAngle@CFreePcbView@@QAEJIJ@Z 00639bd0 f   FreePcbView.obj
 0002:0011ad00       ?OnChangeUnits@CFreePcbView@@QAEJIJ@Z 00639d00 f   FreePcbView.obj
 0002:0011adf0       ?OnEraseBkgnd@CFreePcbView@@QAEHPAVCDC@@@Z 00639df0 f   FreePcbView.obj
 0002:0011ae40       ?OnOPSideConvertToStraightLine@CFreePcbView@@QAEXXZ 00639e40 f   FreePcbView.obj
 0002:0011af60       ?OnOPSideConvertToArcCw@CFreePcbView@@QAEXXZ 00639f60 f   FreePcbView.obj
 0002:0011b080       ?OnOPSideConvertToArcCcw@CFreePcbView@@QAEXXZ 0063a080 f   FreePcbView.obj
 0002:0011b1a0       ?SaveUndoInfoForGroup@CFreePcbView@@QAEHPAVCUndoList@@HH@Z 0063a1a0 f   FreePcbView.obj
 0002:0011c2c0       ??0undo_group_descriptor@@QAE@XZ 0063b2c0 f i FreePcbView.obj
 0002:0011c370       ?SaveUndoInfoForMoveOrigin@CFreePcbView@@QAEXHHPAVCUndoList@@@Z 0063b370 f   FreePcbView.obj
 0002:0011c440       ?SaveUndoInfoForOutlinePoly@CFreePcbView@@QAEXHHPAVCUndoList@@@Z 0063b440 f   FreePcbView.obj
 0002:0011c530       ?SaveUndoInfoForText@CFreePcbView@@QAEXPAVCText@@HPAVCUndoList@@@Z 0063b530 f   FreePcbView.obj
 0002:0011c610       ?ViewAllElements@CFreePcbView@@QAE?AUtagRECT@@PAU2@@Z 0063b610 f   FreePcbView.obj
 0002:0011ce60       ?OnViewMerges@CFreePcbView@@QAEXXZ 0063be60 f   FreePcbView.obj
 0002:0011d330       ?OnViewAllElements@CFreePcbView@@QAEXXZ 0063c330 f   FreePcbView.obj
 0002:0011d3b0       ?OnViewSelTextsByLabels@CFreePcbView@@QAEXXZ 0063c3b0 f   FreePcbView.obj
 0002:0011d530       ?FindStrInFile@CFreePcbView@@QAEHPAV?$CStringT@DV?$StrTraitMFC_DLL@DV?$ChTraitsCRT@D@ATL@@@@@ATL@@00HHHPAH1HHH0@Z 0063c530 f   FreePcbView.obj
 0002:00120fe0       ?OnReplacePartPattern@CFreePcbView@@QAEXXZ 0063ffe0 f   FreePcbView.obj
 0002:001212a0       ?OnUpdatePartPattern@CFreePcbView@@QAEXXZ 006402a0 f   FreePcbView.obj
 0002:001212e0       ?OnViewFindAttr@CFreePcbView@@QAEXXZ 006402e0 f   FreePcbView.obj
 0002:00121340       ?OnViewFindAmoungHid@CFreePcbView@@QAEXXZ 00640340 f   FreePcbView.obj
 0002:00121530       ?OnViewFindAmoungSel@CFreePcbView@@QAEXXZ 00640530 f   FreePcbView.obj
 0002:00121590       ?OnPasteSinglePart@CFreePcbView@@QAEXXZ 00640590 f   FreePcbView.obj
 0002:001215f0       ?OnPastePartRow@CFreePcbView@@QAEXXZ 006405f0 f   FreePcbView.obj
 0002:00121650       ?FindAttr@CFreePcbView@@QAEXHHPAV?$CStringT@DV?$StrTraitMFC_DLL@DV?$ChTraitsCRT@D@ATL@@@@@ATL@@@Z 00640650 f   FreePcbView.obj
 0002:00125c40       ?OnDrc@CFreePcbView@@QAEXXZ 00644c40 f   FreePcbView.obj
 0002:00125ca0       ?OnClearDRC@CFreePcbView@@QAEXXZ 00644ca0 f   FreePcbView.obj
 0002:00125d00       ?AddOutlinePoly@CFreePcbView@@QAEXH@Z 00644d00 f   FreePcbView.obj
 0002:001278e0       ?OnAddOutlinePoly@CFreePcbView@@QAEXXZ 006468e0 f   FreePcbView.obj
 0002:00127940       ?OnAddCutout@CFreePcbView@@QAEXXZ 00646940 f   FreePcbView.obj
 0002:00127a60       ?OnSetPrintArea@CFreePcbView@@QAEXXZ 00646a60 f   FreePcbView.obj
 0002:00127de0       ?OnToolsMoveOrigin@CFreePcbView@@QAEXXZ 00646de0 f   FreePcbView.obj
 0002:00128030       ?MoveOrigin@CFreePcbView@@QAEXHH@Z 00647030 f   FreePcbView.obj
 0002:001281f0       ?OnLButtonDown@CFreePcbView@@IAEXIVCPoint@@@Z 006471f0 f   FreePcbView.obj
 0002:001282a0       ??9@YAHVid@@0@Z            006472a0 f i FreePcbView.obj
 0002:001297a0       ?Clear@id@@QAEXXZ          006487a0 f i FreePcbView.obj
 0002:001298b0       ?SetLayerDrawOrder@CDisplayList@@QAEXHH@Z 006488b0 f i FreePcbView.obj
 0002:00129910       ?SetInflectionMode@CDisplayList@@QAEXH@Z 00648910 f i FreePcbView.obj
 0002:00129960       ?mark0@StrList@@QAEXXZ     00648960 f i FreePcbView.obj
 0002:001299d0       ?SnapCursorPoint@CFreePcbView@@QAEXVCPoint@@I@Z 006489d0 f   FreePcbView.obj
 0002:0012bdf0       ?GetMark@StrList@@QAEHH@Z  0064adf0 f i FreePcbView.obj
 0002:0012bf00       ?CancelDraggingGroup@CFreePcbView@@QAEXXZ 0064af00 f   FreePcbView.obj
 0002:0012c180       ?TurnGroup@CFreePcbView@@QAEXXZ 0064b180 f   FreePcbView.obj
 0002:0012cca0       ?OnGroupMove@CFreePcbView@@QAEXXZ 0064bca0 f   FreePcbView.obj
 0002:0012ce20       ?MoveGroup@CFreePcbView@@QAEXHHPAVCText@@@Z 0064be20 f   FreePcbView.obj
 0002:0012d5a0       ?OnInsidePolyline@CFreePcbView@@QAEXXZ 0064c5a0 f   FreePcbView.obj
 0002:0012dea0       ?HighlightGroup@CFreePcbView@@QAEXH@Z 0064cea0 f   FreePcbView.obj
 0002:0012e6a0       ?SetSelMaskArray@CFreePcbView@@QAEXH@Z 0064d6a0 f   FreePcbView.obj
 0002:0012e740       ?GroupCopy@CFreePcbView@@QAEXH@Z 0064d740 f   FreePcbView.obj
 0002:0012f080       ?mark1@StrList@@QAEXHH@Z   0064e080 f i FreePcbView.obj
 0002:0012f100       ?SetStr@StrList@@QAEXHV?$CStringT@DV?$StrTraitMFC_DLL@DV?$ChTraitsCRT@D@ATL@@@@@ATL@@@Z 0064e100 f i FreePcbView.obj
 0002:0012f1f0       ?CopyFrom@StrList@@QAEXPAV1@@Z 0064e1f0 f i FreePcbView.obj
 0002:0012f3a0       ?OnGroupCopy@CFreePcbView@@QAEXXZ 0064e3a0 f   FreePcbView.obj
 0002:0012f4e0       ?OnGroupLineUp@CFreePcbView@@QAEXXZ 0064e4e0 f   FreePcbView.obj
 0002:0012ff80       ?OnGroupCut@CFreePcbView@@QAEXXZ 0064ef80 f   FreePcbView.obj
 0002:0012ffe0       ?OnGroupDelete@CFreePcbView@@QAEXXZ 0064efe0 f   FreePcbView.obj
 0002:00130040       ?DeleteGroup@CFreePcbView@@QAEXH@Z 0064f040 f   FreePcbView.obj
 0002:00130bf0       ?OnGroupPaste@CFreePcbView@@QAEXHHHH@Z 0064fbf0 f   FreePcbView.obj
 0002:00136420       ?OnGroupStaticHighlight@CFreePcbView@@QAEXXZ 00655420 f   FreePcbView.obj
 0002:001364a0       ?OnGroupCancelHighlight@CFreePcbView@@QAEXXZ 006554a0 f   FreePcbView.obj
 0002:00136500       ?OnGroupCancelSel@CFreePcbView@@QAEXXZ 00655500 f   FreePcbView.obj
 0002:001365d0       ?GroupCancelHighlight@CFreePcbView@@QAEXXZ 006555d0 f   FreePcbView.obj
 0002:00136650       ?OnApproximationArc@CFreePcbView@@QAEXXZ 00655650 f   FreePcbView.obj
 0002:00136700       ?OnSelectPartsByAttr@CFreePcbView@@QAEXXZ 00655700 f   FreePcbView.obj
 0002:00136760       ?OnSelectPolyByAttr@CFreePcbView@@QAEXXZ 00655760 f   FreePcbView.obj
 0002:001367c0       ?OnSelectObjectByAttr@CFreePcbView@@QAEXXZ 006557c0 f   FreePcbView.obj
 0002:001368a0       ?SelectByAttr@CFreePcbView@@QAEXH@Z 006558a0 f   FreePcbView.obj
 0002:00136cf0       ?SaveToFile@CFreePcbView@@QAEXPAV?$CStringT@DV?$StrTraitMFC_DLL@DV?$ChTraitsCRT@D@ATL@@@@@ATL@@@Z 00655cf0 f   FreePcbView.obj
 0002:001380b0       ?OnGroupSaveToFile@CFreePcbView@@QAEXXZ 006570b0 f   FreePcbView.obj
 0002:00138210       ?OnEditCopy@CFreePcbView@@QAEXXZ 00657210 f   FreePcbView.obj
 0002:001382e0       ?OnEditPaste@CFreePcbView@@QAEXXZ 006572e0 f   FreePcbView.obj
 0002:001388e0       ?OnEditCut@CFreePcbView@@QAEXXZ 006578e0 f   FreePcbView.obj
 0002:001389a0       ?RotateGroup@CFreePcbView@@QAEXHHHN@Z 006579a0 f   FreePcbView.obj
 0002:00139a00       ?FindGroupCenter@CFreePcbView@@QAE?AVCPoint@@H@Z 00658a00 f   FreePcbView.obj
 0002:00139f10       ?CreateUndoDescriptor@CFreePcbView@@QAEPAXPAVCUndoList@@HPAV?$CStringT@DV?$StrTraitMFC_DLL@DV?$ChTraitsCRT@D@ATL@@@@@ATL@@1HH1PAX@Z 00658f10 f   FreePcbView.obj
 0002:0013a080       ??0undo_descriptor@@QAE@XZ 00659080 f i FreePcbView.obj
 0002:0013a120       ?UndoCallback@CFreePcbView@@SAXPAXH@Z 00659120 f   FreePcbView.obj
 0002:0013a3c0       ??_Gundo_descriptor@@QAEPAXI@Z 006593c0 f i FreePcbView.obj
 0002:0013a430       ??1undo_descriptor@@QAE@XZ 00659430 f i FreePcbView.obj
 0002:0013a4d0       ?UndoGroupCallback@CFreePcbView@@SAXPAXH@Z 006594d0 f   FreePcbView.obj
 0002:0013a860       ??_Gundo_group_descriptor@@QAEPAXI@Z 00659860 f i FreePcbView.obj
 0002:0013a8d0       ??1undo_group_descriptor@@QAE@XZ 006598d0 f i FreePcbView.obj
 0002:0013a980       ??1?$CArray@Vid@@ABV1@@@UAE@XZ 00659980 f i FreePcbView.obj
 0002:0013bf60       ?Serialize@?$CArray@Vid@@ABV1@@@UAEXAAVCArchive@@@Z 0065af60 f i FreePcbView.obj
 0002:0013c070       ?Dump@?$CArray@Vid@@ABV1@@@UBEXAAVCDumpContext@@@Z 0065b070 f i FreePcbView.obj
 0002:0013c380       ??_E?$CArray@Vid@@ABV1@@@UAEPAXI@Z 0065b380 f i FreePcbView.obj
 0002:0013c380       ??_G?$CArray@Vid@@ABV1@@@UAEPAXI@Z 0065b380 f i FreePcbView.obj
 0002:0013c3e0       ?OnTextGrabPart@CFreePcbView@@QAEXXZ 0065b3e0 f   FreePcbView.obj
 0002:0013c440       ?OnGroupRotate@CFreePcbView@@QAEXXZ 0065b440 f   FreePcbView.obj
 0002:0013c500       ?RotateGroup@CFreePcbView@@QAEXH@Z 0065b500 f   FreePcbView.obj
 0002:0013c630       ?AlignSides@CFreePcbView@@QAEXHHH@Z 0065b630 f   FreePcbView.obj
 0002:0013ca20       ?TestSelElements@CFreePcbView@@QAEHH@Z 0065ba20 f   FreePcbView.obj
 0002:0013ca60       ?OnSetClearance@CFreePcbView@@QAEXXZ 0065ba60 f   FreePcbView.obj
 0002:0013e480       ?FindNEXTSegmentOfGroup@CFreePcbView@@QAEXMPAVid@@0@Z 0065d480 f   FreePcbView.obj
 0002:0013e720       ?find_side_for_set_clearance@CFreePcbView@@QAEHPAVCPolyLine@@PAVid@@HMH@Z 0065d720 f   FreePcbView.obj
 0002:0013ea30       ?ApproximArc@CFreePcbView@@QAEXXZ 0065da30 f   FreePcbView.obj
 0002:0013ebc0       ?ArcApp@CFreePcbView@@QAEHPAVCPolyLine@@HH@Z 0065dbc0 f   FreePcbView.obj
 0002:0013f400       ?DeleteWithRecalculationPoint@CFreePcbView@@QAEHPAVCPolyLine@@H@Z 0065e400 f   FreePcbView.obj
 0002:0013fc50       ?TracesRadiusUpDown@CFreePcbView@@QAEXH@Z 0065ec50 f   FreePcbView.obj
 0002:0013fc90       ?SelectContour@CFreePcbView@@QAEXXZ 0065ec90 f   FreePcbView.obj
 0002:00140140       ?MergeGroup@CFreePcbView@@QAEXH@Z 0065f140 f   FreePcbView.obj
 0002:00140450       ?MergeGroup@CFreePcbView@@QAEXXZ 0065f450 f   FreePcbView.obj
 0002:001408d0       ?ExplodeGroup@CFreePcbView@@QAEXXZ 0065f8d0 f   FreePcbView.obj
 0002:001409c0       ?RemoveOrphanMergeNames@CFreePcbView@@QAEXXZ 0065f9c0 f   FreePcbView.obj
 0002:00140f30       ?NewSelectP@CFreePcbView@@QAEXPAVCText@@0HH@Z 0065ff30 f   FreePcbView.obj
 0002:00141030       ?NewSelectB@CFreePcbView@@QAEXPAVCText@@@Z 00660030 f   FreePcbView.obj
 0002:001410e0       ?NewSelectM@CFreePcbView@@QAE?AV?$CStringT@DV?$StrTraitMFC_DLL@DV?$ChTraitsCRT@D@ATL@@@@@ATL@@H@Z 006600e0 f   FreePcbView.obj
 0002:00141720       ?CheckMessages@CFreePcbView@@QAEXXZ 00660720 f   FreePcbView.obj
 0002:00141820       ?OnMess@CFreePcbView@@QAEXHHPAV?$CArray@V?$CStringT@DV?$StrTraitMFC_DLL@DV?$ChTraitsCRT@D@ATL@@@@@ATL@@ABV12@@@H@Z 00660820 f   FreePcbView.obj
 0002:001431c0       ?OnInfoBoxSendMess@CFreePcbView@@QAEPAVCWnd@@V?$CStringT@DV?$StrTraitMFC_DLL@DV?$ChTraitsCRT@D@ATL@@@@@ATL@@@Z 006621c0 f   FreePcbView.obj
 0002:00143450       ?GetSelectedItem@CFreePcbView@@QAEHXZ 00662450 f   FreePcbView.obj
 0002:00143850       ?UnSelect@CFreePcbView@@QAEHPAXPAVid@@HH@Z 00662850 f   FreePcbView.obj
 0002:00143b50       ?NewSelect@CFreePcbView@@QAEHPAXPAVid@@HH@Z 00662b50 f   FreePcbView.obj
 0002:00144a40       ??$SerializeElements@Vid@@@@YGXAAVCArchive@@PAVid@@H@Z 00663a40 f i FreePcbView.obj
 0002:00145130       ??$DumpElements@Vid@@@@YGXAAVCDumpContext@@PBVid@@H@Z 00664130 f i FreePcbView.obj
 0002:00145820       ?MarkAllOutlinePoly@CFreePcbView@@QAEXHH@Z 00664820 f   FreePcbView.obj
 0002:00146d50       ?OnTextChangeV@CFreePcbView@@QAEXXZ 00665d50 f   FreePcbView.obj
 0002:00146db0       ?OnTextChangeF@CFreePcbView@@QAEXXZ 00665db0 f   FreePcbView.obj
 0002:00146e10       ?OnTextChangeAttr@CFreePcbView@@QAEXH@Z 00665e10 f   FreePcbView.obj
 0002:001470c0       ?JumpToPart@CFreePcbView@@QAEXPAVCText@@0H@Z 006660c0 f   FreePcbView.obj
 0002:00147750       ?DrawBOM@CFreePcbView@@QAEXPAVCText@@PAV?$CArray@VCPolyLine@@ABV1@@@@Z 00666750 f   FreePcbView.obj
 0002:00148200       ?DrawPATH@CFreePcbView@@QAEXPAVCText@@H@Z 00667200 f   FreePcbView.obj
 0002:00148e60       ?DrawBOM@CFreePcbView@@QAEHPAVCPolyLine@@HHHHHHHPAV?$CStringT@DV?$StrTraitMFC_DLL@DV?$ChTraitsCRT@D@ATL@@@@@ATL@@1@Z 00667e60 f   FreePcbView.obj
 0002:0014c5b0       ?SelectBlock@CFreePcbView@@QAE?AV?$CStringT@DV?$StrTraitMFC_DLL@DV?$ChTraitsCRT@D@ATL@@@@@ATL@@PAVCPolyLine@@HH@Z 0066b5b0 f   FreePcbView.obj
 0002:0014eec0       ?OnRangeCmds@CFreePcbView@@QAEHI@Z 0066dec0 f   FreePcbView.obj
 0002:0014ef30       ?SelectTextLayer@CFreePcbView@@QAEXHH@Z 0066df30 f   FreePcbView.obj
 0002:0014f080       ?SelectPolylineLayer@CFreePcbView@@QAEXHH@Z 0066e080 f   FreePcbView.obj
 0002:0014f230       ?OnHidePictures@CFreePcbView@@QAEHI@Z 0066e230 f   FreePcbView.obj
 0002:0014f440       ?OnEditSelectLayer@CFreePcbView@@QAEHI@Z 0066e440 f   FreePcbView.obj
 0002:0014f940       ?SetMagnet@CFreePcbView@@QAEXH@Z 0066e940 f   FreePcbView.obj
 0002:0014fdc0       ?UnSelVertices@CFreePcbView@@QAEXXZ 0066edc0 f   FreePcbView.obj
 0002:0014ff40       ?EditPolylineProperties@CFreePcbView@@QAEXXZ 0066ef40 f   FreePcbView.obj
 0002:00150040       ?FindSimilarPart@CFreePcbView@@QAEPAVCText@@PAV2@H@Z 0066f040 f   FreePcbView.obj
 0002:00151380       ?OnImportMerges@CFreePcbView@@QAEXXZ 00670380 f   FreePcbView.obj
 0002:00151740       ?OnApplyScale@CFreePcbView@@QAEHI@Z 00670740 f   FreePcbView.obj
 0002:00151af0       ?OnCreateMultiPinPartTemplate@CFreePcbView@@QAEHI@Z 00670af0 f   FreePcbView.obj
 0002:00151ce0       ?FootprintNameTest@CFreePcbView@@QAEXPAV?$CStringT@DV?$StrTraitMFC_DLL@DV?$ChTraitsCRT@D@ATL@@@@@ATL@@0@Z 00670ce0 f   FreePcbView.obj
 0002:00151ea0       ?OnGroupSaveToOpenscadFile@CFreePcbView@@QAEXXZ 00670ea0 f   FreePcbView.obj
 0002:00152f70       ?OnGroupSaveToFPCFile@CFreePcbView@@QAEXXZ 00671f70 f   FreePcbView.obj
 0002:00153e40       ?OnGroupSaveToDXFFile@CFreePcbView@@QAEXXZ 00672e40 f   FreePcbView.obj
 0002:00155530       ?GetHatchPos@CPolyLine@@QAEPAV?$CArray@PAVdl_element@@ABQAV1@@@XZ 00674530 f i FreePcbView.obj
 0002:00155570       ?OnAddGroupOrigin@CFreePcbView@@QAEXXZ 00674570 f   FreePcbView.obj
 0002:00155a00       ?OnAddGroupRect@CFreePcbView@@QAEXXZ 00674a00 f   FreePcbView.obj
 0002:00155e70       ?OnSetSlidingAngle@CFreePcbView@@QAEHI@Z 00674e70 f   FreePcbView.obj
 0002:00156290       ?OnTextCSV@CFreePcbView@@QAEXXZ 00675290 f   FreePcbView.obj
 0002:001577b0       ?RedrawLayers@CFreePcbView@@QAEXXZ 006767b0 f   FreePcbView.obj
 0002:00157f20       ??0CPolyLine@@QAE@ABV0@@Z  00676f20 f i FreePcbView.obj
 0002:001580d0       ??0?$CArray@VCPolyPt@@ABV1@@@QAE@XZ 006770d0 f i FreePcbView.obj
 0002:00158160       ??1?$CArray@VCPolyPt@@ABV1@@@UAE@XZ 00677160 f i FreePcbView.obj
 0002:00158270       ?Serialize@?$CArray@VCPolyPt@@ABV1@@@UAEXAAVCArchive@@@Z 00677270 f i FreePcbView.obj
 0002:00158340       ?Dump@?$CArray@VCPolyPt@@ABV1@@@UBEXAAVCDumpContext@@@Z 00677340 f i FreePcbView.obj
 0002:00158420       ?AssertValid@?$CArray@VCPolyPt@@ABV1@@@UBEXXZ 00677420 f i FreePcbView.obj
 0002:00158580       ??0?$CArray@VCContourData@@ABV1@@@QAE@XZ 00677580 f i FreePcbView.obj
 0002:00158610       ??1?$CArray@VCContourData@@ABV1@@@UAE@XZ 00677610 f i FreePcbView.obj
 0002:00158720       ?Serialize@?$CArray@VCContourData@@ABV1@@@UAEXAAVCArchive@@@Z 00677720 f i FreePcbView.obj
 0002:001587f0       ?Dump@?$CArray@VCContourData@@ABV1@@@UBEXAAVCDumpContext@@@Z 006777f0 f i FreePcbView.obj
 0002:001588d0       ?AssertValid@?$CArray@VCContourData@@ABV1@@@UBEXXZ 006778d0 f i FreePcbView.obj
 0002:00158a30       ??0?$CArray@PAVdl_element@@ABQAV1@@@QAE@XZ 00677a30 f i FreePcbView.obj
 0002:00158ac0       ??1?$CArray@PAVdl_element@@ABQAV1@@@UAE@XZ 00677ac0 f i FreePcbView.obj
 0002:00158bd0       ?Serialize@?$CArray@PAVdl_element@@ABQAV1@@@UAEXAAVCArchive@@@Z 00677bd0 f i FreePcbView.obj
 0002:00158ca0       ?Dump@?$CArray@PAVdl_element@@ABQAV1@@@UBEXAAVCDumpContext@@@Z 00677ca0 f i FreePcbView.obj
 0002:00158d80       ?AssertValid@?$CArray@PAVdl_element@@ABQAV1@@@UBEXXZ 00677d80 f i FreePcbView.obj
 0002:00158ee0       ??_G?$CArray@VCPolyPt@@ABV1@@@UAEPAXI@Z 00677ee0 f i FreePcbView.obj
 0002:00158ee0       ??_E?$CArray@VCPolyPt@@ABV1@@@UAEPAXI@Z 00677ee0 f i FreePcbView.obj
 0002:00158f50       ??_G?$CArray@VCContourData@@ABV1@@@UAEPAXI@Z 00677f50 f i FreePcbView.obj
 0002:00158f50       ??_E?$CArray@VCContourData@@ABV1@@@UAEPAXI@Z 00677f50 f i FreePcbView.obj
 0002:00158fc0       ??_G?$CArray@PAVdl_element@@ABQAV1@@@UAEPAXI@Z 00677fc0 f i FreePcbView.obj
 0002:00158fc0       ??_E?$CArray@PAVdl_element@@ABQAV1@@@UAEPAXI@Z 00677fc0 f i FreePcbView.obj
 0002:00159030       ?SetSize@?$CArray@VCPolyPt@@ABV1@@@QAEXHH@Z 00678030 f i FreePcbView.obj
 0002:00159710       ??0CPolyPt@@QAE@HHH@Z      00678710 f i FreePcbView.obj
 0002:00159780       ??$SerializeElements@VCPolyPt@@@@YGXAAVCArchive@@PAVCPolyPt@@H@Z 00678780 f i FreePcbView.obj
 0002:00159970       ??$DumpElements@VCPolyPt@@@@YGXAAVCDumpContext@@PBVCPolyPt@@H@Z 00678970 f i FreePcbView.obj
 0002:00159a60       ?SetSize@?$CArray@VCContourData@@ABV1@@@QAEXHH@Z 00678a60 f i FreePcbView.obj
 0002:0015a000       ??$SerializeElements@VCContourData@@@@YGXAAVCArchive@@PAVCContourData@@H@Z 00679000 f i FreePcbView.obj
 0002:0015a1f0       ??$DumpElements@VCContourData@@@@YGXAAVCDumpContext@@PBVCContourData@@H@Z 006791f0 f i FreePcbView.obj
 0002:0015a2e0       ?SetSize@?$CArray@PAVdl_element@@ABQAV1@@@QAEXHH@Z 006792e0 f i FreePcbView.obj
 0002:0015a870       ??$SerializeElements@PAVdl_element@@@@YGXAAVCArchive@@PAPAVdl_element@@H@Z 00679870 f i FreePcbView.obj
 0002:0015aa60       ??$DumpElements@PAVdl_element@@@@YGXAAVCDumpContext@@PBQAVdl_element@@H@Z 00679a60 f i FreePcbView.obj
 0002:0015ab50       ?InsertAt@?$CArray@VCPolyLine@@ABV1@@@QAEXHABVCPolyLine@@H@Z 00679b50 f i FreePcbView.obj
 0002:0015aef0       ??4CPolyLine@@QAE?AV0@V0@@Z 00679ef0 f i FreePcbView.obj
 0002:0015b020       ?RemoveAt@?$CArray@VCPolyLine@@ABV1@@@QAEXHH@Z 0067a020 f i FreePcbView.obj
 0002:0015b200       ??A?$CArray@PAVCText@@ABQAV1@@@QAEAAPAVCText@@H@Z 0067a200 f i FreePcbView.obj
 0002:0015b260       ?GetSize@?$CArray@PAVdl_element@@ABQAV1@@@QBEHXZ 0067a260 f i FreePcbView.obj
 0002:0015b2a0       ?GetAt@?$CArray@PAVdl_element@@ABQAV1@@@QAEAAPAVdl_element@@H@Z 0067a2a0 f i FreePcbView.obj
 0002:0015b350       ??0?$CArray@Vid@@ABV1@@@QAE@XZ 0067a350 f i FreePcbView.obj
 0002:0015b3e0       ?GetSize@?$CArray@Vid@@ABV1@@@QBEHXZ 0067a3e0 f i FreePcbView.obj
 0002:0015b420       ??A?$CArray@Vid@@ABV1@@@QAEAAVid@@H@Z 0067a420 f i FreePcbView.obj
 0002:0015b480       ??$_Pow_int@N@@YANNH@Z     0067a480 f i FreePcbView.obj
 0002:0015b530       ??$strcpy@$0CA@@@YAPADAAY0CA@DPBD@Z 0067a530 f i FreePcbView.obj
 0002:0015b5a0       ?ElementAt@?$CArray@PAVCText@@ABQAV1@@@QAEAAPAVCText@@H@Z 0067a5a0 f i FreePcbView.obj
 0002:0015b650       ?ElementAt@?$CArray@Vid@@ABV1@@@QAEAAVid@@H@Z 0067a650 f i FreePcbView.obj
 0002:0015b700       ?GetMessageMap@CFreeasyApp@@MBEPBUAFX_MSGMAP@@XZ 0067a700 f   FreeSch.obj
 0002:0015b750       ?GetThisMessageMap@CFreeasyApp@@KGPBUAFX_MSGMAP@@XZ 0067a750 f   FreeSch.obj
 0002:0015b790       ??0CFreeasyApp@@QAE@XZ     0067a790 f   FreeSch.obj
 0002:0015b890       ??_ECFreeasyApp@@UAEPAXI@Z 0067a890 f i FreeSch.obj
 0002:0015b890       ??_GCFreeasyApp@@UAEPAXI@Z 0067a890 f i FreeSch.obj
 0002:0015b900       ??1CFreeasyApp@@UAE@XZ     0067a900 f i FreeSch.obj
 0002:0015b9f0       ?InitInstance@CFreeasyApp@@UAEHXZ 0067a9f0 f   FreeSch.obj
 0002:0015bef0       ??0CAboutDlg@@QAE@XZ       0067aef0 f   FreeSch.obj
 0002:0015bf60       ??_ECAboutDlg@@UAEPAXI@Z   0067af60 f i FreeSch.obj
 0002:0015bf60       ??_GCAboutDlg@@UAEPAXI@Z   0067af60 f i FreeSch.obj
 0002:0015bfd0       ??1CAboutDlg@@UAE@XZ       0067afd0 f i FreeSch.obj
 0002:0015c020       ?DoDataExchange@CAboutDlg@@MAEXPAVCDataExchange@@@Z 0067b020 f   FreeSch.obj
 0002:0015c080       ?GetMessageMap@CAboutDlg@@MBEPBUAFX_MSGMAP@@XZ 0067b080 f   FreeSch.obj
 0002:0015c0d0       ?GetThisMessageMap@CAboutDlg@@KGPBUAFX_MSGMAP@@XZ 0067b0d0 f   FreeSch.obj
 0002:0015c110       ?OnAppAbout@CFreeasyApp@@QAEXXZ 0067b110 f   FreeSch.obj
 0002:0015c210       ?SwitchToView@CFreeasyApp@@QAEHPAUCRuntimeClass@@@Z 0067b210 f   FreeSch.obj
 0002:0015c740       ?ExitInstance@CFreeasyApp@@UAEHXZ 0067b740 f   FreeSch.obj
 0002:0015c790       ?OnHelpGotoWebsite@CFreeasyApp@@QAEXXZ 0067b790 f   FreeSch.obj
 0002:0015c8e0       ?OnFileMruFile1@CFreeasyApp@@QAEXXZ 0067b8e0 f   FreeSch.obj
 0002:0015ca50       ?OnFileMruFile2@CFreeasyApp@@QAEXXZ 0067ba50 f   FreeSch.obj
 0002:0015cbc0       ?OnFileMruFile3@CFreeasyApp@@QAEXXZ 0067bbc0 f   FreeSch.obj
 0002:0015cd30       ?OnFileMruFile4@CFreeasyApp@@QAEXXZ 0067bd30 f   FreeSch.obj
 0002:0015cea0       ?OnFileMruFile5@CFreeasyApp@@QAEXXZ 0067bea0 f   FreeSch.obj
 0002:0015d010       ?OnFileMruFile6@CFreeasyApp@@QAEXXZ 0067c010 f   FreeSch.obj
 0002:0015d180       ?OnFileMruFile7@CFreeasyApp@@QAEXXZ 0067c180 f   FreeSch.obj
 0002:0015d2f0       ?OnOpenRecentFile@CFreeasyApp@@QAEHI@Z 0067c2f0 f   FreeSch.obj
 0002:0015d350       ?GetMRUFile@CFreeasyApp@@QAE?AV?$CStringT@DV?$StrTraitMFC_DLL@DV?$ChTraitsCRT@D@ATL@@@@@ATL@@XZ 0067c350 f   FreeSch.obj
 0002:0015d530       ?AddMRUFile@CFreeasyApp@@QAEXPAV?$CStringT@DV?$StrTraitMFC_DLL@DV?$ChTraitsCRT@D@ATL@@@@@ATL@@@Z 0067c530 f   FreeSch.obj
 0002:0015d5e0       ?OnHelpKeyboardshortcuts@CFreeasyApp@@QAEXXZ 0067c5e0 f   FreeSch.obj
 0002:0015d770       ?OnHelpUserGuidePdf@CFreeasyApp@@QAEXXZ 0067c770 f   FreeSch.obj
 0002:0015d9a0       ?OnHelpUserGuidePdf2@CFreeasyApp@@QAEXXZ 0067c9a0 f   FreeSch.obj
 0002:0015daf0       ?OnHelpUserGuidePdf3@CFreeasyApp@@QAEXXZ 0067caf0 f   FreeSch.obj
 0002:0015dc40       ?DoMessageBox@CFreeasyApp@@UAEHPBDII@Z 0067cc40 f   FreeSch.obj
 0002:0015dce0       ?SupportsRestartManager@CWinApp@@UBEHXZ 0067cce0 f i FreeSch.obj
 0002:0015dd30       ?SupportsApplicationRecovery@CWinApp@@UBEHXZ 0067cd30 f i FreeSch.obj
 0002:0015dd80       ?SupportsAutosaveAtRestart@CWinApp@@UBEHXZ 0067cd80 f i FreeSch.obj
 0002:0015ddd0       ?SupportsAutosaveAtInterval@CWinApp@@UBEHXZ 0067cdd0 f i FreeSch.obj
 0002:0015de20       ?ReopenPreviousFilesAtRestart@CWinApp@@UBEHXZ 0067ce20 f i FreeSch.obj
 0002:0015de70       ?RestoreAutosavedFilesAtRestart@CWinApp@@UBEHXZ 0067ce70 f i FreeSch.obj
 0002:0015dec0       ?GetApplicationRestartFlags@CWinApp@@UAEKXZ 0067cec0 f i FreeSch.obj
 0002:0015df00       ?GetApplicationRecoveryParameter@CWinApp@@UAEPAXXZ 0067cf00 f i FreeSch.obj
 0002:0015df40       ?GetApplicationRecoveryPingInterval@CWinApp@@UAEKXZ 0067cf40 f i FreeSch.obj
 0002:0015df80       ?GetSize@CRecentFileList@@QBEHXZ 0067cf80 f i FreeSch.obj
 0002:0015dfc0       ??ACRecentFileList@@QAEAAV?$CStringT@DV?$StrTraitMFC_DLL@DV?$ChTraitsCRT@D@ATL@@@@@ATL@@H@Z 0067cfc0 f i FreeSch.obj
 0002:0015e090       ??0CAperture@@QAE@XZ       0067d090 f   Gerber.obj
 0002:0015e0f0       ??0CAperture@@QAE@HHHHH@Z  0067d0f0 f   Gerber.obj
 0002:0015e170       ??1CAperture@@QAE@XZ       0067d170 f   Gerber.obj
 0002:0015e1b0       ?Equals@CAperture@@QAEHPAV1@@Z 0067d1b0 f   Gerber.obj
 0002:0015e490       ?FindInArray@CAperture@@QAEHPAV?$CArray@VCAperture@@V1@@@H@Z 0067d490 f   Gerber.obj
 0002:0015e5d0       ?WriteMoveTo@@YAXPAVCStdioFile@@HHH@Z 0067d5d0 f   Gerber.obj
 0002:0015e7c0       ?WritePolygonSide@@YAXPAVCStdioFile@@HHHHHHH@Z 0067d7c0 f   Gerber.obj
 0002:0015eef0       ?ChangeAperture@@YAXPAVCAperture@@0PAV?$CArray@VCAperture@@V1@@@HPAVCStdioFile@@@Z 0067def0 f   Gerber.obj
 0002:0015f0e0       ?WriteTiltPolygon@@YAXHHHHHHHHHPAVCStdioFile@@@Z 0067e0e0 f   Gerber.obj
 0002:00160df0       ?WriteGerberFile@@YAHPAVCStdioFile@@HHPAVCDlgLog@@HHHHPAV?$CArray@VCPolyLine@@ABV1@@@PAUCAttrib@@PAVCDisplayList@@PAVStrList@@@Z 0067fdf0 f   Gerber.obj
 0002:00164e30       ?AddToArray@@YAHHPAV?$CArray@HH@@@Z 00683e30 f   Gerber.obj
 0002:00164ee0       ??0?$CArray@VCAperture@@V1@@@QAE@XZ 00683ee0 f i Gerber.obj
 0002:00164f70       ?GetSize@?$CArray@VCAperture@@V1@@@QBEHXZ 00683f70 f i Gerber.obj
 0002:00164fb0       ?GetAt@?$CArray@VCAperture@@V1@@@QAEAAVCAperture@@H@Z 00683fb0 f i Gerber.obj
 0002:00165060       ?Add@?$CArray@VCAperture@@V1@@@QAEHVCAperture@@@Z 00684060 f i Gerber.obj
 0002:00165150       ??A?$CArray@VCAperture@@V1@@@QAEAAVCAperture@@H@Z 00684150 f i Gerber.obj
 0002:001651b0       ??1?$CArray@VCAperture@@V1@@@UAE@XZ 006841b0 f i Gerber.obj
 0002:001652e0       ?Serialize@?$CArray@VCAperture@@V1@@@UAEXAAVCArchive@@@Z 006842e0 f i Gerber.obj
 0002:001653b0       ?Dump@?$CArray@VCAperture@@V1@@@UBEXAAVCDumpContext@@@Z 006843b0 f i Gerber.obj
 0002:00165490       ?AssertValid@?$CArray@VCAperture@@V1@@@UBEXXZ 00684490 f i Gerber.obj
 0002:001655f0       ?GetSize@?$CArray@HH@@QBEHXZ 006845f0 f i Gerber.obj
 0002:00165630       ?GetAt@?$CArray@HH@@QAEAAHH@Z 00684630 f i Gerber.obj
 0002:001656e0       ?Add@?$CArray@HH@@QAEHH@Z  006846e0 f i Gerber.obj
 0002:00165750       ??_G?$CArray@VCAperture@@V1@@@UAEPAXI@Z 00684750 f i Gerber.obj
 0002:00165750       ??_E?$CArray@VCAperture@@V1@@@UAEPAXI@Z 00684750 f i Gerber.obj
 0002:001657c0       ??_GCAperture@@QAEPAXI@Z   006847c0 f i Gerber.obj
 0002:00165830       ?SetSize@?$CArray@VCAperture@@V1@@@QAEXHH@Z 00684830 f i Gerber.obj
 0002:00165f30       ?ElementAt@?$CArray@VCAperture@@V1@@@QAEAAVCAperture@@H@Z 00684f30 f i Gerber.obj
 0002:00165fe0       ?SetAtGrow@?$CArray@VCAperture@@V1@@@QAEXHVCAperture@@@Z 00684fe0 f i Gerber.obj
 0002:00166120       ??$SerializeElements@VCAperture@@@@YGXAAVCArchive@@PAVCAperture@@H@Z 00685120 f i Gerber.obj
 0002:00166310       ??$DumpElements@VCAperture@@@@YGXAAVCDumpContext@@PBVCAperture@@H@Z 00685310 f i Gerber.obj
 0002:00166400       ?SetAtGrow@?$CArray@HH@@QAEXHH@Z 00685400 f i Gerber.obj
 0002:001664d0       ?SetSize@?$CArray@HH@@QAEXHH@Z 006854d0 f i Gerber.obj
 0002:00166a60       ?gpc_free_polygon@@YAXPAUgpc_polygon@@@Z 00685a60 f   gpc_232.obj
 0002:00166b90       ?gpc_read_polygon@@YAXPAU_iobuf@@HPAUgpc_polygon@@@Z 00685b90 f   gpc_232.obj
 0002:00166f50       ?gpc_write_polygon@@YAXPAU_iobuf@@HPAUgpc_polygon@@@Z 00685f50 f   gpc_232.obj
 0002:001670f0       ?gpc_add_contour@@YAXPAUgpc_polygon@@PAUgpc_vertex_list@@H@Z 006860f0 f   gpc_232.obj
 0002:00167530       ?gpc_polygon_clip@@YAXW4gpc_op@@PAUgpc_polygon@@11@Z 00686530 f   gpc_232.obj
 0002:0016cdb0       ?gpc_free_tristrip@@YAXPAUgpc_tristrip@@@Z 0068bdb0 f   gpc_232.obj
 0002:0016ceb0       ?gpc_polygon_to_tristrip@@YAXPAUgpc_polygon@@PAUgpc_tristrip@@@Z 0068beb0 f   gpc_232.obj
 0002:0016cf60       ?gpc_tristrip_clip@@YAXW4gpc_op@@PAUgpc_polygon@@1PAUgpc_tristrip@@@Z 0068bf60 f   gpc_232.obj
 0002:00170ff0       ?Import_PADSPCB_Netlist@@YAXPAVCFreePcbDoc@@PAVCStdioFile@@@Z 0068fff0 f   ImportNetlist.obj
 0002:00173170       ?sqrt@@YAMM@Z              00692170 f i ImportNetlist.obj
 0002:001731d0       _sqrtf                     006921d0 f i ImportNetlist.obj
 0002:00173240       ?RemoveAllInvisibleElements@@YAXPAVCFreePcbDoc@@@Z 00692240 f   ImportNetlist.obj
 0002:00173360       ??0CLibPointer@@QAE@XZ     00692360 f   LibPointer.obj
 0002:00173560       ??1CLibPointer@@QAE@XZ     00692560 f   LibPointer.obj
 0002:001736d0       ?ClearTestString@CLibPointer@@QAEXXZ 006926d0 f   LibPointer.obj
 0002:00173740       ?ShowTestString@CLibPointer@@QAEXXZ 00692740 f   LibPointer.obj
 0002:001737d0       ?iof@CLibPointer@@AAEHPAV?$CStringT@DV?$StrTraitMFC_DLL@DV?$ChTraitsCRT@D@ATL@@@@@ATL@@PAV?$CArray@V?$CStringT@DV?$StrTraitMFC_DLL@DV?$ChTraitsCRT@D@ATL@@@@@ATL@@ABV12@@@@Z 006927d0 f   LibPointer.obj
 0002:00173ee0       ?SetPath@CLibPointer@@QAEXPAV?$CStringT@DV?$StrTraitMFC_DLL@DV?$ChTraitsCRT@D@ATL@@@@@ATL@@@Z 00692ee0 f   LibPointer.obj
 0002:00173fa0       ?IsEmpty@CLibPointer@@QAEHXZ 00692fa0 f   LibPointer.obj
 0002:00174030       ?GetLibrary@CLibPointer@@QAEPAV?$CArray@V?$CStringT@DV?$StrTraitMFC_DLL@DV?$ChTraitsCRT@D@ATL@@@@@ATL@@ABV12@@@XZ 00693030 f   LibPointer.obj
 0002:00174120       ?AddItem@CLibPointer@@QAEHPAV?$CStringT@DV?$StrTraitMFC_DLL@DV?$ChTraitsCRT@D@ATL@@@@@ATL@@H@Z 00693120 f   LibPointer.obj
 0002:001746e0       ?isPresent@CLibPointer@@QAEHPAV?$CStringT@DV?$StrTraitMFC_DLL@DV?$ChTraitsCRT@D@ATL@@@@@ATL@@@Z 006936e0 f   LibPointer.obj
 0002:00174970       ?GetPath@CLibPointer@@QAE?AV?$CStringT@DV?$StrTraitMFC_DLL@DV?$ChTraitsCRT@D@ATL@@@@@ATL@@PAV23@HPAH@Z 00693970 f   LibPointer.obj
 0002:00174e00       ?GetPathes@CLibPointer@@QAEPAV?$CArray@V?$CStringT@DV?$StrTraitMFC_DLL@DV?$ChTraitsCRT@D@ATL@@@@@ATL@@ABV12@@@PAV?$CStringT@DV?$StrTraitMFC_DLL@DV?$ChTraitsCRT@D@ATL@@@@@ATL@@@Z 00693e00 f   LibPointer.obj
 0002:00175170       ?GetPathes@CLibPointer@@QAEPAV?$CArray@V?$CStringT@DV?$StrTraitMFC_DLL@DV?$ChTraitsCRT@D@ATL@@@@@ATL@@ABV12@@@XZ 00694170 f   LibPointer.obj
 0002:001751b0       ?Clear@CLibPointer@@QAEXXZ 006941b0 f   LibPointer.obj
 0002:00175400       ?GetPartlistByPath@CLibPointer@@QAEPAV?$CArray@V?$CStringT@DV?$StrTraitMFC_DLL@DV?$ChTraitsCRT@D@ATL@@@@@ATL@@ABV12@@@PAV?$CStringT@DV?$StrTraitMFC_DLL@DV?$ChTraitsCRT@D@ATL@@@@@ATL@@@Z 00694400 f   LibPointer.obj
 0002:00175590       ??0?$CArray@PAUINDEX@@ABQAU1@@@QAE@XZ 00694590 f i LibPointer.obj
 0002:00175620       ?GetSize@?$CArray@PAUINDEX@@ABQAU1@@@QBEHXZ 00694620 f i LibPointer.obj
 0002:00175660       ?GetAt@?$CArray@PAUINDEX@@ABQAU1@@@QAEAAPAUINDEX@@H@Z 00694660 f i LibPointer.obj
 0002:00175710       ?SetAt@?$CArray@PAUINDEX@@ABQAU1@@@QAEXHABQAUINDEX@@@Z 00694710 f i LibPointer.obj
 0002:001757c0       ?Add@?$CArray@PAUINDEX@@ABQAU1@@@QAEHABQAUINDEX@@@Z 006947c0 f i LibPointer.obj
 0002:00175830       ?SetAtGrow@?$CArray@PAUINDEX@@ABQAU1@@@QAEXHABQAUINDEX@@@Z 00694830 f i LibPointer.obj
 0002:00175900       ??1?$CArray@PAUINDEX@@ABQAU1@@@UAE@XZ 00694900 f i LibPointer.obj
 0002:00175a10       ?Serialize@?$CArray@PAUINDEX@@ABQAU1@@@UAEXAAVCArchive@@@Z 00694a10 f i LibPointer.obj
 0002:00175ae0       ?Dump@?$CArray@PAUINDEX@@ABQAU1@@@UBEXAAVCDumpContext@@@Z 00694ae0 f i LibPointer.obj
 0002:00175bc0       ?AssertValid@?$CArray@PAUINDEX@@ABQAU1@@@UBEXXZ 00694bc0 f i LibPointer.obj
 0002:00175d20       ??_G?$CArray@PAUINDEX@@ABQAU1@@@UAEPAXI@Z 00694d20 f i LibPointer.obj
 0002:00175d20       ??_E?$CArray@PAUINDEX@@ABQAU1@@@UAEPAXI@Z 00694d20 f i LibPointer.obj
 0002:00175d90       ?SetSize@?$CArray@PAUINDEX@@ABQAU1@@@QAEXHH@Z 00694d90 f i LibPointer.obj
 0002:00176320       ??$SerializeElements@PAUINDEX@@@@YGXAAVCArchive@@PAPAUINDEX@@H@Z 00695320 f i LibPointer.obj
 0002:00176510       ??$DumpElements@PAUINDEX@@@@YGXAAVCDumpContext@@PBQAUINDEX@@H@Z 00695510 f i LibPointer.obj
 0002:00176600       ?CreateObject@CMainFrame@@SGPAVCObject@@XZ 00695600 f   MainFrm.obj
 0002:001766f0       ?_GetBaseClass@CMainFrame@@KGPAUCRuntimeClass@@XZ 006956f0 f   MainFrm.obj
 0002:00176740       ?GetThisClass@CMainFrame@@SGPAUCRuntimeClass@@XZ 00695740 f   MainFrm.obj
 0002:00176780       ?GetRuntimeClass@CMainFrame@@UBEPAUCRuntimeClass@@XZ 00695780 f   MainFrm.obj
 0002:001767c0       ?GetMessageMap@CMainFrame@@MBEPBUAFX_MSGMAP@@XZ 006957c0 f   MainFrm.obj
 0002:00176810       ?GetThisMessageMap@CMainFrame@@KGPBUAFX_MSGMAP@@XZ 00695810 f   MainFrm.obj
 0002:00176850       ??0CMainFrame@@IAE@XZ      00695850 f   MainFrm.obj
 0002:00176970       ??_GCMainFrame@@UAEPAXI@Z  00695970 f i MainFrm.obj
 0002:00176970       ??_ECMainFrame@@UAEPAXI@Z  00695970 f i MainFrm.obj
 0002:001769e0       ??1CMainFrame@@UAE@XZ      006959e0 f   MainFrm.obj
 0002:00176ab0       ?OnCreate@CMainFrame@@IAEHPAUtagCREATESTRUCTA@@@Z 00695ab0 f   MainFrm.obj
 0002:001773b0       ?PreCreateWindow@CMainFrame@@UAEHAAUtagCREATESTRUCTA@@@Z 006963b0 f   MainFrm.obj
 0002:001774b0       ?DrawStatus@CMainFrame@@QAEHHPAV?$CStringT@DV?$StrTraitMFC_DLL@DV?$ChTraitsCRT@D@ATL@@@@@ATL@@@Z 006964b0 f   MainFrm.obj
 0002:00177530       ?AssertValid@CMainFrame@@UBEXXZ 00696530 f   MainFrm.obj
 0002:00177580       ?Dump@CMainFrame@@UBEXAAVCDumpContext@@@Z 00696580 f   MainFrm.obj
 0002:001775e0       ?OnChangeVisibleGrid@CMainFrame@@QAEJIJ@Z 006965e0 f   MainFrm.obj
 0002:00177680       ?OnChangePlacementGrid@CMainFrame@@QAEJIJ@Z 00696680 f   MainFrm.obj
 0002:00177720       ?OnChangeTextGrid@CMainFrame@@QAEJIJ@Z 00696720 f   MainFrm.obj
 0002:001777c0       ?OnChangeSnapAngle@CMainFrame@@QAEJIJ@Z 006967c0 f   MainFrm.obj
 0002:00177860       ?OnChangeUnits@CMainFrame@@QAEJIJ@Z 00696860 f   MainFrm.obj
 0002:00177900       ?Wm__DropFiles@CMainFrame@@QAEJIJ@Z 00696900 f   MainFrm.obj
 0002:00177b60       ?OnCopyData@CMainFrame@@QAEHPAVCWnd@@PAUtagCOPYDATASTRUCT@@@Z 00696b60 f   MainFrm.obj
 0002:00178450       ?OnSysCommand@CMainFrame@@QAEXIJ@Z 00697450 f   MainFrm.obj
 0002:00178530       ?OnEditUndo@CMainFrame@@QAEXXZ 00697530 f   MainFrm.obj
 0002:001785e0       ?OnTimer@CMainFrame@@QAEXI@Z 006975e0 f   MainFrm.obj
 0002:00178a80       ?OnSetCursor@CMainFrame@@QAEHPAVCWnd@@II@Z 00697a80 f   MainFrm.obj
 0002:00178c50       ?OnMove@CMainFrame@@QAEXHH@Z 00697c50 f   MainFrm.obj
 0002:00178dd0       ?OnSize@CMainFrame@@QAEXIHH@Z 00697dd0 f   MainFrm.obj
 0002:00178ef0       ?SetHideCursor@CMainFrame@@QAEXHPAVCRect@@@Z 00697ef0 f   MainFrm.obj
 0002:00178fc0       ?DestroyWindow@CMainFrame@@UAEHXZ 00697fc0 f   MainFrm.obj
 0002:00179110       ?_GetBaseClass@CMyToolBar@@KGPAUCRuntimeClass@@XZ 00698110 f   MyToolBar.obj
 0002:00179160       ?GetThisClass@CMyToolBar@@SGPAUCRuntimeClass@@XZ 00698160 f   MyToolBar.obj
 0002:001791a0       ?GetRuntimeClass@CMyToolBar@@UBEPAUCRuntimeClass@@XZ 006981a0 f   MyToolBar.obj
 0002:001791e0       ??0CMyToolBar@@QAE@XZ      006981e0 f   MyToolBar.obj
 0002:00179390       ??_GCMyToolBar@@UAEPAXI@Z  00698390 f i MyToolBar.obj
 0002:00179390       ??_ECMyToolBar@@UAEPAXI@Z  00698390 f i MyToolBar.obj
 0002:00179400       ??1CMyToolBar@@UAE@XZ      00698400 f   MyToolBar.obj
 0002:001795a0       ?GetMessageMap@CMyToolBar@@MBEPBUAFX_MSGMAP@@XZ 006985a0 f   MyToolBar.obj
 0002:001795f0       ?GetThisMessageMap@CMyToolBar@@KGPBUAFX_MSGMAP@@XZ 006985f0 f   MyToolBar.obj
 0002:00179630       ?OnCreate@CMyToolBar@@QAEHPAUtagCREATESTRUCTA@@@Z 00698630 f   MyToolBar.obj
 0002:00179fb0       ?SetLists@CMyToolBar@@QAEXPAV?$CArray@NABN@@00NNNHH@Z 00698fb0 f   MyToolBar.obj
 0002:0017b010       ?OnEditVisibleGrid@CMyToolBar@@QAEXXZ 0069a010 f   MyToolBar.obj
 0002:0017b150       ?OnEditPlacementGrid@CMyToolBar@@QAEXXZ 0069a150 f   MyToolBar.obj
 0002:0017b290       ?OnSelectVisibleGrid@CMyToolBar@@QAEXXZ 0069a290 f   MyToolBar.obj
 0002:0017b3e0       ?OnSelectPlacementGrid@CMyToolBar@@QAEXXZ 0069a3e0 f   MyToolBar.obj
 0002:0017b530       ?OnSelectTextGrid@CMyToolBar@@QAEXXZ 0069a530 f   MyToolBar.obj
 0002:0017b650       ?OnSelectSnapAngle@CMyToolBar@@QAEXXZ 0069a650 f   MyToolBar.obj
 0002:0017b770       ?OnSelectUnits@CMyToolBar@@QAEXXZ 0069a770 f   MyToolBar.obj
 0002:0017b890       ?SetUnits@CMyToolBar@@QAEXH@Z 0069a890 f   MyToolBar.obj
 0002:0017b9d0       ?_GetBaseClass@CDlgNetlistSettings@@KGPAUCRuntimeClass@@XZ 0069a9d0 f   NetlistSettings.obj
 0002:0017ba20       ?GetThisClass@CDlgNetlistSettings@@SGPAUCRuntimeClass@@XZ 0069aa20 f   NetlistSettings.obj
 0002:0017ba60       ?GetRuntimeClass@CDlgNetlistSettings@@UBEPAUCRuntimeClass@@XZ 0069aa60 f   NetlistSettings.obj
 0002:0017baa0       ??0CDlgNetlistSettings@@QAE@PAVCWnd@@@Z 0069aaa0 f   NetlistSettings.obj
 0002:0017bc10       ??_GCDlgNetlistSettings@@UAEPAXI@Z 0069ac10 f i NetlistSettings.obj
 0002:0017bc10       ??_ECDlgNetlistSettings@@UAEPAXI@Z 0069ac10 f i NetlistSettings.obj
 0002:0017bc80       ??1CDlgNetlistSettings@@UAE@XZ 0069ac80 f   NetlistSettings.obj
 0002:0017bdc0       ?Ini@CDlgNetlistSettings@@QAEXPAVCPageList@@HPAV?$CStringT@DV?$StrTraitMFC_DLL@DV?$ChTraitsCRT@D@ATL@@@@@ATL@@@Z 0069adc0 f   NetlistSettings.obj
 0002:0017beb0       ?DoDataExchange@CDlgNetlistSettings@@MAEXPAVCDataExchange@@@Z 0069aeb0 f   NetlistSettings.obj
 0002:0017c3e0       ?GetMessageMap@CDlgNetlistSettings@@MBEPBUAFX_MSGMAP@@XZ 0069b3e0 f   NetlistSettings.obj
 0002:0017c430       ?GetThisMessageMap@CDlgNetlistSettings@@KGPBUAFX_MSGMAP@@XZ 0069b430 f   NetlistSettings.obj
 0002:0017c470       ?OnCheck1@CDlgNetlistSettings@@QAEXXZ 0069b470 f   NetlistSettings.obj
 0002:0017c4d0       ?OnCheck2@CDlgNetlistSettings@@QAEXXZ 0069b4d0 f   NetlistSettings.obj
 0002:0017c530       ?OnCheck3@CDlgNetlistSettings@@QAEXXZ 0069b530 f   NetlistSettings.obj
 0002:0017c590       ?OnCheck4@CDlgNetlistSettings@@QAEXXZ 0069b590 f   NetlistSettings.obj
 0002:0017c5f0       ?OnCheck5@CDlgNetlistSettings@@QAEXXZ 0069b5f0 f   NetlistSettings.obj
 0002:0017c650       ?OnCheck6@CDlgNetlistSettings@@QAEXXZ 0069b650 f   NetlistSettings.obj
 0002:0017c6b0       ?OnCheck7@CDlgNetlistSettings@@QAEXXZ 0069b6b0 f   NetlistSettings.obj
 0002:0017c710       ?OnCheck8@CDlgNetlistSettings@@QAEXXZ 0069b710 f   NetlistSettings.obj
 0002:0017c770       ?OnCheck9@CDlgNetlistSettings@@QAEXXZ 0069b770 f   NetlistSettings.obj
 0002:0017c7e0       ?OnCheck10@CDlgNetlistSettings@@QAEXXZ 0069b7e0 f   NetlistSettings.obj
 0002:0017c850       ?OnChange1@CDlgNetlistSettings@@QAEXXZ 0069b850 f   NetlistSettings.obj
 0002:0017ca10       ?TryConnectPage@CDlgNetlistSettings@@QAEXH@Z 0069ba10 f   NetlistSettings.obj
 0002:0017cf80       ?SetMask@CDlgNetlistSettings@@QAEXXZ 0069bf80 f   NetlistSettings.obj
 0002:0017d240       ?OnAddPcb@CDlgNetlistSettings@@QAEXXZ 0069c240 f   NetlistSettings.obj
 0002:0017d710       ?OnDeletePcb@CDlgNetlistSettings@@QAEXXZ 0069c710 f   NetlistSettings.obj
 0002:0017dc50       ??0CPageList@@QAE@XZ       0069cc50 f   Pages.obj
 0002:0017dec0       ??1CPageList@@QAE@XZ       0069cec0 f   Pages.obj
 0002:0017dfb0       ?Assignment@CPageList@@QAEXPAPAV?$CArray@VCPolyLine@@ABV1@@@PAPAUCAttrib@@PAPAVCTextList@@PAPAVCDisplayList@@PAPAVDRErrorList@@PAPAVCUndoList@@5PAPAVCText@@PAVid@@PAHHPAVSMFontUtil@@@Z 0069cfb0 f   Pages.obj
 0002:0017e070       ?Next@CPageList@@QAEHXZ    0069d070 f   Pages.obj
 0002:0017e0d0       ?Prev@CPageList@@QAEHXZ    0069d0d0 f   Pages.obj
 0002:0017e130       ?ClearAll@CPageList@@QAEHXZ 0069d130 f   Pages.obj
 0002:0017e1d0       ?RemoveAll@CPageList@@QAEHXZ 0069d1d0 f   Pages.obj
 0002:0017e260       ?AddNew@CPageList@@QAEHPAV?$CStringT@DV?$StrTraitMFC_DLL@DV?$ChTraitsCRT@D@ATL@@@@@ATL@@H@Z 0069d260 f   Pages.obj
 0002:0017ea90       ?VirtualPagesPresent@CPageList@@QAEHXZ 0069da90 f   Pages.obj
 0002:0017eb00       ?CreateVirtualPages@CPageList@@QAEHXZ 0069db00 f   Pages.obj
 0002:0017eca0       ?DeleteVirtualPages@CPageList@@QAEHXZ 0069dca0 f   Pages.obj
 0002:0017eda0       ?SwitchToVP1@CPageList@@QAEHXZ 0069dda0 f   Pages.obj
 0002:0017ee20       ?SwitchToVP2@CPageList@@QAEHXZ 0069de20 f   Pages.obj
 0002:0017eea0       ?Clear@CPageList@@QAEHH@Z  0069dea0 f   Pages.obj
 0002:0017f060       ?Remove@CPageList@@QAEHH@Z 0069e060 f   Pages.obj
 0002:0017f600       ??_GCTextList@@QAEPAXI@Z   0069e600 f i Pages.obj
 0002:0017f670       ??_GDRErrorList@@QAEPAXI@Z 0069e670 f i Pages.obj
 0002:0017f6e0       ??_GCUndoList@@QAEPAXI@Z   0069e6e0 f i Pages.obj
 0002:0017f750       ??_GCDisplayList@@QAEPAXI@Z 0069e750 f i Pages.obj
 0002:0017f7c0       ?Rename@CPageList@@QAEHHPAV?$CStringT@DV?$StrTraitMFC_DLL@DV?$ChTraitsCRT@D@ATL@@@@@ATL@@@Z 0069e7c0 f   Pages.obj
 0002:0017f840       ?SwitchToPage@CPageList@@QAEHH@Z 0069e840 f   Pages.obj
 0002:0017fad0       ?ReturnPageByPCB@CPageList@@QAEHPAV?$CStringT@DV?$StrTraitMFC_DLL@DV?$ChTraitsCRT@D@ATL@@@@@ATL@@@Z 0069ead0 f   Pages.obj
 0002:0017fc00       ?IsThePageIncludesCP@CPageList@@QAEHH@Z 0069ec00 f   Pages.obj
 0002:0017fd70       ?FindMerge@CPageList@@QAEHH@Z 0069ed70 f   Pages.obj
 0002:0017fe60       ?ShiftPrintableAreaIndexes@CPageList@@QAEHPAVid@@H@Z 0069ee60 f   Pages.obj
 0002:00180220       ?GetPrintableAreaIndex@CPageList@@QAEHPAV?$CStringT@DV?$StrTraitMFC_DLL@DV?$ChTraitsCRT@D@ATL@@@@@ATL@@@Z 0069f220 f   Pages.obj
 0002:001804d0       ?FindPrintableArea@CPageList@@QAE?AVid@@PAV2@H@Z 0069f4d0 f   Pages.obj
 0002:00180b60       ?FindBlkPtrs@CPageList@@QAEHHH@Z 0069fb60 f   Pages.obj
 0002:00181160       ?GetText@CPageList@@QAEPAVCText@@PAV?$CStringT@DV?$StrTraitMFC_DLL@DV?$ChTraitsCRT@D@ATL@@@@@ATL@@@Z 006a0160 f   Pages.obj
 0002:001812d0       ?GetPicture@CPageList@@QAE?AV?$CStringT@DV?$StrTraitMFC_DLL@DV?$ChTraitsCRT@D@ATL@@@@@ATL@@PAV23@0@Z 006a02d0 f   Pages.obj
 0002:00181620       ?FindPart@CPageList@@QAEHPAV?$CStringT@DV?$StrTraitMFC_DLL@DV?$ChTraitsCRT@D@ATL@@@@@ATL@@0HPAV?$CArray@PAVCText@@ABQAV1@@@PAPAVCText@@PAH@Z 006a0620 f   Pages.obj
 0002:00181c60       ?FindPart@CPageList@@QAEHPAV?$CStringT@DV?$StrTraitMFC_DLL@DV?$ChTraitsCRT@D@ATL@@@@@ATL@@PAPAVCText@@HHHH@Z 006a0c60 f   Pages.obj
 0002:00182310       ?FindCPartElement@CPageList@@QAEPAVCText@@PAV?$CStringT@DV?$StrTraitMFC_DLL@DV?$ChTraitsCRT@D@ATL@@@@@ATL@@PAH1H@Z 006a1310 f   Pages.obj
 0002:00182b90       ?GetLastFreeNetIndex@CPageList@@QAEHH@Z 006a1b90 f   Pages.obj
 0002:00182e10       ?GetSelCount@CPageList@@QAEHHPAHH@Z 006a1e10 f   Pages.obj
 0002:00183270       ?IsAttr@CPageList@@QAEHPAVCText@@@Z 006a2270 f   Pages.obj
 0002:00183410       ?CheckTemplate@CPageList@@QAEHPAV?$CStringT@DV?$StrTraitMFC_DLL@DV?$ChTraitsCRT@D@ATL@@@@@ATL@@@Z 006a2410 f   Pages.obj
 0002:001836e0       ?GetNetPages@CPageList@@QAEHPAVCText@@PAHH@Z 006a26e0 f   Pages.obj
 0002:00183850       ?GetBOMCount@CPageList@@QAEHPAV?$CStringT@DV?$StrTraitMFC_DLL@DV?$ChTraitsCRT@D@ATL@@@@@ATL@@00HPAHHH00H@Z 006a2850 f   Pages.obj
 0002:00184590       ?FindBOMNextLine@CPageList@@QAEHPAV?$CStringT@DV?$StrTraitMFC_DLL@DV?$ChTraitsCRT@D@ATL@@@@@ATL@@00HHHHHPAH@Z 006a3590 f   Pages.obj
 0002:001863b0       ?SortDetails@CPageList@@QAEHPAV?$CStringT@DV?$StrTraitMFC_DLL@DV?$ChTraitsCRT@D@ATL@@@@@ATL@@H@Z 006a53b0 f   Pages.obj
 0002:00186910       ?GetActiveNumber@CPageList@@QAEHXZ 006a5910 f   Pages.obj
 0002:00186950       ?GetNumPages@CPageList@@QAEHXZ 006a5950 f   Pages.obj
 0002:00186990       ?GetPageName@CPageList@@QAEXHPAV?$CStringT@DV?$StrTraitMFC_DLL@DV?$ChTraitsCRT@D@ATL@@@@@ATL@@@Z 006a5990 f   Pages.obj
 0002:00186a10       ?GetNetPins@CPageList@@QAEHPAV?$CStringT@DV?$StrTraitMFC_DLL@DV?$ChTraitsCRT@D@ATL@@@@@ATL@@0H00H0PAUtagRECT@@@Z 006a5a10 f   Pages.obj
 0002:00188e10       ?IncorrectElectricalCirquit@CPageList@@QAEHPAV?$CStringT@DV?$StrTraitMFC_DLL@DV?$ChTraitsCRT@D@ATL@@@@@ATL@@PAH1H@Z 006a7e10 f   Pages.obj
 0002:00189a10       ?GetNextAttr@CPageList@@QAEPAVCText@@HPAH0H@Z 006a8a10 f   Pages.obj
 0002:00189c40       ?GetDisplayList@CPageList@@QAEPAVCDisplayList@@H@Z 006a8c40 f   Pages.obj
 0002:00189ca0       ?GetTextList@CPageList@@QAEPAVCTextList@@HH@Z 006a8ca0 f   Pages.obj
 0002:00189e20       ?GetPolyArray@CPageList@@QAEPAV?$CArray@VCPolyLine@@ABV1@@@H@Z 006a8e20 f   Pages.obj
 0002:00189e80       ?GetCurrentAttrPtr@CPageList@@QAEPAUCAttrib@@XZ 006a8e80 f   Pages.obj
 0002:00189ec0       ?GetDRErrorList@CPageList@@QAEPAVDRErrorList@@H@Z 006a8ec0 f   Pages.obj
 0002:00189f20       ?RemoveEmptyMergers@CPageList@@QAEXPAVStrList@@@Z 006a8f20 f   Pages.obj
 0002:0018a450       ?FindPartInRect@CPageList@@QAEHPAUtagRECT@@PAV?$CStringT@DV?$StrTraitMFC_DLL@DV?$ChTraitsCRT@D@ATL@@@@@ATL@@11H@Z 006a9450 f   Pages.obj
 0002:0018a6b0       ?GetBlockParts@CPageList@@QAEHPAV?$CStringT@DV?$StrTraitMFC_DLL@DV?$ChTraitsCRT@D@ATL@@@@@ATL@@PAVCText@@HPAHPAVCDlgLog@@00HPAV?$CArray@V?$CStringT@DV?$StrTraitMFC_DLL@DV?$ChTraitsCRT@D@ATL@@@@@ATL@@ABV12@@@@Z 006a96b0 f   Pages.obj
 0002:0018cb70       ?GetBlockNets@CPageList@@QAEHPAV?$CStringT@DV?$StrTraitMFC_DLL@DV?$ChTraitsCRT@D@ATL@@@@@ATL@@PAVCText@@HPAH00PAVCDlgLog@@0@Z 006abb70 f   Pages.obj
 0002:00190930       ?FindBLK@CPageList@@QAEPAVCText@@PAH0H@Z 006af930 f   Pages.obj
 0002:00190b20       ?FindBLK_PTR@CPageList@@QAEPAVCText@@PAV?$CStringT@DV?$StrTraitMFC_DLL@DV?$ChTraitsCRT@D@ATL@@@@@ATL@@H@Z 006afb20 f   Pages.obj
 0002:00190ee0       ?FindBLK_PTR@CPageList@@QAEPAVCText@@PAH0H@Z 006afee0 f   Pages.obj
 0002:001910d0       ?GetPageIndex@CPageList@@QAEHPAV?$CStringT@DV?$StrTraitMFC_DLL@DV?$ChTraitsCRT@D@ATL@@@@@ATL@@@Z 006b00d0 f   Pages.obj
 0002:001911a0       ?GetPcbIndex@CPageList@@QAEHHH@Z 006b01a0 f   Pages.obj
 0002:001912d0       ?InvalidatePcbIndexes@CPageList@@QAEXXZ 006b02d0 f   Pages.obj
 0002:00191340       ?CheckPCBNames@CPageList@@QAEXPAV?$CStringT@DV?$StrTraitMFC_DLL@DV?$ChTraitsCRT@D@ATL@@@@@ATL@@@Z 006b0340 f   Pages.obj
 0002:00191ef0       ?GetCurrentPcbIndex@CPageList@@QAEHXZ 006b0ef0 f   Pages.obj
 0002:00191f50       ?GetCurrentPCBName@CPageList@@QAE?AV?$CStringT@DV?$StrTraitMFC_DLL@DV?$ChTraitsCRT@D@ATL@@@@@ATL@@H@Z 006b0f50 f   Pages.obj
 0002:001921b0       ?IsThePageIncludedInNetlist@CPageList@@QAEHHH@Z 006b11b0 f   Pages.obj
 0002:00192250       ?Protection@CPageList@@QAEXH@Z 006b1250 f   Pages.obj
 0002:00192ad0       ?InvalidateMerges@CPageList@@QAEHH@Z 006b1ad0 f   Pages.obj
 0002:00192fa0       ?GetAt@?$CArray@HABH@@QAEAAHH@Z 006b1fa0 f i Pages.obj
 0002:00193050       ??0?$CArray@UCFreeasyPage@@ABU1@@@QAE@XZ 006b2050 f i Pages.obj
 0002:001930e0       ?GetSize@?$CArray@UCFreeasyPage@@ABU1@@@QBEHXZ 006b20e0 f i Pages.obj
 0002:00193120       ?Add@?$CArray@UCFreeasyPage@@ABU1@@@QAEHABUCFreeasyPage@@@Z 006b2120 f i Pages.obj
 0002:00193190       ??A?$CArray@UCFreeasyPage@@ABU1@@@QAEAAUCFreeasyPage@@H@Z 006b2190 f i Pages.obj
 0002:001931f0       ?InsertAt@?$CArray@UCFreeasyPage@@ABU1@@@QAEXHABUCFreeasyPage@@H@Z 006b21f0 f i Pages.obj
 0002:00193510       ?RemoveAt@?$CArray@UCFreeasyPage@@ABU1@@@QAEXHH@Z 006b2510 f i Pages.obj
 0002:001936e0       ??4CFreeasyPage@@QAEAAU0@ABU0@@Z 006b26e0 f i Pages.obj
 0002:00193800       ?ElementAt@?$CArray@UCFreeasyPage@@ABU1@@@QAEAAUCFreeasyPage@@H@Z 006b2800 f i Pages.obj
 0002:001938b0       ?SetAtGrow@?$CArray@UCFreeasyPage@@ABU1@@@QAEXHABUCFreeasyPage@@@Z 006b28b0 f i Pages.obj
 0002:00193980       ??1?$CArray@UCFreeasyPage@@ABU1@@@UAE@XZ 006b2980 f i Pages.obj
 0002:00193ab0       ?Serialize@?$CArray@UCFreeasyPage@@ABU1@@@UAEXAAVCArchive@@@Z 006b2ab0 f i Pages.obj
 0002:00193b80       ?Dump@?$CArray@UCFreeasyPage@@ABU1@@@UBEXAAVCDumpContext@@@Z 006b2b80 f i Pages.obj
 0002:00193c60       ?AssertValid@?$CArray@UCFreeasyPage@@ABU1@@@UBEXXZ 006b2c60 f i Pages.obj
 0002:00193dc0       ??_E?$CArray@UCFreeasyPage@@ABU1@@@UAEPAXI@Z 006b2dc0 f i Pages.obj
 0002:00193dc0       ??_G?$CArray@UCFreeasyPage@@ABU1@@@UAEPAXI@Z 006b2dc0 f i Pages.obj
 0002:00193e30       ??_GCFreeasyPage@@QAEPAXI@Z 006b2e30 f i Pages.obj
 0002:00193ea0       ??1CFreeasyPage@@QAE@XZ    006b2ea0 f i Pages.obj
 0002:00193f00       ?SetSize@?$CArray@UCFreeasyPage@@ABU1@@@QAEXHH@Z 006b2f00 f i Pages.obj
 0002:00194600       ??$SerializeElements@UCFreeasyPage@@@@YGXAAVCArchive@@PAUCFreeasyPage@@H@Z 006b3600 f i Pages.obj
 0002:001947f0       ??$DumpElements@UCFreeasyPage@@@@YGXAAVCDumpContext@@PBUCFreeasyPage@@H@Z 006b37f0 f i Pages.obj
 0002:001948e0       ??0CFreeasyPage@@QAE@XZ    006b38e0 f i Pages.obj
 0002:001949a0       ?CreateMultiPinPartTemplate@@YAXPAVCFreePcbDoc@@IHHHH@Z 006b39a0 f   PartTemplate.obj
 0002:00195560       ?GetMessageMap@CPathDialogSub@@MBEPBUAFX_MSGMAP@@XZ 006b4560 f   PathDialog.obj
 0002:001955b0       ?GetThisMessageMap@CPathDialogSub@@KGPBUAFX_MSGMAP@@XZ 006b45b0 f   PathDialog.obj
 0002:001955f0       ?OnOK@CPathDialogSub@@IAEXXZ 006b45f0 f   PathDialog.obj
 0002:00195710       ?OnChangeEditPath@CPathDialogSub@@IAEXXZ 006b4710 f   PathDialog.obj
 0002:001957e0       ??0CPathDialog@@QAE@PBD00PAVCWnd@@@Z 006b47e0 f   PathDialog.obj
 0002:001959a0       ??0CPathDialogSub@@QAE@XZ  006b49a0 f i PathDialog.obj
 0002:00195a00       ??_ECPathDialogSub@@UAEPAXI@Z 006b4a00 f i PathDialog.obj
 0002:00195a00       ??_GCPathDialogSub@@UAEPAXI@Z 006b4a00 f i PathDialog.obj
 0002:00195a70       ?GetPathName@CPathDialog@@QAE?AV?$CStringT@DV?$StrTraitMFC_DLL@DV?$ChTraitsCRT@D@ATL@@@@@ATL@@XZ 006b4a70 f   PathDialog.obj
 0002:00195b00       ?BrowseCallbackProc@CPathDialog@@CGHPAUHWND__@@IJJ@Z 006b4b00 f   PathDialog.obj
 0002:00195f70       ?DoModal@CPathDialog@@UAEHXZ 006b4f70 f   PathDialog.obj
 0002:00196180       ?IsFileNameValid@CPathDialog@@SAHPBD@Z 006b5180 f   PathDialog.obj
 0002:00196370       ?MakeSurePathExists@CPathDialog@@SAHPBD@Z 006b5370 f   PathDialog.obj
 0002:001967b0       ?Touch@CPathDialog@@SAHPBDH@Z 006b57b0 f   PathDialog.obj
 0002:00196ad0       ?ConcatPath@CPathDialog@@SAHPADPBD@Z 006b5ad0 f   PathDialog.obj
 0002:00196ba0       ??$strcat@PAD@@YAPADAAPADPBD@Z 006b5ba0 f i PathDialog.obj
 0002:00196c00       ___insecure_strcat         006b5c00 f i PathDialog.obj
 0002:00196c60       ??$strcpy@$0BAE@@@YAPADAAY0BAE@DPBD@Z 006b5c60 f i PathDialog.obj
 0002:00196cd0       ??0polygon@@QAE@PAVvertex@@@Z 006b5cd0 f   php_polygon.obj
 0002:00196d30       ??1polygon@@QAE@XZ         006b5d30 f   php_polygon.obj
 0002:00196e00       ??_Gvertex@@QAEPAXI@Z      006b5e00 f i php_polygon.obj
 0002:00196e70       ?getFirst@polygon@@QAEPAVvertex@@XZ 006b5e70 f   php_polygon.obj
 0002:00196eb0       ?NextPoly@polygon@@QAEPAV1@XZ 006b5eb0 f   php_polygon.obj
 0002:00196f10       ?NextPoly@vertex@@QAEPAVpolygon@@XZ 006b5f10 f i php_polygon.obj
 0002:00196f50       ?add@polygon@@QAEXPAVvertex@@@Z 006b5f50 f   php_polygon.obj
 0002:001970a0       ?setNext@vertex@@QAEXPAV1@@Z 006b60a0 f i php_polygon.obj
 0002:001970f0       ?setPrev@vertex@@QAEXPAV1@@Z 006b60f0 f i php_polygon.obj
 0002:00197140       ?Prev@vertex@@QAEPAV1@XZ   006b6140 f i php_polygon.obj
 0002:00197180       ?Nseg@vertex@@QAEPAVsegment@@XZ 006b6180 f i php_polygon.obj
 0002:001971c0       ?setPseg@vertex@@QAEXPAVsegment@@@Z 006b61c0 f i php_polygon.obj
 0002:00197210       ?addv@polygon@@QAEXNNNNH@Z 006b6210 f   php_polygon.obj
 0002:00197370       ?del@polygon@@QAEPAVvertex@@PAV2@@Z 006b6370 f   php_polygon.obj
 0002:001974b0       ?Next@vertex@@QAEPAV1@XZ   006b64b0 f i php_polygon.obj
 0002:001974f0       ?res@polygon@@QAEXXZ       006b64f0 f   php_polygon.obj
 0002:001975a0       ?id@vertex@@QAEHXZ         006b65a0 f i php_polygon.obj
 0002:001975e0       ?isIntersect@vertex@@QAEHXZ 006b65e0 f i php_polygon.obj
 0002:00197620       ?copy_poly@polygon@@QAEPAV1@XZ 006b6620 f   php_polygon.obj
 0002:001977d0       ?X@vertex@@QAENXZ          006b67d0 f i php_polygon.obj
 0002:00197810       ?Y@vertex@@QAENXZ          006b6810 f i php_polygon.obj
 0002:00197850       ?insertSort@polygon@@QAEXPAVvertex@@00@Z 006b6850 f   php_polygon.obj
 0002:00197990       ?Alpha@vertex@@QAENXZ      006b6990 f i php_polygon.obj
 0002:001979d0       ?nxt@polygon@@QAEPAVvertex@@PAV2@@Z 006b69d0 f   php_polygon.obj
 0002:00197a50       ?unckd_remain@polygon@@QAEHXZ 006b6a50 f   php_polygon.obj
 0002:00197b00       ?isChecked@vertex@@QAEHXZ  006b6b00 f i php_polygon.obj
 0002:00197b40       ?first_unckd_intersect@polygon@@QAEPAVvertex@@XZ 006b6b40 f   php_polygon.obj
 0002:00197bf0       ?dist@polygon@@QAENNNNN@Z  006b6bf0 f   php_polygon.obj
 0002:00197c70       ?angle@polygon@@QAENNNNN@Z 006b6c70 f   php_polygon.obj
 0002:00197d70       ?aAlpha@polygon@@QAENNNNNNNNNN@Z 006b6d70 f   php_polygon.obj
 0002:00197f00       ?perturb@polygon@@QAEXPAVvertex@@000NN@Z 006b6f00 f   php_polygon.obj
 0002:00198300       ?setX@vertex@@QAEXN@Z      006b7300 f i php_polygon.obj
 0002:00198350       ?setY@vertex@@QAEXN@Z      006b7350 f i php_polygon.obj
 0002:001983a0       ?ints@polygon@@QAEHPAVvertex@@000PAHQAN222@Z 006b73a0 f   php_polygon.obj
 0002:00199f80       ?isInside@polygon@@QAEHPAVvertex@@@Z 006b8f80 f   php_polygon.obj
 0002:0019a7c0       ?boolean@polygon@@QAEPAV1@PAV1@H@Z 006b97c0 f   php_polygon.obj
 0002:0019b740       ?setNextPoly@vertex@@QAEXPAVpolygon@@@Z 006ba740 f i php_polygon.obj
 0002:0019b790       ?setNeighbor@vertex@@QAEXPAV1@@Z 006ba790 f i php_polygon.obj
 0002:0019b7e0       ?Neighbor@vertex@@QAEPAV1@XZ 006ba7e0 f i php_polygon.obj
 0002:0019b820       ?setEntry@vertex@@QAEXH@Z  006ba820 f i php_polygon.obj
 0002:0019b870       ?isEntry@vertex@@QAEHXZ    006ba870 f i php_polygon.obj
 0002:0019b8b0       ??0segment@@QAE@NNH@Z      006ba8b0 f   php_polygon_vertex.obj
 0002:0019b910       ??0vertex@@QAE@NNNNNPAV0@0PAVpolygon@@H0NHH@Z 006ba910 f   php_polygon_vertex.obj
 0002:0019bad0       ??1vertex@@QAE@XZ          006baad0 f   php_polygon_vertex.obj
 0002:0019bb50       ?Xc@vertex@@QAENH@Z        006bab50 f   php_polygon_vertex.obj
 0002:0019bc10       ?Xc@segment@@QAENXZ        006bac10 f i php_polygon_vertex.obj
 0002:0019bc50       ?Yc@vertex@@QAENH@Z        006bac50 f   php_polygon_vertex.obj
 0002:0019bd10       ?Yc@segment@@QAENXZ        006bad10 f i php_polygon_vertex.obj
 0002:0019bd50       ?d@vertex@@QAENH@Z         006bad50 f   php_polygon_vertex.obj
 0002:0019be60       ?d@segment@@QAEHXZ         006bae60 f i php_polygon_vertex.obj
 0002:0019bea0       ?setChecked@vertex@@QAEXH@Z 006baea0 f   php_polygon_vertex.obj
 0002:0019bf20       ??0CPolyLine@@QAE@PAVCDisplayList@@@Z 006baf20 f   PolyLine.obj
 0002:0019c0b0       ??0CPolyLine@@QAE@XZ       006bb0b0 f   PolyLine.obj
 0002:0019c240       ?Ini@CPolyLine@@QAEXXZ     006bb240 f   PolyLine.obj
 0002:0019c5b0       ??1CPolyLine@@QAE@XZ       006bb5b0 f   PolyLine.obj
 0002:0019c7a0       ??_Gpolygon@@QAEPAXI@Z     006bb7a0 f i PolyLine.obj
 0002:0019c810       ?NormalizeWithGpc@CPolyLine@@QAEHPAV?$CArray@PAVCPolyLine@@ABQAV1@@@H@Z 006bb810 f   PolyLine.obj
 0002:0019d190       ?MakePhpPoly@CPolyLine@@QAEHXZ 006bc190 f   PolyLine.obj
 0002:0019d340       ?FreePhpPoly@CPolyLine@@QAEXXZ 006bc340 f   PolyLine.obj
 0002:0019d450       ?ClipPhpPolygon@CPolyLine@@QAEXHPAV1@@Z 006bc450 f   PolyLine.obj
 0002:0019d6b0       ?MakeGpcPoly@CPolyLine@@QAEHHPAV?$CArray@VCArc@@ABV1@@@@Z 006bc6b0 f   PolyLine.obj
 0002:0019e3f0       ?FreeGpcPoly@CPolyLine@@QAEHXZ 006bd3f0 f   PolyLine.obj
 0002:0019e4b0       ?RestoreArcs@CPolyLine@@QAEHPAV?$CArray@VCArc@@ABV1@@@PAV?$CArray@PAVCPolyLine@@ABQAV1@@@@Z 006bd4b0 f   PolyLine.obj
 0002:0019ecb0       ?Start@CPolyLine@@QAEXHHHHHHPAVid@@PAXH@Z 006bdcb0 f   PolyLine.obj
 0002:0019f030       ?AppendCorner@CPolyLine@@QAEXHHHH@Z 006be030 f   PolyLine.obj
 0002:0019f630       ?Close@CPolyLine@@QAEXHHH@Z 006be630 f   PolyLine.obj
 0002:0019f7c0       ?UnClose@CPolyLine@@QAEXXZ 006be7c0 f   PolyLine.obj
 0002:0019f870       ?ModifyGroupRect@CPolyLine@@QAEXPAUtagRECT@@@Z 006be870 f   PolyLine.obj
 0002:0019f8e0       ?ModifyGroupRect@CPolyLine@@QAEXHH@Z 006be8e0 f   PolyLine.obj
 0002:0019f970       ?RecalcRectC@CPolyLine@@QAEXH@Z 006be970 f   PolyLine.obj
 0002:0019fd10       ?MoveCorner@CPolyLine@@QAEXHHHH@Z 006bed10 f   PolyLine.obj
 0002:0019fdd0       ?DeleteCorner@CPolyLine@@QAEXHHHH@Z 006bedd0 f   PolyLine.obj
 0002:001a0190       ?RemoveContour@CPolyLine@@QAEXHH@Z 006bf190 f   PolyLine.obj
 0002:001a0530       ?InsertCorner@CPolyLine@@QAEXHHHH@Z 006bf530 f   PolyLine.obj
 0002:001a09f0       ?Undraw@CPolyLine@@QAEXXZ  006bf9f0 f   PolyLine.obj
 0002:001a0cd0       ?Draw@CPolyLine@@QAEXPAVCDisplayList@@@Z 006bfcd0 f   PolyLine.obj
 0002:001a1e20       ?SetSideVisible@CPolyLine@@QAEXHH@Z 006c0e20 f   PolyLine.obj
 0002:001a1eb0       ?StartDraggingToInsertCorner@CPolyLine@@QAEXPAVCDC@@HHHH@Z 006c0eb0 f   PolyLine.obj
 0002:001a2120       ?CancelDraggingToInsertCorner@CPolyLine@@QAEXH@Z 006c1120 f   PolyLine.obj
 0002:001a2290       ?StartDraggingToMoveCorner@CPolyLine@@QAEXPAVCDC@@HHHH@Z 006c1290 f   PolyLine.obj
 0002:001a29e0       ?CancelDraggingToMoveCorner@CPolyLine@@QAEXH@Z 006c19e0 f   PolyLine.obj
 0002:001a2be0       ?HighlightSide@CPolyLine@@QAEXHHH@Z 006c1be0 f   PolyLine.obj
 0002:001a3010       ?HighlightCorner@CPolyLine@@QAEPAVdl_element@@HH@Z 006c2010 f   PolyLine.obj
 0002:001a3170       ?GetX@CPolyLine@@QAEHH@Z   006c2170 f   PolyLine.obj
 0002:001a31d0       ?GetY@CPolyLine@@QAEHH@Z   006c21d0 f   PolyLine.obj
 0002:001a3230       ?GetHatchLoc@CPolyLine@@QAE?AUtagRECT@@H@Z 006c2230 f   PolyLine.obj
 0002:001a3420       ?GetHatchSize@CPolyLine@@QAEHXZ 006c2420 f   PolyLine.obj
 0002:001a3460       ?GetMerge@CPolyLine@@QAEHH@Z 006c2460 f   PolyLine.obj
 0002:001a34c0       ?Check@CPolyLine@@QAEPAVCText@@H@Z 006c24c0 f   PolyLine.obj
 0002:001a3540       ?GetLength@CPolyLine@@QAEHXZ 006c2540 f   PolyLine.obj
 0002:001a36e0       ?GetSel@CPolyLine@@QAEHXZ  006c26e0 f   PolyLine.obj
 0002:001a37e0       ?GetSelCount@CPolyLine@@QAEHXZ 006c27e0 f   PolyLine.obj
 0002:001a3890       ?GetSideSel@CPolyLine@@QAEHXZ 006c2890 f   PolyLine.obj
 0002:001a3950       ?GetSel@CPolyLine@@QAEHH@Z 006c2950 f   PolyLine.obj
 0002:001a3a00       ?GetSideSel@CPolyLine@@QAEHH@Z 006c2a00 f   PolyLine.obj
 0002:001a3ad0       ?UnSelVertices@CPolyLine@@QAEHXZ 006c2ad0 f   PolyLine.obj
 0002:001a3b90       ?SetMerge@CPolyLine@@QAEXHH@Z 006c2b90 f   PolyLine.obj
 0002:001a3bf0       ?SetSel@CPolyLine@@QAEXHH@Z 006c2bf0 f   PolyLine.obj
 0002:001a3c50       ?SetSideSel@CPolyLine@@QAEXHH@Z 006c2c50 f   PolyLine.obj
 0002:001a3cb0       ?GetNumContour@CPolyLine@@QAEHH@Z 006c2cb0 f   PolyLine.obj
 0002:001a3d10       ?GetVisible@CPolyLine@@QAEHXZ 006c2d10 f   PolyLine.obj
 0002:001a3d50       ?MakeVisible@CPolyLine@@QAEXH@Z 006c2d50 f   PolyLine.obj
 0002:001a3ef0       ?MakeVisible@CPolyLine@@QAEXHH@Z 006c2ef0 f   PolyLine.obj
 0002:001a4080       ?GetBounds@CPolyLine@@QAE?AUtagRECT@@XZ 006c3080 f   PolyLine.obj
 0002:001a4180       ?GetCornerBounds@CPolyLine@@QAE?AUtagRECT@@H@Z 006c3180 f   PolyLine.obj
 0002:001a4210       ?GetNumCorners@CPolyLine@@QAEHXZ 006c3210 f   PolyLine.obj
 0002:001a4250       ?GetNumArcs@CPolyLine@@QAEHXZ 006c3250 f   PolyLine.obj
 0002:001a42f0       ?GetNumSides@CPolyLine@@QAEHXZ 006c32f0 f   PolyLine.obj
 0002:001a4390       ?GetLayer@CPolyLine@@QAEHXZ 006c3390 f   PolyLine.obj
 0002:001a43d0       ?GetW@CPolyLine@@QAEHXZ    006c33d0 f   PolyLine.obj
 0002:001a4410       ?GetPicture@CPolyLine@@QAEHXZ 006c3410 f   PolyLine.obj
 0002:001a4450       ?GetSelBoxSize@CPolyLine@@QAEHXZ 006c3450 f   PolyLine.obj
 0002:001a4490       ?GetNumContours@CPolyLine@@QAEHXZ 006c3490 f   PolyLine.obj
 0002:001a4510       ?GetContour@CPolyLine@@QAEHH@Z 006c3510 f   PolyLine.obj
 0002:001a4570       ?GetContourStart@CPolyLine@@QAEHH@Z 006c3570 f   PolyLine.obj
 0002:001a45d0       ?GetContourEnd@CPolyLine@@QAEHH@Z 006c35d0 f   PolyLine.obj
 0002:001a4660       ?GetPrevCornerIndex@CPolyLine@@QAEHH@Z 006c3660 f   PolyLine.obj
 0002:001a47b0       ?GetNextCornerIndex@CPolyLine@@QAEHH@Z 006c37b0 f   PolyLine.obj
 0002:001a48c0       ?GetContourSize@CPolyLine@@QAEHH@Z 006c38c0 f   PolyLine.obj
 0002:001a4930       ?SetSideStyle@CPolyLine@@QAEXHHH@Z 006c3930 f   PolyLine.obj
 0002:001a4b30       ?GetSideStyle@CPolyLine@@QAEHH@Z 006c3b30 f   PolyLine.obj
 0002:001a4bb0       ?SetId@CPolyLine@@QAEXPAVid@@@Z 006c3bb0 f   PolyLine.obj
 0002:001a4e70       ?GetId@CPolyLine@@QAE?AVid@@XZ 006c3e70 f   PolyLine.obj
 0002:001a4ee0       ?GetClosed@CPolyLine@@QAEHXZ 006c3ee0 f   PolyLine.obj
 0002:001a4f90       ?TransparentHatch@CPolyLine@@QAEXH@Z 006c3f90 f   PolyLine.obj
 0002:001a5070       ?Show@CPolyLine@@QAEXXZ    006c4070 f   PolyLine.obj
 0002:001a50e0       ?Hide@CPolyLine@@QAEXXZ    006c40e0 f   PolyLine.obj
 0002:001a5170       ?Hatch@CPolyLine@@QAEXPAVdl_element@@@Z 006c4170 f   PolyLine.obj
 0002:001a6360       ?TestPointInside@CPolyLine@@QAEHHHH@Z 006c5360 f   PolyLine.obj
 0002:001a6b90       ?TestPointInsideContour@CPolyLine@@QAEHHH@Z 006c5b90 f   PolyLine.obj
 0002:001a6bf0       ?TestPolygonIntersection@CPolyLine@@QAEHHH@Z 006c5bf0 f   PolyLine.obj
 0002:001a7460       ?TestPolygonIntersection@CPolyLine@@QAEHPAV1@@Z 006c6460 f   PolyLine.obj
 0002:001a7c10       ?SetSelBoxSize@CPolyLine@@QAEXH@Z 006c6c10 f   PolyLine.obj
 0002:001a7c90       ?SetDisplayList@CPolyLine@@QAEXPAVCDisplayList@@@Z 006c6c90 f   PolyLine.obj
 0002:001a7d10       ?Copy@CPolyLine@@QAEXPAV1@HH@Z 006c6d10 f   PolyLine.obj
 0002:001a83d0       ?Replace@CPolyLine@@QAEXPAV1@H@Z 006c73d0 f   PolyLine.obj
 0002:001a8760       ?MoveOrigin@CPolyLine@@QAEXHH@Z 006c7760 f   PolyLine.obj
 0002:001a8910       ?SetX@CPolyLine@@QAEXHH@Z  006c7910 f   PolyLine.obj
 0002:001a8ad0       ?SetY@CPolyLine@@QAEXHH@Z  006c7ad0 f   PolyLine.obj
 0002:001a8c90       ?SetEndContour@CPolyLine@@QAEXHH@Z 006c7c90 f   PolyLine.obj
 0002:001a8d10       ?SetLayer@CPolyLine@@QAEXH@Z 006c7d10 f   PolyLine.obj
 0002:001a8d60       ?SetW@CPolyLine@@QAEXH@Z   006c7d60 f   PolyLine.obj
 0002:001a8dd0       ?SetVisible@CPolyLine@@QAEXH@Z 006c7dd0 f   PolyLine.obj
 0002:001a8e20       ?SetPicture@CPolyLine@@QAEXH@Z 006c7e20 f   PolyLine.obj
 0002:001a8e70       ?AppendArc@CPolyLine@@QAEXHHHHHHH@Z 006c7e70 f   PolyLine.obj
 0002:001a9080       ?ClipGpcPolygon@CPolyLine@@QAEXW4gpc_op@@PAV1@@Z 006c8080 f   PolyLine.obj
 0002:001a9170       ?Compare@CPolyLine@@QAEHPAV1@@Z 006c8170 f   PolyLine.obj
 0002:001a9480       ?ApproximateAllArcSides@CPolyLine@@QAEXXZ 006c8480 f   PolyLine.obj
 0002:001a9750       ?GetOpenscadPolyPts@CPolyLine@@QAE?AV?$CStringT@DV?$StrTraitMFC_DLL@DV?$ChTraitsCRT@D@ATL@@@@@ATL@@HHHPAV23@N@Z 006c8750 f   PolyLine.obj
 0002:001aa680       ?InsertAt@?$CArray@HABH@@QAEXHABHH@Z 006c9680 f i PolyLine.obj
 0002:001aa8e0       ?GetSize@?$CArray@VCPolyPt@@ABV1@@@QBEHXZ 006c98e0 f i PolyLine.obj
 0002:001aa920       ?RemoveAll@?$CArray@VCPolyPt@@ABV1@@@QAEXXZ 006c9920 f i PolyLine.obj
 0002:001aa980       ?InsertAt@?$CArray@VCPolyPt@@ABV1@@@QAEXHABVCPolyPt@@H@Z 006c9980 f i PolyLine.obj
 0002:001aac90       ?RemoveAt@?$CArray@VCPolyPt@@ABV1@@@QAEXHH@Z 006c9c90 f i PolyLine.obj
 0002:001aae40       ?GetSize@?$CArray@VCContourData@@ABV1@@@QBEHXZ 006c9e40 f i PolyLine.obj
 0002:001aae80       ?RemoveAll@?$CArray@VCContourData@@ABV1@@@QAEXXZ 006c9e80 f i PolyLine.obj
 0002:001aaee0       ??A?$CArray@VCContourData@@ABV1@@@QAEAAVCContourData@@H@Z 006c9ee0 f i PolyLine.obj
 0002:001aaf40       ?RemoveAll@?$CArray@PAVdl_element@@ABQAV1@@@QAEXXZ 006c9f40 f i PolyLine.obj
 0002:001aafa0       ?SetAtGrow@?$CArray@PAVdl_element@@ABQAV1@@@QAEXHABQAVdl_element@@@Z 006c9fa0 f i PolyLine.obj
 0002:001ab070       ?GetSize@?$CArray@VCArc@@ABV1@@@QBEHXZ 006ca070 f i PolyLine.obj
 0002:001ab0b0       ??A?$CArray@VCArc@@ABV1@@@QAEAAVCArc@@H@Z 006ca0b0 f i PolyLine.obj
 0002:001ab110       ?ElementAt@?$CArray@VCContourData@@ABV1@@@QAEAAVCContourData@@H@Z 006ca110 f i PolyLine.obj
 0002:001ab1c0       ?ElementAt@?$CArray@VCArc@@ABV1@@@QAEAAVCArc@@H@Z 006ca1c0 f i PolyLine.obj
 0002:001ab270       ?DirExists0@@YA_NPBD@Z     006ca270 f   QAFDebug.obj
 0002:001ab2f0       ?CreateSubFolders0@@YA_NPBD@Z 006ca2f0 f   QAFDebug.obj
 0002:001ab4b0       ??$strcpy@PAD@@YAPADAAPADPBD@Z 006ca4b0 f i QAFDebug.obj
 0002:001ab510       ___insecure_strcpy         006ca510 f i QAFDebug.obj
 0002:001ab570       ?strrchr@@YAPADPADH@Z      006ca570 f i QAFDebug.obj
 0002:001ab5d0       ?SHGetSpecialFolderPathCustom@@YAJPAUHWND__@@HPAXKPAD@Z 006ca5d0 f   QAFDebug.obj
 0002:001ab6f0       ?qafGetLogFileName@CQAFDebug@@KAKPADK@Z 006ca6f0 f   QAFDebug.obj
 0002:001ab780       ?tryEnable@QAFDebug@@YA_NXZ 006ca780 f   QAFDebug.obj
 0002:001ab7d0       ?tryEnable@CQAFDebug@@SA_NXZ 006ca7d0 f i QAFDebug.obj
 0002:001ab8d0       ??0CSync@@QAE@PAU_RTL_CRITICAL_SECTION@@W4CSOP@0@@Z 006ca8d0 f i QAFDebug.obj
 0002:001ab970       ??1CSync@@QAE@XZ           006ca970 f i QAFDebug.obj
 0002:001aba00       ?SetSharedFlag@CQAFDebug@@IAE_NK@Z 006caa00 f i QAFDebug.obj
 0002:001aba90       ?tryLock@CQAFDebug@@IAE_NXZ 006caa90 f i QAFDebug.obj
 0002:001abb00       ?unLock@CQAFDebug@@IAEXXZ  006cab00 f i QAFDebug.obj
 0002:001abb60       ?instance@CQAFDebug@@KAAAV1@XZ 006cab60 f i QAFDebug.obj
 0002:001abc30       ??0CQAFDebug@@QAE@XZ       006cac30 f i QAFDebug.obj
 0002:001abe70       ?ODS@@YAXPBD@Z             006cae70 f i QAFDebug.obj
 0002:001abed0       ?tryDisable@QAFDebug@@YA_NXZ 006caed0 f   QAFDebug.obj
 0002:001abf20       ?tryDisable@CQAFDebug@@SA_NXZ 006caf20 f i QAFDebug.obj
 0002:001ac020       ?OutputDebugStringEx@QAFDebug@@YAXPBDH00@Z 006cb020 f   QAFDebug.obj
 0002:001ac5c0       ?tryOpenLogFile@CQAFDebug@@SAPAXXZ 006cb5c0 f i QAFDebug.obj
 0002:001ac8c0       ?qafReportComError@QAFDebug@@YAJJPBDH@Z 006cb8c0 f   QAFDebug.obj
 0002:001aca70       ?SetLogDir@QAFDebug@@YAXPAV?$CStringT@DV?$StrTraitMFC_DLL@DV?$ChTraitsCRT@D@ATL@@@@@ATL@@@Z 006cba70 f   QAFDebug.obj
 0002:001acad0       ?GetLogDir@QAFDebug@@YAKPADK@Z 006cbad0 f   QAFDebug.obj
 0002:001acd10       ??1CQAFDebug@@QAE@XZ       006cbd10 f i QAFDebug.obj
 0002:001acea0       ?FindFootprintInFolder@@YAHPAVCFreePcbDoc@@PAV?$CStringT@DV?$StrTraitMFC_DLL@DV?$ChTraitsCRT@D@ATL@@@@@ATL@@11@Z 006cbea0 f   ReadFootprintFolder.obj
 0002:001adfb0       ?UsedAlienLibrary@@YAHPAVCFreePcbDoc@@@Z 006ccfb0 f   ReadFootprintFolder.obj
 0002:001ae010       ?FindFootprint@@YAHPAVCFreePcbDoc@@PAV?$CStringT@DV?$StrTraitMFC_DLL@DV?$ChTraitsCRT@D@ATL@@@@@ATL@@@Z 006cd010 f   ReadFootprintFolder.obj
 0002:001ae0e0       ?ClearFootprintNames@@YAXPAVCFreePcbDoc@@@Z 006cd0e0 f   ReadFootprintFolder.obj
 0002:001ae160       ?ReadFootprintFolder@@YAXPAVCFreePcbDoc@@PAV?$CStringT@DV?$StrTraitMFC_DLL@DV?$ChTraitsCRT@D@ATL@@@@@ATL@@PAV?$CArray@V?$CStringT@DV?$StrTraitMFC_DLL@DV?$ChTraitsCRT@D@ATL@@@@@ATL@@ABV12@@@@Z 006cd160 f   ReadFootprintFolder.obj
 0002:001aea30       ?ReadFootprintNames@@YAXPAVCFreePcbDoc@@PAV?$CStringT@DV?$StrTraitMFC_DLL@DV?$ChTraitsCRT@D@ATL@@@@@ATL@@1PAV?$CArray@V?$CStringT@DV?$StrTraitMFC_DLL@DV?$ChTraitsCRT@D@ATL@@@@@ATL@@ABV12@@@@Z 006cda30 f   ReadFootprintFolder.obj
 0002:001af9c0       ?_GetBaseClass@CDlgRFiles@@KGPAUCRuntimeClass@@XZ 006ce9c0 f   ReportFiles.obj
 0002:001afa10       ?GetThisClass@CDlgRFiles@@SGPAUCRuntimeClass@@XZ 006cea10 f   ReportFiles.obj
 0002:001afa50       ?GetRuntimeClass@CDlgRFiles@@UBEPAUCRuntimeClass@@XZ 006cea50 f   ReportFiles.obj
 0002:001afa90       ??0CDlgRFiles@@QAE@PAVCWnd@@@Z 006cea90 f   ReportFiles.obj
 0002:001afbd0       ??_ECDlgRFiles@@UAEPAXI@Z  006cebd0 f i ReportFiles.obj
 0002:001afbd0       ??_GCDlgRFiles@@UAEPAXI@Z  006cebd0 f i ReportFiles.obj
 0002:001afc40       ??1CDlgRFiles@@UAE@XZ      006cec40 f   ReportFiles.obj
 0002:001afd70       ?Ini@CDlgRFiles@@QAEXPAVCFreePcbDoc@@@Z 006ced70 f   ReportFiles.obj
 0002:001afdc0       ?DoDataExchange@CDlgRFiles@@MAEXPAVCDataExchange@@@Z 006cedc0 f   ReportFiles.obj
 0002:001b5be0       ?GetMessageMap@CDlgRFiles@@MBEPBUAFX_MSGMAP@@XZ 006d4be0 f   ReportFiles.obj
 0002:001b5c30       ?GetThisMessageMap@CDlgRFiles@@KGPBUAFX_MSGMAP@@XZ 006d4c30 f   ReportFiles.obj
 0002:001b5c70       ?GetNextRow@CDlgRFiles@@IAEHPAPAV?$CArray@V?$CStringT@DV?$StrTraitMFC_DLL@DV?$ChTraitsCRT@D@ATL@@@@@ATL@@ABV12@@@PAV?$CStringT@DV?$StrTraitMFC_DLL@DV?$ChTraitsCRT@D@ATL@@@@@ATL@@@Z 006d4c70 f   ReportFiles.obj
 0002:001b7080       ?PageInit@CDlgRFiles@@IAEMPAU_cpdf_doc@@@Z 006d6080 f   ReportFiles.obj
 0002:001b8380       ?SaveBomOptions@CDlgRFiles@@QAEXXZ 006d7380 f   ReportFiles.obj
 0002:001b8600       ?OnBnClickedIncl@CDlgRFiles@@QAEXXZ 006d7600 f   ReportFiles.obj
 0002:001b8670       ?OnBnClickedExcl@CDlgRFiles@@QAEXXZ 006d7670 f   ReportFiles.obj
 0002:001b86e0       ?DrawTextBox@CDlgRFiles@@IAEMPAU_cpdf_doc@@MMMMMMMMPAV?$CStringT@DV?$StrTraitMFC_DLL@DV?$ChTraitsCRT@D@ATL@@@@@ATL@@HH@Z 006d76e0 f   ReportFiles.obj
 0002:001b8dd0       ?ParseString@CDlgRFiles@@IAEPAVCText@@PAV2@MH@Z 006d7dd0 f   ReportFiles.obj
 0002:001b92f0       ?OnBnClickedBomEntireFile@CDlgRFiles@@QAEXXZ 006d82f0 f   ReportFiles.obj
 0002:001b9330       ?OnCtlColor@CDlgRFiles@@QAEPAUHBRUSH__@@PAVCDC@@PAVCWnd@@I@Z 006d8330 f   ReportFiles.obj
 0002:001b9510       ?EditColor@CDlgRFiles@@QAEXH@Z 006d8510 f   ReportFiles.obj
 0002:001b9740       ?OnBnClickedButtonLayer1@CDlgRFiles@@QAEXXZ 006d8740 f   ReportFiles.obj
 0002:001b97a0       ?OnBnClickedButtonLayer2@CDlgRFiles@@QAEXXZ 006d87a0 f   ReportFiles.obj
 0002:001b9800       ?OnBnClickedButtonLayer3@CDlgRFiles@@QAEXXZ 006d8800 f   ReportFiles.obj
 0002:001b9860       ?OnBnClickedButtonLayer4@CDlgRFiles@@QAEXXZ 006d8860 f   ReportFiles.obj
 0002:001b98c0       ?OnBnClickedButtonLayer5@CDlgRFiles@@QAEXXZ 006d88c0 f   ReportFiles.obj
 0002:001b9920       ?OnBnClickedButtonLayer6@CDlgRFiles@@QAEXXZ 006d8920 f   ReportFiles.obj
 0002:001b9980       ?OnBnClickedButtonLayer7@CDlgRFiles@@QAEXXZ 006d8980 f   ReportFiles.obj
 0002:001b99e0       ?SpawnAndRedirect@@YAPAXPBDPAPAX0@Z 006d89e0 f   RTcall.obj
 0002:001b9d30       ?RunConsoleProcess@@YAHPBDPAVCDlgLog@@@Z 006d8d30 f   RTcall.obj
 0002:001b9f00       ??$strcpy@$0EAA@@@YAPADAAY0EAA@DPBD@Z 006d8f00 f i RTcall.obj
 0002:001b9f70       ??0SMCharacter@@QAE@XZ     006d8f70 f   smcharacter.obj
 0002:001b9fc0       ??0SMCharacter@@QAE@PAV0@@Z 006d8fc0 f   smcharacter.obj
 0002:001ba0d0       ??1SMCharacter@@QAE@XZ     006d90d0 f   smcharacter.obj
 0002:001ba150       ?Read@SMCharacter@@QAEXPAU_iobuf@@@Z 006d9150 f   smcharacter.obj
 0002:001ba240       ?Write@SMCharacter@@QAEXPAU_iobuf@@@Z 006d9240 f   smcharacter.obj
 0002:001ba2e0       ?ReadOldStyle@SMCharacter@@QAEHPAU_iobuf@@@Z 006d92e0 f   smcharacter.obj
 0002:001ba590       ?GetFirstVertex@SMCharacter@@QAE?AW4CHARVERTEX_TYPE@1@AAUCharVertex@@AAH@Z 006d9590 f   smcharacter.obj
 0002:001ba620       ?GetNextVertex@SMCharacter@@QAE?AW4CHARVERTEX_TYPE@1@AAUCharVertex@@AAH@Z 006d9620 f   smcharacter.obj
 0002:001ba720       ??0SMFontUtil@@QAE@PAV?$CStringT@DV?$StrTraitMFC_DLL@DV?$ChTraitsCRT@D@ATL@@@@@ATL@@@Z 006d9720 f   smfontutil.obj
 0002:001ba8a0       ??0?$CTypedPtrArray@VCPtrArray@@PAVSMCharacter@@@@QAE@XZ 006d98a0 f i smfontutil.obj
 0002:001ba900       ??1?$CTypedPtrArray@VCPtrArray@@PAVSMCharacter@@@@UAE@XZ 006d9900 f i smfontutil.obj
 0002:001ba950       ??_G?$CTypedPtrArray@VCPtrArray@@PAVSMCharacter@@@@UAEPAXI@Z 006d9950 f i smfontutil.obj
 0002:001ba950       ??_E?$CTypedPtrArray@VCPtrArray@@PAVSMCharacter@@@@UAEPAXI@Z 006d9950 f i smfontutil.obj
 0002:001ba9c0       ??1SMFontUtil@@QAE@XZ      006d99c0 f   smfontutil.obj
 0002:001bab00       ??_GSMCharacter@@QAEPAXI@Z 006d9b00 f i smfontutil.obj
 0002:001bab70       ?LoadFontData@SMFontUtil@@IAEHXZ 006d9b70 f   smfontutil.obj
 0002:001baee0       ?LoadXlationData@SMFontUtil@@IAEHXZ 006d9ee0 f   smfontutil.obj
 0002:001bb2a0       ?SaveXlationData@SMFontUtil@@IAEXXZ 006da2a0 f   smfontutil.obj
 0002:001bb480       ?SaveFontData@SMFontUtil@@IAEXXZ 006da480 f   smfontutil.obj
 0002:001bb5d0       ?LoadOldStyleXlation@SMFontUtil@@IAEXXZ 006da5d0 f   smfontutil.obj
 0002:001bb9e0       ?LoadOldStyleFile@SMFontUtil@@IAEXXZ 006da9e0 f   smfontutil.obj
 0002:001bbd30       ?GetCharID@SMFontUtil@@QAEHEW4FONT_TYPE@@@Z 006dad30 f   smfontutil.obj
 0002:001bbdb0       ?DrawString@SMFontUtil@@QAEXPAVCDC@@VCPoint@@NNNW4FONT_TYPE@@V?$CStringT@DV?$StrTraitMFC_DLL@DV?$ChTraitsCRT@D@ATL@@@@@ATL@@@Z 006dadb0 f   smfontutil.obj
 0002:001bc1d0       ?GetCharStrokes@SMFontUtil@@QAEHDW4FONT_TYPE@@PAN111QAY03NH@Z 006db1d0 f   smfontutil.obj
 0002:001bc5c0       ?GetCharacter@SMFontUtil@@QAEPAVSMCharacter@@H@Z 006db5c0 f i smfontutil.obj
 0002:001bc620       ?Add@?$CTypedPtrArray@VCPtrArray@@PAVSMCharacter@@@@QAEHPAVSMCharacter@@@Z 006db620 f i smfontutil.obj
 0002:001bc680       ??A?$CTypedPtrArray@VCPtrArray@@PAVSMCharacter@@@@QAEAAPAVSMCharacter@@H@Z 006db680 f i smfontutil.obj
 0002:001bc6e0       ?ClearSpeedFiles@@YAXPAVCFreePcbDoc@@@Z 006db6e0 f   SpeedFiles.obj
 0002:001bc8b0       ?LoadSpeedFiles@@YAXPAVCFreePcbDoc@@@Z 006db8b0 f   SpeedFiles.obj
 0002:001be2f0       ?OnGroupGridMagnetize@@YAXPAVCFreePcbDoc@@@Z 006dd2f0 f   SpeedFiles.obj
 0002:001bf290       ?OnGroupVtxMagnetize@@YAXPAVCFreePcbDoc@@@Z 006de290 f   SpeedFiles.obj
 0002:001bfb40       ?OnPolylineUpdatePcbView@@YAHPAVCFreePcbDoc@@HPAV?$CStringT@DV?$StrTraitMFC_DLL@DV?$ChTraitsCRT@D@ATL@@@@@ATL@@H@Z 006deb40 f   SpeedFiles.obj
 0002:001c2760       ?AddGraphicSize@@YAXPAVCFreePcbDoc@@V?$CStringT@DV?$StrTraitMFC_DLL@DV?$ChTraitsCRT@D@ATL@@@@@ATL@@@Z 006e1760 f   SpeedFiles.obj
 0002:001c5380       ?GetStandartNode@@YAHPAVCFreePcbDoc@@H@Z 006e4380 f   SpeedFiles.obj
 0002:001c5450       ?Add@?$CArray@VCPoint@@ABV1@@@QAEHABVCPoint@@@Z 006e4450 f i SpeedFiles.obj
 0002:001c54c0       ?SetAtGrow@?$CArray@VCPoint@@ABV1@@@QAEXHABVCPoint@@@Z 006e44c0 f i SpeedFiles.obj
 0002:001c5590       ?_AfxInitManaged@@YAHXZ    006e4590 f i StdAfx.obj
 0002:001c55c0       ??_Estringdispid@CComTypeInfoHolder@ATL@@QAEPAXI@Z 006e45c0 f i StdAfx.obj
 0002:001c5680       ??1stringdispid@CComTypeInfoHolder@ATL@@QAE@XZ 006e4680 f i StdAfx.obj
 0002:001c56d0       ??1CComBSTR@ATL@@QAE@XZ    006e46d0 f i StdAfx.obj
 0002:001c5730       ??0Thank_you@Define_the_symbol__ATL_MIXED@@QAE@XZ 006e4730 f i StdAfx.obj
 0002:001c5780       ?one@Thank_you@Define_the_symbol__ATL_MIXED@@UAEXXZ 006e4780 f i StdAfx.obj
 0002:001c57c0       ?CopyTagPointers@TagTable@@AAEXHH@Z 006e47c0 f   TagTable.obj
 0002:001c6600       ?MakeReport@TagTable@@QAEXPAVCFreePcbDoc@@@Z 006e5600 f   TagTable.obj
 0002:001c9c20       ?PushRows@TagTable@@AAEHHHH@Z 006e8c20 f   TagTable.obj
 0002:001ca360       ?ReadParamsFromTagFile@TagTable@@AAEHXZ 006e9360 f   TagTable.obj
 0002:001cbd50       ?GetBomRepeats@TagTable@@QAEHPAV?$CStringT@DV?$StrTraitMFC_DLL@DV?$ChTraitsCRT@D@ATL@@@@@ATL@@000H@Z 006ead50 f   TagTable.obj
 0002:001cc450       ?LoadPartlistFromString@TagTable@@QAEHPAV?$CStringT@DV?$StrTraitMFC_DLL@DV?$ChTraitsCRT@D@ATL@@@@@ATL@@@Z 006eb450 f   TagTable.obj
 0002:001cc7e0       ?GetPartID@TagTable@@AAEHPAV?$CStringT@DV?$StrTraitMFC_DLL@DV?$ChTraitsCRT@D@ATL@@@@@ATL@@@Z 006eb7e0 f   TagTable.obj
 0002:001ccc70       ?FindNextPart@TagTable@@QAEHPAV?$CStringT@DV?$StrTraitMFC_DLL@DV?$ChTraitsCRT@D@ATL@@@@@ATL@@00HPAH@Z 006ebc70 f   TagTable.obj
 0002:001cdda0       ?AddObject@TagTable@@AAEHHHPAV?$CStringT@DV?$StrTraitMFC_DLL@DV?$ChTraitsCRT@D@ATL@@@@@ATL@@00H@Z 006ecda0 f   TagTable.obj
 0002:001cf490       ?LineTest@TagTable@@AAEHHH@Z 006ee490 f   TagTable.obj
 0002:001cf6f0       ?RemoveEmptyRows@TagTable@@AAEXXZ 006ee6f0 f   TagTable.obj
 0002:001cfcc0       ?PushBack@TagTable@@AAEHHH@Z 006eecc0 f   TagTable.obj
 0002:001cfd70       ?RedrawNumbers@TagTable@@AAEHXZ 006eed70 f   TagTable.obj
 0002:001cffe0       ?ParseString@TagTable@@AAEPAVCText@@PAV2@H@Z 006eefe0 f   TagTable.obj
 0002:001d04f0       ?AddPString@TagTable@@AAEHPAVCText@@HHH@Z 006ef4f0 f   TagTable.obj
 0002:001d0730       ??0CText@@QAE@PAVCTextList@@HHHHHHPAV?$CStringT@DV?$StrTraitMFC_DLL@DV?$ChTraitsCRT@D@ATL@@@@@ATL@@@Z 006ef730 f   TextList.obj
 0002:001d0920       ??1CText@@QAE@XZ           006ef920 f   TextList.obj
 0002:001d09d0       ?MakeVisible@CText@@QAEXXZ 006ef9d0 f   TextList.obj
 0002:001d0a50       ?InVisible@CText@@QAEXXZ   006efa50 f   TextList.obj
 0002:001d0ac0       ?GetTextHeight@CText@@QAE?AVCSize@@PAVSMFontUtil@@@Z 006efac0 f   TextList.obj
 0002:001d0c90       ?Draw@CText@@QAEXPAVCDisplayList@@PAVSMFontUtil@@HPAV?$CArray@VCPoint@@ABV1@@@@Z 006efc90 f   TextList.obj
 0002:001d2330       ?Undraw@CText@@QAEXXZ      006f1330 f   TextList.obj
 0002:001d2410       ??0CTextList@@QAE@XZ       006f1410 f   TextList.obj
 0002:001d2480       ??0CTextList@@QAE@PAVCDisplayList@@PAVSMFontUtil@@@Z 006f1480 f   TextList.obj
 0002:001d24f0       ??1CTextList@@QAE@XZ       006f14f0 f   TextList.obj
 0002:001d2620       ??_GCText@@QAEPAXI@Z       006f1620 f i TextList.obj
 0002:001d2690       ?AddText@CTextList@@QAEPAVCText@@HHHHHHHPAV?$CStringT@DV?$StrTraitMFC_DLL@DV?$ChTraitsCRT@D@ATL@@@@@ATL@@HH@Z 006f1690 f   TextList.obj
 0002:001d2850       ?GetSelCount@CTextList@@QAEHPAV?$CArray@VCPolyLine@@ABV1@@@@Z 006f1850 f   TextList.obj
 0002:001d2990       ?IsCommand@CTextList@@QAEHPAVCText@@@Z 006f1990 f   TextList.obj
 0002:001d2ec0       ?RemoveText@CTextList@@QAEHPAVCText@@@Z 006f1ec0 f   TextList.obj
 0002:001d2f70       ?RemoveText@CTextList@@QAEHH@Z 006f1f70 f   TextList.obj
 0002:001d3050       ?RemoveAllTexts@CTextList@@QAEXXZ 006f2050 f   TextList.obj
 0002:001d3140       ?HighlightText@CTextList@@QAEXPAVCText@@H@Z 006f2140 f   TextList.obj
 0002:001d31d0       ?StartDraggingText@CTextList@@QAEXPAVCDC@@PAVCText@@@Z 006f21d0 f   TextList.obj
 0002:001d3350       ?CancelDraggingText@CTextList@@QAEXPAVCText@@@Z 006f2350 f   TextList.obj
 0002:001d33e0       ?MoveText@CTextList@@QAEXPAVCText@@HHHH@Z 006f23e0 f   TextList.obj
 0002:001d3490       ?CreateUndoRecord@CTextList@@QAEPAUundo_text@@PAVCText@@@Z 006f2490 f   TextList.obj
 0002:001d3640       ??0undo_text@@QAE@XZ       006f2640 f i TextList.obj
 0002:001d36b0       ?TextUndoCallback@CTextList@@SAXPAXH@Z 006f26b0 f   TextList.obj
 0002:001d3da0       ??_Gundo_text@@QAEPAXI@Z   006f2da0 f i TextList.obj
 0002:001d3e10       ??1undo_text@@QAE@XZ       006f2e10 f i TextList.obj
 0002:001d3e70       ?MoveOrigin@CTextList@@QAEXHH@Z 006f2e70 f   TextList.obj
 0002:001d3fe0       ?MarkAllTexts@CTextList@@QAEXH@Z 006f2fe0 f   TextList.obj
 0002:001d4080       ?GetText@CTextList@@QAEPAVCText@@PAU_GUID@@@Z 006f3080 f   TextList.obj
 0002:001d4130       _==                        006f3130 f i TextList.obj
 0002:001d4190       _IsEqualGUID               006f3190 f i TextList.obj
 0002:001d41f0       ?GetText@CTextList@@QAEPAVCText@@HH@Z 006f31f0 f   TextList.obj
 0002:001d42d0       ?GetText@CTextList@@QAEPAVCText@@PAV?$CStringT@DV?$StrTraitMFC_DLL@DV?$ChTraitsCRT@D@ATL@@@@@ATL@@PAH@Z 006f32d0 f   TextList.obj
 0002:001d4810       ?CancelSelection@CTextList@@QAEXXZ 006f3810 f   TextList.obj
 0002:001d48a0       ?TimeUpdate@CTextList@@QAEXPAVCText@@@Z 006f38a0 f   TextList.obj
 0002:001d6030       ?GetNextText@CTextList@@QAEPAVCText@@PAH@Z 006f5030 f   TextList.obj
 0002:001d6160       ?GetNextAnyText@CTextList@@QAEPAVCText@@PAH@Z 006f5160 f   TextList.obj
 0002:001d6270       ?GetNextInvisibleText@CTextList@@QAEPAVCText@@PAH@Z 006f5270 f   TextList.obj
 0002:001d6340       ?GetNumDifferentTexts@CTextList@@QAEHH@Z 006f5340 f   TextList.obj
 0002:001d65d0       ?GetTextBoundaries@CTextList@@QAEHPAUtagRECT@@@Z 006f55d0 f   TextList.obj
 0002:001d6b00       ?GetTextRectOnPCB@CTextList@@QAEHPAVCText@@PAUtagRECT@@@Z 006f5b00 f   TextList.obj
 0002:001d6c00       ?ReassignALayers@CTextList@@QAEXHPAH@Z 006f5c00 f   TextList.obj
 0002:001d6d60       ?SetAt@?$CArray@VCPoint@@ABV1@@@QAEXHABVCPoint@@@Z 006f5d60 f i TextList.obj
 0002:001d6e20       ??0CUndoList@@QAE@HH@Z     006f5e20 f   UndoList.obj
 0002:001d6ed0       ??1CUndoList@@QAE@XZ       006f5ed0 f   UndoList.obj
 0002:001d6f20       ?Clear@CUndoList@@QAEXXZ   006f5f20 f   UndoList.obj
 0002:001d6f80       ?DropFirstEvent@CUndoList@@QAEXXZ 006f5f80 f   UndoList.obj
 0002:001d70d0       ?Push@CUndoList@@QAEXPAXP6AX0H@ZH@Z 006f60d0 f   UndoList.obj
 0002:001d71d0       ?Pop@CUndoList@@QAEHXZ     006f61d0 f   UndoList.obj
 0002:001d7360       ?NewEvent@CUndoList@@QAEXXZ 006f6360 f   UndoList.obj
 0002:001d7400       ?PCB_lay@@YAHH@Z           006f6400 f   utility.obj
 0002:001d74b0       ?Get_fp_Side@@YAHH@Z       006f64b0 f   utility.obj
 0002:001d7530       ?GetInflectionPoint@@YA?AVCPoint@@V1@0H@Z 006f6530 f   utility.obj
 0002:001d7810       ?RotatePoint@@YAXPAVCPoint@@MV1@@Z 006f6810 f   utility.obj
 0002:001d7950       ?RotatePOINTS@@YAXPAVCPoint@@HMV1@@Z 006f6950 f   utility.obj
 0002:001d7ac0       ?Angle@@YAMVCPoint@@00@Z   006f6ac0 f   utility.obj
 0002:001d7bc0       ?FindArcElements@@YAHPAVCPolyLine@@PAH1@Z 006f6bc0 f   utility.obj
 0002:001d8180       ?Check_45@@YAHVCPoint@@0@Z 006f7180 f   utility.obj
 0002:001d8280       ?Check_90@@YAHVCPoint@@0@Z 006f7280 f   utility.obj
 0002:001d8380       ?Check_45@@YAHVCPoint@@00@Z 006f7380 f   utility.obj
 0002:001d83b0       ?Check_90@@YAHVCPoint@@00@Z 006f73b0 f   utility.obj
 0002:001d83e0       ?Angle@@YAMMMMMH@Z         006f73e0 f   utility.obj
 0002:001d8570       ?Rotate_i_Vertex@@YAXPAH0HHH@Z 006f7570 f   utility.obj
 0002:001d8680       ?Rotate_Vertex@@YAXPAN0N@Z 006f7680 f   utility.obj
 0002:001d8890       ?Colinear@@YAHHHHHHH@Z     006f7890 f   utility.obj
 0002:001d8ba0       ?RemoveColinearSegments@@YAHPAV?$CArray@VCPolyLine@@ABV1@@@@Z 006f7ba0 f   utility.obj
 0002:001d8fa0       ?AlignPoints@@YA?AVCPoint@@V1@00HM@Z 006f7fa0 f   utility.obj
 0002:001d9cf0       ?TripplePointArc@@YAHHHHHHHPAVCPoint@@H@Z 006f8cf0 f   utility.obj
 0002:001d9f20       ?Gen_HollowLinePoly@@YAHHHHHHPAVCPoint@@H@Z 006f8f20 f   utility.obj
 0002:001da2a0       ?cos@@YAMM@Z               006f92a0 f i utility.obj
 0002:001da300       _cosf                      006f9300 f i utility.obj
 0002:001da370       ?sin@@YAMM@Z               006f9370 f i utility.obj
 0002:001da3d0       _sinf                      006f93d0 f i utility.obj
 0002:001da440       ?Gen_RndRectPoly@@YAHHHHHMMPAVCPoint@@H@Z 006f9440 f   utility.obj
 0002:001dab30       ?Generate_Dotted@@YAHHHHHPAVCPoint@@H@Z 006f9b30 f   utility.obj
 0002:001dac40       ?Generate_Arc@@YAHHHHHHPAVCPoint@@H@Z 006f9c40 f   utility.obj
 0002:001db140       ?Rnd_Func@@YAHMMMMMMMMPAMH@Z 006fa140 f   utility.obj
 0002:001dbb20       ?MirrorRect@@YAXPAUtagRECT@@VCPoint@@@Z 006fab20 f   utility.obj
 0002:001dbbb0       ?RotateRect@@YAXPAH000HHH@Z 006fabb0 f   utility.obj
 0002:001dbcd0       ?RotateRect@@YAXPAUtagRECT@@HVCPoint@@@Z 006facd0 f   utility.obj
 0002:001dc020       ?RectsIntersection@@YAHUtagRECT@@0@Z 006fb020 f   utility.obj
 0002:001dc130       ?SwellRect@@YAXPAUtagRECT@@H@Z 006fb130 f   utility.obj
 0002:001dc1b0       ?SwellRect@@YAXPAUtagRECT@@U1@@Z 006fb1b0 f   utility.obj
 0002:001dc300       ?SwellRect@@YAXPAUtagRECT@@VCPoint@@@Z 006fb300 f   utility.obj
 0002:001dc410       ?SwellRect@@YAXPAUtagRECT@@HH@Z 006fb410 f   utility.obj
 0002:001dc520       ?MoveRect@@YAXPAUtagRECT@@HH@Z 006fb520 f   utility.obj
 0002:001dc5a0       ?rect@@YA?AUtagRECT@@HHHH@Z 006fb5a0 f   utility.obj
 0002:001dc700       ?SwellPolygon@@YAHPAVCPoint@@H0H@Z 006fb700 f   utility.obj
 0002:001dd250       ?TestPolygon@@YAHHHPAVCPoint@@HPAH@Z 006fc250 f   utility.obj
 0002:001dd6b0       ?TestLineHit@@YAHHHHHHHN@Z 006fc6b0 f   utility.obj
 0002:001dd9f0       ?ReadFontFile@@YAHPAD@Z    006fc9f0 f   utility.obj
 0002:001dda20       ?mystrtok@@YAPADPBD0@Z     006fca20 f   utility.obj
 0002:001ddbb0       ?GetDimensionFromString@@YANPAV?$CStringT@DV?$StrTraitMFC_DLL@DV?$ChTraitsCRT@D@ATL@@@@@ATL@@HH@Z 006fcbb0 f   utility.obj
 0002:001dded0       ?MakeCStringFromDimension@@YAXNPAV?$CStringT@DV?$StrTraitMFC_DLL@DV?$ChTraitsCRT@D@ATL@@@@@ATL@@HHHHHHH@Z 006fced0 f   utility.obj
 0002:001de780       ?MakeCStringFromDouble@@YAXPAV?$CStringT@DV?$StrTraitMFC_DLL@DV?$ChTraitsCRT@D@ATL@@@@@ATL@@N@Z 006fd780 f   utility.obj
 0002:001dea80       ?ParsePin@@YAHPAV?$CStringT@DV?$StrTraitMFC_DLL@DV?$ChTraitsCRT@D@ATL@@@@@ATL@@0@Z 006fda80 f   utility.obj
 0002:001dece0       ?ParseMultiPin@@YAHPAV?$CStringT@DV?$StrTraitMFC_DLL@DV?$ChTraitsCRT@D@ATL@@@@@ATL@@PAV?$CArray@V?$CStringT@DV?$StrTraitMFC_DLL@DV?$ChTraitsCRT@D@ATL@@@@@ATL@@ABV12@@@@Z 006fdce0 f   utility.obj
 0002:001df570       ?ParseRef@@YAHPAV?$CStringT@DV?$StrTraitMFC_DLL@DV?$ChTraitsCRT@D@ATL@@@@@ATL@@00@Z 006fe570 f   utility.obj
 0002:001dfa40       ?GetRightNumber@@YAHPAV?$CStringT@DV?$StrTraitMFC_DLL@DV?$ChTraitsCRT@D@ATL@@@@@ATL@@00PAH@Z 006fea40 f   utility.obj
 0002:001dfe80       ?CheckLegalPinName@@YAHPAV?$CStringT@DV?$StrTraitMFC_DLL@DV?$ChTraitsCRT@D@ATL@@@@@ATL@@00PAH@Z 006fee80 f   utility.obj
 0002:001e0540       ?FindLineIntersection@@YAHNNNNPAN0@Z 006ff540 f   utility.obj
 0002:001e05a0       ?FindLineIntersection@@YAHNNNNNNNNPAN0@Z 006ff5a0 f   utility.obj
 0002:001e0710       ?MakeEllipseFromArc@@YAHHHHHHPAUEllipseTag@@@Z 006ff710 f   utility.obj
 0002:001e0920       ?FindSegmentIntersections@@YAHHHHHHHHHHHQAN0@Z 006ff920 f   utility.obj
 0002:001e14f0       ?FindLineSegmentIntersection@@YAHNNHHHHHPAN0000@Z 007004f0 f   utility.obj
 0002:001e2300       ?TestForIntersectionOfStraightLineSegments@@YAHHHHHHHHHPAH0PAN@Z 00701300 f   utility.obj
 0002:001e30b0       ?DunselFunction@@YAXXZ     007020b0 f   utility.obj
 0002:001e30e0       ?CalibrateTimer@@YAXXZ     007020e0 f   utility.obj
 0002:001e31d0       ?StartTimer@@YAXXZ         007021d0 f   utility.obj
 0002:001e3250       ?GetElapsedTime@@YANXZ     00702250 f   utility.obj
 0002:001e3460       _Int64ShrlMod32@12         00702460 f i utility.obj
 0002:001e34c0       ?quickSort@@YAXQAH0H@Z     007024c0 f   utility.obj
 0002:001e3520       ?q_sort@@YAXQAH0HH@Z       00702520 f   utility.obj
 0002:001e3710       ?q_sort_3way@@YAXQAH0HH@Z  00702710 f   utility.obj
 0002:001e3b90       ?ccw@@YAHH@Z               00702b90 f   utility.obj
 0002:001e3be0       ?t_octant@@YA?AVCPoint@@HAAV1@@Z 00702be0 f   utility.obj
 0002:001e3eb0       ?Quadratic@@YAHNNNPAN0@Z   00702eb0 f   utility.obj
 0002:001e3f80       ?FindVerticalLineEllipseIntersections@@YAHNNNPAN0@Z 00702f80 f   utility.obj
 0002:001e4030       ?FindLineEllipseIntersections@@YAHNNNNPAN0@Z 00703030 f   utility.obj
 0002:001e40f0       ?DrawArc@@YAXPAVCDC@@HHHHHH@Z 007030f0 f   utility.obj
 0002:001e4550       ?DrawCurve@@YAXPAVCDC@@HHHHHH@Z 00703550 f   utility.obj
 0002:001e5250       ?GetClearanceBetweenSegments@@YAHHHHHHHHHHHHHHPAH0@Z 00704250 f   utility.obj
 0002:001e6190       ?GetPointToLineDistance@@YANNNHHPAN0@Z 00705190 f   utility.obj
 0002:001e62c0       ?GetPointToLineSegmentDistance@@YANHHHHHH@Z 007052c0 f   utility.obj
 0002:001e6730       ?InRange@@YAHNNN@Z         00705730 f   utility.obj
 0002:001e67d0       ?Distance@@YANHHHHH@Z      007057d0 f   utility.obj
 0002:001e6aa0       ?GetArcIntersections@@YAHPAUEllipseTag@@0PAN111@Z 00705aa0 f   utility.obj
 0002:001e7110       ?GetArcClearance@@YANPAUEllipseTag@@0PAN1@Z 00706110 f   utility.obj
 0002:001e7950       ?SetGuidFromString@@YAXPAV?$CStringT@DV?$StrTraitMFC_DLL@DV?$ChTraitsCRT@D@ATL@@@@@ATL@@PAU_GUID@@@Z 00706950 f   utility.obj
 0002:001e7a30       ?GetStringFromGuid@@YAXPAU_GUID@@PAV?$CStringT@DV?$StrTraitMFC_DLL@DV?$ChTraitsCRT@D@ATL@@@@@ATL@@@Z 00706a30 f   utility.obj
 0002:001e7b10       ?SplitString@@YAHPAV?$CStringT@DV?$StrTraitMFC_DLL@DV?$ChTraitsCRT@D@ATL@@@@@ATL@@00DH@Z 00706b10 f   utility.obj
 0002:001e7e40       ?GetReportedAngleForPart@@YAHHHH@Z 00706e40 f   utility.obj
 0002:001e7ed0       ?GetPartAngleForReportedAngle@@YAHHHH@Z 00706ed0 f   utility.obj
 0002:001e7f60       ?sign@@YAHH@Z              00706f60 f   utility.obj
 0002:001e7fb0       ?ex_float@@YAMPAV?$CStringT@DV?$StrTraitMFC_DLL@DV?$ChTraitsCRT@D@ATL@@@@@ATL@@@Z 00706fb0 f   utility.obj
 0002:001e82b0       ?GenNextSuffix@@YA?AV?$CStringT@DV?$StrTraitMFC_DLL@DV?$ChTraitsCRT@D@ATL@@@@@ATL@@PAV12@@Z 007072b0 f   utility.obj
 0002:001e8580       ?ExtractComponentName@@YAXPAV?$CStringT@DV?$StrTraitMFC_DLL@DV?$ChTraitsCRT@D@ATL@@@@@ATL@@0@Z 00707580 f   utility.obj
 0002:001e8710       ?GetPartPin@@YAPAVCText@@PAV?$CArray@VCPolyLine@@ABV1@@@PAV1@PAV?$CStringT@DV?$StrTraitMFC_DLL@DV?$ChTraitsCRT@D@ATL@@@@@ATL@@@Z 00707710 f   utility.obj
 0002:001e8810       ?ReplaceCharsForURL@@YAXPAV?$CStringT@DV?$StrTraitMFC_DLL@DV?$ChTraitsCRT@D@ATL@@@@@ATL@@@Z 00707810 f   utility.obj
 0002:001e8920       ?AnsiToUtf8@@YA?AV?$CStringT@DV?$StrTraitMFC_DLL@DV?$ChTraitsCRT@D@ATL@@@@@ATL@@PAV12@@Z 00707920 f   utility.obj
 0002:001e8bf0       ?SelectAdjacent@@YAHPAV?$CArray@VCPolyLine@@ABV1@@@@Z 00707bf0 f   utility.obj
 0002:001e91b0       ?SameFiles@@YAHPAV?$CStringT@DV?$StrTraitMFC_DLL@DV?$ChTraitsCRT@D@ATL@@@@@ATL@@0@Z 007081b0 f   utility.obj
 0002:001e95d0       ??_D?$basic_ifstream@DU?$char_traits@D@std@@@std@@QAEXXZ 007085d0 f i utility.obj
 0002:001e9640       ??HATL@@YA?AV?$CStringT@DV?$StrTraitMFC_DLL@DV?$ChTraitsCRT@D@ATL@@@@@0@ABV10@D@Z 00708640 f i utility.obj
 0002:001e9800       ??0?$basic_ifstream@DU?$char_traits@D@std@@@std@@QAE@XZ 00708800 f i utility.obj
 0002:001e9940       ??1?$basic_ifstream@DU?$char_traits@D@std@@@std@@UAE@XZ 00708940 f i utility.obj
 0002:001e9a10       ?open@?$basic_ifstream@DU?$char_traits@D@std@@@std@@QAEXPBDHH@Z 00708a10 f i utility.obj
 0002:001e9ad0       ?close@?$basic_ifstream@DU?$char_traits@D@std@@@std@@QAEXXZ 00708ad0 f i utility.obj
 0002:001e9b50       ??1?$basic_filebuf@DU?$char_traits@D@std@@@std@@UAE@XZ 00708b50 f i utility.obj
 0002:001e9c30       ?_Lock@?$basic_filebuf@DU?$char_traits@D@std@@@std@@UAEXXZ 00708c30 f i utility.obj
 0002:001e9ca0       ?_Unlock@?$basic_filebuf@DU?$char_traits@D@std@@@std@@UAEXXZ 00708ca0 f i utility.obj
 0002:001e9d10       ?overflow@?$basic_filebuf@DU?$char_traits@D@std@@@std@@MAEHH@Z 00708d10 f i utility.obj
 0002:001ea3a0       ?to_char_type@?$char_traits@D@std@@SADABH@Z 007093a0 f i utility.obj
 0002:001ea3e0       ?eq_int_type@?$char_traits@D@std@@SA_NABH0@Z 007093e0 f i utility.obj
 0002:001ea430       ?not_eof@?$char_traits@D@std@@SAHABH@Z 00709430 f i utility.obj
 0002:001ea4b0       ?eof@?$char_traits@D@std@@SAHXZ 007094b0 f i utility.obj
 0002:001ea4f0       ??$_Fputc@D@std@@YA_NDPAU_iobuf@@@Z 007094f0 f i utility.obj
 0002:001ea560       ??1?$basic_string@DU?$char_traits@D@std@@V?$allocator@D@2@@std@@QAE@XZ 00709560 f i utility.obj
 0002:001ea610       ?pbackfail@?$basic_filebuf@DU?$char_traits@D@std@@@std@@MAEHH@Z 00709610 f i utility.obj
 0002:001ea850       ?to_int_type@?$char_traits@D@std@@SAHABD@Z 00709850 f i utility.obj
 0002:001ea890       ??$_Ungetc@D@std@@YA_NABDPAU_iobuf@@@Z 00709890 f i utility.obj
 0002:001ea900       ?underflow@?$basic_filebuf@DU?$char_traits@D@std@@@std@@MAEHXZ 00709900 f i utility.obj
 0002:001eaa70       ?uflow@?$basic_filebuf@DU?$char_traits@D@std@@@std@@MAEHXZ 00709a70 f i utility.obj
 0002:001eb0a0       ??$_Fgetc@D@std@@YA_NAADPAU_iobuf@@@Z 0070a0a0 f i utility.obj
 0002:001eb120       ?seekoff@?$basic_filebuf@DU?$char_traits@D@std@@@std@@MAE?AV?$fpos@H@2@_JHH@Z 0070a120 f i utility.obj
 0002:001eb2d0       ?seekpos@?$basic_filebuf@DU?$char_traits@D@std@@@std@@MAE?AV?$fpos@H@2@V32@H@Z 0070a2d0 f i utility.obj
 0002:001eb4a0       ?setbuf@?$basic_filebuf@DU?$char_traits@D@std@@@std@@MAEPAV?$basic_streambuf@DU?$char_traits@D@std@@@2@PAD_J@Z 0070a4a0 f i utility.obj
 0002:001eb580       ?sync@?$basic_filebuf@DU?$char_traits@D@std@@@std@@MAEHXZ 0070a580 f i utility.obj
 0002:001eb680       ?imbue@?$basic_filebuf@DU?$char_traits@D@std@@@std@@MAEXABVlocale@2@@Z 0070a680 f i utility.obj
 0002:001eb6f0       ??_G?$basic_ifstream@DU?$char_traits@D@std@@@std@@UAEPAXI@Z 0070a6f0 f i utility.obj
 0002:001eb6f0       ??_E?$basic_ifstream@DU?$char_traits@D@std@@@std@@UAEPAXI@Z 0070a6f0 f i utility.obj
 0002:001eb770       ??_E?$basic_filebuf@DU?$char_traits@D@std@@@std@@UAEPAXI@Z 0070a770 f i utility.obj
 0002:001eb770       ??_G?$basic_filebuf@DU?$char_traits@D@std@@@std@@UAEPAXI@Z 0070a770 f i utility.obj
 0002:001eb7e0       ??1?$_String_iterator@DU?$char_traits@D@std@@V?$allocator@D@2@@std@@QAE@XZ 0070a7e0 f i utility.obj
 0002:001eb830       ??1?$_String_const_iterator@DU?$char_traits@D@std@@V?$allocator@D@2@@std@@QAE@XZ 0070a830 f i utility.obj
 0002:001eb880       ??1?$_Iterator012@Urandom_access_iterator_tag@std@@DHPBDABDU_Iterator_base12@2@@std@@QAE@XZ 0070a880 f i utility.obj
 0002:001eb8d0       ??1_Iterator_base12@std@@QAE@XZ 0070a8d0 f i utility.obj
 0002:001eb9d0       ?_Orphan_me@_Iterator_base12@std@@QAEXXZ 0070a9d0 f i utility.obj
 0002:001ebaa0       ??0?$basic_string@DU?$char_traits@D@std@@V?$allocator@D@2@@std@@QAE@XZ 0070aaa0 f i utility.obj
 0002:001ebb60       ??0?$basic_string@DU?$char_traits@D@std@@V?$allocator@D@2@@std@@QAE@ID@Z 0070ab60 f i utility.obj
 0002:001ebc30       ?append@?$basic_string@DU?$char_traits@D@std@@V?$allocator@D@2@@std@@QAEAAV12@ID@Z 0070ac30 f i utility.obj
 0002:001ebd00       ?erase@?$basic_string@DU?$char_traits@D@std@@V?$allocator@D@2@@std@@QAEAAV12@II@Z 0070ad00 f i utility.obj
 0002:001ebdf0       ?move@?$char_traits@D@std@@SAPADPADPBDI@Z 0070adf0 f i utility.obj
 0002:001ebe60       ?begin@?$basic_string@DU?$char_traits@D@std@@V?$allocator@D@2@@std@@QAE?AV?$_String_iterator@DU?$char_traits@D@std@@V?$allocator@D@2@@2@XZ 0070ae60 f i utility.obj
 0002:001ebef0       ?size@?$basic_string@DU?$char_traits@D@std@@V?$allocator@D@2@@std@@QBEIXZ 0070aef0 f i utility.obj
 0002:001ebf30       ?_Tidy@?$basic_string@DU?$char_traits@D@std@@V?$allocator@D@2@@std@@QAEX_NI@Z 0070af30 f i utility.obj
 0002:001ec000       ?copy@?$char_traits@D@std@@SAPADPADPBDI@Z 0070b000 f i utility.obj
 0002:001ec060       ??0?$_String_val@DV?$allocator@D@std@@@std@@QAE@V?$allocator@D@1@@Z 0070b060 f i utility.obj
 0002:001ec1b0       ??0_Container_proxy@std@@QAE@XZ 0070b1b0 f i utility.obj
 0002:001ec200       ??1?$_String_val@DV?$allocator@D@std@@@std@@QAE@XZ 0070b200 f i utility.obj
 0002:001ec340       ??0?$allocator@D@std@@QAE@XZ 0070b340 f i utility.obj
 0002:001ec380       ??0?$basic_filebuf@DU?$char_traits@D@std@@@std@@QAE@PAU_iobuf@@@Z 0070b380 f i utility.obj
 0002:001ec450       ?open@?$basic_filebuf@DU?$char_traits@D@std@@@std@@QAEPAV12@PBDHH@Z 0070b450 f i utility.obj
 0002:001ec5a0       ??1locale@std@@QAE@XZ      0070b5a0 f i utility.obj
 0002:001ec620       ?close@?$basic_filebuf@DU?$char_traits@D@std@@@std@@QAEPAV12@XZ 0070b620 f i utility.obj
 0002:001ec6e0       ?_Init@?$basic_filebuf@DU?$char_traits@D@std@@@std@@IAEXPAU_iobuf@@W4_Initfl@12@@Z 0070b6e0 f i utility.obj
 0002:001ec7f0       ?_Endwrite@?$basic_filebuf@DU?$char_traits@D@std@@@std@@IAE_NXZ 0070b7f0 f i utility.obj
 0002:001eccd0       ?_Initcvt@?$basic_filebuf@DU?$char_traits@D@std@@@std@@IAEXPBV?$codecvt@DDH@2@@Z 0070bcd0 f i utility.obj
 0002:001ecd70       ?_Reset_back@?$basic_filebuf@DU?$char_traits@D@std@@@std@@AAEXXZ 0070bd70 f i utility.obj
 0002:001ece10       ?_Set_back@?$basic_filebuf@DU?$char_traits@D@std@@@std@@AAEXXZ 0070be10 f i utility.obj
 0002:001ecef0       ??0?$fpos@H@std@@QAE@_J@Z  0070bef0 f i utility.obj
 0002:001ecf60       ??0?$fpos@H@std@@QAE@H_J@Z 0070bf60 f i utility.obj
 0002:001ecfd0       ?state@?$fpos@H@std@@QBEHXZ 0070bfd0 f i utility.obj
 0002:001ed010       ?seekpos@?$fpos@H@std@@QBE_JXZ 0070c010 f i utility.obj
 0002:001ed050       ??B?$fpos@H@std@@QBE_JXZ   0070c050 f i utility.obj
 0002:001ed0a0       ??D?$_String_iterator@DU?$char_traits@D@std@@V?$allocator@D@2@@std@@QBEAADXZ 0070c0a0 f i utility.obj
 0002:001ed0f0       ?assign@?$basic_string@DU?$char_traits@D@std@@V?$allocator@D@2@@std@@QAEAAV12@ID@Z 0070c0f0 f i utility.obj
 0002:001ed1a0       ?_Chassign@?$basic_string@DU?$char_traits@D@std@@V?$allocator@D@2@@std@@QAEXIID@Z 0070c1a0 f i utility.obj
 0002:001ed240       ?assign@?$char_traits@D@std@@SAPADPADID@Z 0070c240 f i utility.obj
 0002:001ed2a0       ?assign@?$char_traits@D@std@@SAXAADABD@Z 0070c2a0 f i utility.obj
 0002:001ed2e0       ?_Eos@?$basic_string@DU?$char_traits@D@std@@V?$allocator@D@2@@std@@QAEXI@Z 0070c2e0 f i utility.obj
 0002:001ed360       ?_Grow@?$basic_string@DU?$char_traits@D@std@@V?$allocator@D@2@@std@@QAE_NI_N@Z 0070c360 f i utility.obj
 0002:001ed460       ?_Myptr@?$basic_string@DU?$char_traits@D@std@@V?$allocator@D@2@@std@@QAEPADXZ 0070c460 f i utility.obj
 0002:001ed4d0       ?_Xlen@?$basic_string@DU?$char_traits@D@std@@V?$allocator@D@2@@std@@QBEXXZ 0070c4d0 f i utility.obj
 0002:001ed530       ?_Xran@?$basic_string@DU?$char_traits@D@std@@V?$allocator@D@2@@std@@QBEXXZ 0070c530 f i utility.obj
 0002:001ed590       ??0?$allocator@D@std@@QAE@ABV01@@Z 0070c590 f i utility.obj
 0002:001ed5d0       ?deallocate@?$allocator@D@std@@QAEXPADI@Z 0070c5d0 f i utility.obj
 0002:001ed630       ??D?$_String_const_iterator@DU?$char_traits@D@std@@V?$allocator@D@2@@std@@QBEABDXZ 0070c630 f i utility.obj
 0002:001ed780       ?_Getcont@_Iterator_base12@std@@QBEPBU_Container_base12@2@XZ 0070c780 f i utility.obj
 0002:001ed7f0       ??0?$_String_iterator@DU?$char_traits@D@std@@V?$allocator@D@2@@std@@QAE@PADPBU_Container_base12@1@@Z 0070c7f0 f i utility.obj
 0002:001ed850       ?deallocate@?$allocator@U_Container_proxy@std@@@std@@QAEXPAU_Container_proxy@2@I@Z 0070c850 f i utility.obj
 0002:001ed8b0       ?allocate@?$allocator@U_Container_proxy@std@@@std@@QAEPAU_Container_proxy@2@I@Z 0070c8b0 f i utility.obj
 0002:001ed910       ?max_size@?$basic_string@DU?$char_traits@D@std@@V?$allocator@D@2@@std@@QBEIXZ 0070c910 f i utility.obj
 0002:001ed9a0       ?_Copy@?$basic_string@DU?$char_traits@D@std@@V?$allocator@D@2@@std@@QAEXII@Z 0070c9a0 f i utility.obj
 0002:001edbd0       ??0?$_String_const_iterator@DU?$char_traits@D@std@@V?$allocator@D@2@@std@@QAE@PBDPBU_Container_base12@1@@Z 0070cbd0 f i utility.obj
 0002:001edc90       ?_Adopt@_Iterator_base12@std@@QAEXPBU_Container_base12@2@@Z 0070cc90 f i utility.obj
 0002:001edde0       ??0?$_Iterator012@Urandom_access_iterator_tag@std@@DHPBDABDU_Iterator_base12@2@@std@@QAE@XZ 0070cde0 f i utility.obj
 0002:001ede40       ??0_Iterator_base12@std@@QAE@XZ 0070ce40 f i utility.obj
 0002:001ede90       ?allocate@?$allocator@D@std@@QAEPADI@Z 0070ce90 f i utility.obj
 0002:001edef0       ?max_size@?$allocator@D@std@@QBEIXZ 0070cef0 f i utility.obj
 0002:001edf60       ??$_DebugHeapDelete@Vfacet@locale@std@@@std@@YAXPAVfacet@locale@0@@Z 0070cf60 f i utility.obj
 0002:001edfe0       ??$strcpy@$0BAA@@@YAPADAAY0BAA@DPBD@Z 0070cfe0 f i utility.obj
 0002:001ee050       ??$strcpy@PAD@@YAPADABQADPBD@Z 0070d050 f i utility.obj
 0002:001ee0b0       ??$use_facet@V?$codecvt@DDH@std@@@std@@YAABV?$codecvt@DDH@0@ABVlocale@0@@Z 0070d0b0 f i utility.obj
 0002:001ee2c0       ?_Register@facet@locale@std@@QAEXXZ 0070d2c0 f i utility.obj
 0002:001ee320       ?_Getfacet@locale@std@@QBEPBVfacet@12@I@Z 0070d320 f i utility.obj
 0002:001ee420       ??$?0D@?$allocator@U_Container_proxy@std@@@std@@QAE@ABV?$allocator@D@1@@Z 0070d420 f i utility.obj
 0002:001ee460       ??$_Cons_val@V?$allocator@U_Container_proxy@std@@@std@@U_Container_proxy@2@U32@@std@@YAXAAV?$allocator@U_Container_proxy@std@@@0@PAU_Container_proxy@0@$$QAU20@@Z 0070d460 f i utility.obj
 0002:001ee4c0       ??$_Dest_val@V?$allocator@U_Container_proxy@std@@@std@@U_Container_proxy@2@@std@@YAXAAV?$allocator@U_Container_proxy@std@@@0@PAU_Container_proxy@0@@Z 0070d4c0 f i utility.obj
 0002:001ee510       ??$_Allocate@U_Container_proxy@std@@@std@@YAPAU_Container_proxy@0@IPAU10@@Z 0070d510 f i utility.obj
 0002:001ee5c0       ??0bad_alloc@std@@QAE@PBD@Z 0070d5c0 f i utility.obj
 0002:001ee640       ??1bad_alloc@std@@UAE@XZ   0070d640 f i utility.obj
 0002:001ee6b0       ??_Gbad_alloc@std@@UAEPAXI@Z 0070d6b0 f i utility.obj
 0002:001ee6b0       ??_Ebad_alloc@std@@UAEPAXI@Z 0070d6b0 f i utility.obj
 0002:001ee720       ??$_Allocate@D@std@@YAPADIPAD@Z 0070d720 f i utility.obj
 0002:001ee7d0       ??0bad_alloc@std@@QAE@ABV01@@Z 0070d7d0 f i utility.obj
 0002:001ee850       ?construct@?$allocator@U_Container_proxy@std@@@std@@QAEXPAU_Container_proxy@2@$$QAU32@@Z 0070d850 f i utility.obj
 0002:001ee960       ?destroy@?$allocator@U_Container_proxy@std@@@std@@QAEXPAU_Container_proxy@2@@Z 0070d960 f i utility.obj
 0002:001ee9c0       ??$forward@U_Container_proxy@std@@@std@@YA$$QAU_Container_proxy@0@AAU10@@Z 0070d9c0 f i utility.obj
 0002:001eea00       ??$_Destroy@U_Container_proxy@std@@@std@@YAXPAU_Container_proxy@0@@Z 0070da00 f i utility.obj
 0002:001eea2e       _UuidCreate@4              0070da2e f   rpcrt4:RPCRT4.dll
 0002:001eea34       _UuidFromStringA@8         0070da34 f   rpcrt4:RPCRT4.dll
 0002:001eea3a       _UuidToStringA@8           0070da3a f   rpcrt4:RPCRT4.dll
 0002:001eea40       _my_init_debug             0070da40 f   clibpdf:cpdfInit.obj
 0002:001eea90       _cpdf_setGlobalDocumentLimits 0070da90 f   clibpdf:cpdfInit.obj
 0002:001eeb20       _cpdf_open                 0070db20 f   clibpdf:cpdfInit.obj
 0002:001ef0d0       _cpdf_enableCompression    0070e0d0 f   clibpdf:cpdfInit.obj
 0002:001ef1b0       _cpdf_setCompressionFilter 0070e1b0 f   clibpdf:cpdfInit.obj
 0002:001ef330       _cpdf_init                 0070e330 f   clibpdf:cpdfInit.obj
 0002:001ef530       _cpdf_pageInit             0070e530 f   clibpdf:cpdfInit.obj
 0002:001efba0       _cpdf_setPageDuration      0070eba0 f   clibpdf:cpdfInit.obj
 0002:001efc00       _cpdf_setPageTransition    0070ec00 f   clibpdf:cpdfInit.obj
 0002:001effc0       _cpdf_setCurrentPage       0070efc0 f   clibpdf:cpdfInit.obj
 0002:001f01a0       _cpdf_finalizePage         0070f1a0 f   clibpdf:cpdfInit.obj
 0002:001f02b0       _cpdf_savePDFmemoryStreamToFile 0070f2b0 f   clibpdf:cpdfInit.obj
 0002:001f0380       _cpdf_getBufferForPDF      0070f380 f   clibpdf:cpdfInit.obj
 0002:001f0470       __cpdf_pdfWrite            0070f470 f   clibpdf:cpdfInit.obj
 0002:001f0540       __cpdf_pdfBinaryWrite      0070f540 f   clibpdf:cpdfInit.obj
 0002:001f0600       _cpdf_close                0070f600 f   clibpdf:cpdfInit.obj
 0002:001f0940       _cpdf_finalizeAll          0070f940 f   clibpdf:cpdfInit.obj
 0002:001f1390       _cpdf_setPageSize          00710390 f   clibpdf:cpdfInit.obj
 0002:001f1570       _cpdf_setBoundingBox       00710570 f   clibpdf:cpdfInit.obj
 0002:001f1600       _cpdf_setMediaBox          00710600 f   clibpdf:cpdfInit.obj
 0002:001f16e0       _cpdf_setCropBox           007106e0 f   clibpdf:cpdfInit.obj
 0002:001f17c0       _cpdf_setCurrentMemoryStream 007107c0 f   clibpdf:cpdfInit.obj
 0002:001f1810       _getFileSize               00710810 f   clibpdf:cpdfInit.obj
 0002:001f18f0       _cpdf_setViewerPreferences 007108f0 f   clibpdf:cpdfInit.obj
 0002:001f19c0       __cpdf_closeContentMemStreamForPage 007109c0 f   clibpdf:cpdfInit.obj
 0002:001f1c50       __cpdf_freeAllPageInfos    00710c50 f   clibpdf:cpdfInit.obj
 0002:001f1f20       __cpdf_file_open           00710f20 f   clibpdf:cpdfInit.obj
 0002:001f2180       __cpdf_file_close          00711180 f   clibpdf:cpdfInit.obj
 0002:001f2200       __cpdf_WriteCatalogObject  00711200 f   clibpdf:cpdfInit.obj
 0002:001f2850       __cpdf_WriteOutlinesObject 00711850 f   clibpdf:cpdfInit.obj
 0002:001f2b20       __cpdf_WritePagesObject    00711b20 f   clibpdf:cpdfInit.obj
 0002:001f2df0       __cpdf_WritePageObject     00711df0 f   clibpdf:cpdfInit.obj
 0002:001f3610       __cpdf_WriteContentsFromFile 00712610 f   clibpdf:cpdfInit.obj
 0002:001f3b20       __cpdf_WriteContentsFromMemory 00712b20 f   clibpdf:cpdfInit.obj
 0002:001f3f00       __cpdf_WriteProcSetArray   00712f00 f   clibpdf:cpdfInit.obj
 0002:001f41e0       __cpdf_WriteFont           007131e0 f   clibpdf:cpdfInit.obj
 0002:001f4850       __cpdf_WriteFontDescriptor 00713850 f   clibpdf:cpdfInit.obj
 0002:001f4f20       __cpdf_WriteDescendantFont 00713f20 f   clibpdf:cpdfInit.obj
 0002:001f52b0       __cpdf_WriteFontData       007142b0 f   clibpdf:cpdfInit.obj
 0002:001f5680       __cpdf_WriteImage          00714680 f   clibpdf:cpdfInit.obj
 0002:001f5df0       __cpdf_WriteAnnotation     00714df0 f   clibpdf:cpdfInit.obj
 0002:001f64f0       __cpdf_WriteProducerDate   007154f0 f   clibpdf:cpdfInit.obj
 0002:001f68e0       __cpdf_WriteXrefTrailer    007158e0 f   clibpdf:cpdfInit.obj
 0002:001f6d10       __cpdf_initDocumentStruct  00715d10 f   clibpdf:cpdfInit.obj
 0002:001f7180       __cpdf_resetTextCTM        00716180 f   clibpdf:cpdfText.obj
 0002:001f7210       _cpdf_beginText            00716210 f   clibpdf:cpdfText.obj
 0002:001f73d0       _cpdf_endText              007163d0 f   clibpdf:cpdfText.obj
 0002:001f7580       _cpdf_text                 00716580 f   clibpdf:cpdfText.obj
 0002:001f7620       _cpdf_rawText              00716620 f   clibpdf:cpdfText.obj
 0002:001f7710       _cpdf_textAligned          00716710 f   clibpdf:cpdfText.obj
 0002:001f77a0       _cpdf_rawTextAligned       007167a0 f   clibpdf:cpdfText.obj
 0002:001f79b0       _cpdf_setWordSpacing       007169b0 f   clibpdf:cpdfText.obj
 0002:001f7ab0       _cpdf_setCharacterSpacing  00716ab0 f   clibpdf:cpdfText.obj
 0002:001f7bb0       _cpdf_setHorizontalScaling 00716bb0 f   clibpdf:cpdfText.obj
 0002:001f7cb0       _cpdf_setTextLeading       00716cb0 f   clibpdf:cpdfText.obj
 0002:001f7db0       _cpdf_setTextMatrix        00716db0 f   clibpdf:cpdfText.obj
 0002:001f7f70       _cpdf_concatTextMatrix     00716f70 f   clibpdf:cpdfText.obj
 0002:001f8090       _cpdf_rotateText           00717090 f   clibpdf:cpdfText.obj
 0002:001f8180       _cpdf_skewText             00717180 f   clibpdf:cpdfText.obj
 0002:001f8260       _cpdf_setTextPosition      00717260 f   clibpdf:cpdfText.obj
 0002:001f82e0       _cpdf_rawSetTextPosition   007172e0 f   clibpdf:cpdfText.obj
 0002:001f84b0       _cpdf_setTextRenderingMode 007174b0 f   clibpdf:cpdfText.obj
 0002:001f85a0       _cpdf_setTextRise          007175a0 f   clibpdf:cpdfText.obj
 0002:001f86a0       _cpdf_rawSetNextTextLineOffset 007176a0 f   clibpdf:cpdfText.obj
 0002:001f87b0       _cpdf_setNextTextLineOffset 007177b0 f   clibpdf:cpdfText.obj
 0002:001f8830       _cpdf_textCRLF             00717830 f   clibpdf:cpdfText.obj
 0002:001f88d0       _cpdf_textShow             007178d0 f   clibpdf:cpdfText.obj
 0002:001f8bf0       _cpdf_textCRLFshow         00717bf0 f   clibpdf:cpdfText.obj
 0002:001f8f00       _cpdf_escapeSpecialChars   00717f00 f   clibpdf:cpdfText.obj
 0002:001f9110       _cpdf_escapeSpecialCharsBinary 00718110 f   clibpdf:cpdfText.obj
 0002:001f9310       _cpdf_capHeight            00718310 f   clibpdf:cpdfFont.obj
 0002:001f93d0       _cpdf_ascent               007183d0 f   clibpdf:cpdfFont.obj
 0002:001f9490       _cpdf_descent              00718490 f   clibpdf:cpdfFont.obj
 0002:001f9550       _cpdf_stringWidth          00718550 f   clibpdf:cpdfFont.obj
 0002:001f9870       _cpdf_setFont              00718870 f   clibpdf:cpdfFont.obj
 0002:001fa6a0       __cpdf_loadExternalFont    007196a0 f   clibpdf:cpdfFont.obj
 0002:001faa70       __isNewFont                00719a70 f   clibpdf:cpdfFont.obj
 0002:001fac40       __cpdf_readFontPathFromMapFile 00719c40 f   clibpdf:cpdfFont.obj
 0002:001fb580       _cpdf_setFontMapFile       0071a580 f   clibpdf:cpdfFont.obj
 0002:001fb5f0       _cpdf_setFontDirectories   0071a5f0 f   clibpdf:cpdfFont.obj
 0002:001fb690       __cpdf_freeAllFontInfos    0071a690 f   clibpdf:cpdfFont.obj
 0002:001fb990       _cpdf_moveto               0071a990 f   clibpdf:cpdfDomPlot.obj
 0002:001fba10       _cpdf_lineto               0071aa10 f   clibpdf:cpdfDomPlot.obj
 0002:001fba90       _cpdf_rmoveto              0071aa90 f   clibpdf:cpdfDomPlot.obj
 0002:001fbb10       _cpdf_rlineto              0071ab10 f   clibpdf:cpdfDomPlot.obj
 0002:001fbb90       _cpdf_curveto              0071ab90 f   clibpdf:cpdfDomPlot.obj
 0002:001fbc70       _cpdf_quickCircle          0071ac70 f   clibpdf:cpdfDomPlot.obj
 0002:001fbd40       _cpdf_rect                 0071ad40 f   clibpdf:cpdfDomPlot.obj
 0002:001fbe50       _cpdf_rectRotated          0071ae50 f   clibpdf:cpdfDomPlot.obj
 0002:001fbf60       _cpdf_setAnnotation        0071af60 f   clibpdf:cpdfAnnot.obj
 0002:001fc020       _cpdf_setActionURL         0071b020 f   clibpdf:cpdfAnnot.obj
 0002:001fc0e0       _cpdf_setLinkGoToPage      0071b0e0 f   clibpdf:cpdfAnnot.obj
 0002:001fc1a0       _cpdf_setLinkAction        0071b1a0 f   clibpdf:cpdfAnnot.obj
 0002:001fc260       _cpdf_includeTextFileAsAnnotation 0071b260 f   clibpdf:cpdfAnnot.obj
 0002:001fc320       _cpdf_rawSetAnnotation     0071b320 f   clibpdf:cpdfAnnot.obj
 0002:001fcb60       _cpdf_rawSetActionURL      0071bb60 f   clibpdf:cpdfAnnot.obj
 0002:001fd020       _cpdf_rawSetLinkGoToPage   0071c020 f   clibpdf:cpdfAnnot.obj
 0002:001fd490       _cpdf_rawSetLinkAction     0071c490 f   clibpdf:cpdfAnnot.obj
 0002:001fd950       _cpdf_rawIncludeTextFileAsAnnotation 0071c950 f   clibpdf:cpdfAnnot.obj
 0002:001fdb40       __cpdf_freeAllAnnotInfos   0071cb40 f   clibpdf:cpdfAnnot.obj
 0002:001fdc80       _cpdf_circle               0071cc80 f   clibpdf:cpdfArc.obj
 0002:001fdd50       _cpdf_arc                  0071cd50 f   clibpdf:cpdfArc.obj
 0002:001fde30       _cpdf_rawCircle            0071ce30 f   clibpdf:cpdfArc.obj
 0002:001fe010       _cpdf_rawArc               0071d010 f   clibpdf:cpdfArc.obj
 0002:001fe1e0       __cpdf_arc_small           0071d1e0 f   clibpdf:cpdfArc.obj
 0002:001fe550       _rotate_xyCoordinate       0071d550 f   clibpdf:cpdfArc.obj
 0002:001fe610       _cpdf_rawMoveto            0071d610 f   clibpdf:cpdfRawPlot.obj
 0002:001fe740       _cpdf_rawRmoveto           0071d740 f   clibpdf:cpdfRawPlot.obj
 0002:001fe8a0       _cpdf_rawLineto            0071d8a0 f   clibpdf:cpdfRawPlot.obj
 0002:001fe9d0       _cpdf_rawRlineto           0071d9d0 f   clibpdf:cpdfRawPlot.obj
 0002:001feb30       _cpdf_rawCurveto           0071db30 f   clibpdf:cpdfRawPlot.obj
 0002:001fecc0       _cpdf_rawQuickCircle       0071dcc0 f   clibpdf:cpdfRawPlot.obj
 0002:001fee10       _cpdf_rawRect              0071de10 f   clibpdf:cpdfRawPlot.obj
 0002:001fef70       _cpdf_rawRectRotated       0071df70 f   clibpdf:cpdfRawPlot.obj
 0002:001ff100       _cpdf_closepath            0071e100 f   clibpdf:cpdfRawPlot.obj
 0002:001ff1a0       _cpdf_stroke               0071e1a0 f   clibpdf:cpdfRawPlot.obj
 0002:001ff240       _cpdf_fill                 0071e240 f   clibpdf:cpdfRawPlot.obj
 0002:001ff2e0       _cpdf_eofill               0071e2e0 f   clibpdf:cpdfRawPlot.obj
 0002:001ff380       _cpdf_fillAndStroke        0071e380 f   clibpdf:cpdfRawPlot.obj
 0002:001ff420       _cpdf_eofillAndStroke      0071e420 f   clibpdf:cpdfRawPlot.obj
 0002:001ff4c0       _cpdf_clip                 0071e4c0 f   clibpdf:cpdfRawPlot.obj
 0002:001ff560       _cpdf_eoclip               0071e560 f   clibpdf:cpdfRawPlot.obj
 0002:001ff600       _cpdf_newpath              0071e600 f   clibpdf:cpdfRawPlot.obj
 0002:001ff6a0       _cpdf_importImage          0071e6a0 f   clibpdf:cpdfImage.obj
 0002:001ff750       _cpdf_rawImportImage       0071e750 f   clibpdf:cpdfImage.obj
 0002:002002b0       __isNewImage               0071f2b0 f   clibpdf:cpdfImage.obj
 0002:002003a0       _cpdf_selectImage          0071f3a0 f   clibpdf:cpdfImage.obj
 0002:00200400       __cpdf_freeAllImageInfos   0071f400 f   clibpdf:cpdfImage.obj
 0002:00200530       _cpdf_readTIFFheader       0071f530 f   clibpdf:cpdfImage.obj
 0002:00200590       _cpdf_readTIFFimageData    0071f590 f   clibpdf:cpdfImage.obj
 0002:002005d0       _cpdf_readPDFimageHeader   0071f5d0 f   clibpdf:cpdfImage.obj
 0002:00200630       __cpdf_copyPDFimageHeader  0071f630 f   clibpdf:cpdfImage.obj
 0002:00200670       _cpdf_readPDFimageData     0071f670 f   clibpdf:cpdfImage.obj
 0002:002006b0       _cpdf_gsave                0071f6b0 f   clibpdf:cpdfGstate.obj
 0002:00200750       _cpdf_grestore             0071f750 f   clibpdf:cpdfGstate.obj
 0002:002007f0       _cpdf_setdash              0071f7f0 f   clibpdf:cpdfGstate.obj
 0002:002008e0       _cpdf_nodash               0071f8e0 f   clibpdf:cpdfGstate.obj
 0002:00200940       _cpdf_setstrokeadjust      0071f940 f   clibpdf:cpdfGstate.obj
 0002:00200970       _cpdf_concat               0071f970 f   clibpdf:cpdfGstate.obj
 0002:00200a10       _cpdf_rawConcat            0071fa10 f   clibpdf:cpdfGstate.obj
 0002:00200b80       _cpdf_rotate               0071fb80 f   clibpdf:cpdfGstate.obj
 0002:00200c30       _cpdf_translate            0071fc30 f   clibpdf:cpdfGstate.obj
 0002:00200cb0       _cpdf_rawTranslate         0071fcb0 f   clibpdf:cpdfGstate.obj
 0002:00200d20       _cpdf_scale                0071fd20 f   clibpdf:cpdfGstate.obj
 0002:00200d90       _cpdf_setflat              0071fd90 f   clibpdf:cpdfGstate.obj
 0002:00200e80       _cpdf_setlinejoin          0071fe80 f   clibpdf:cpdfGstate.obj
 0002:00200f70       _cpdf_setlinecap           0071ff70 f   clibpdf:cpdfGstate.obj
 0002:00201060       _cpdf_setmiterlimit        00720060 f   clibpdf:cpdfGstate.obj
 0002:00201160       _cpdf_setlinewidth         00720160 f   clibpdf:cpdfGstate.obj
 0002:00201260       _cpdf_setgray              00720260 f   clibpdf:cpdfColor.obj
 0002:002012d0       _cpdf_setrgbcolor          007202d0 f   clibpdf:cpdfColor.obj
 0002:00201350       _cpdf_setcmykcolor         00720350 f   clibpdf:cpdfColor.obj
 0002:002013e0       _cpdf_setgrayFill          007203e0 f   clibpdf:cpdfColor.obj
 0002:002014e0       _cpdf_setgrayStroke        007204e0 f   clibpdf:cpdfColor.obj
 0002:002015e0       _cpdf_setrgbcolorFill      007205e0 f   clibpdf:cpdfColor.obj
 0002:00201700       _cpdf_setrgbcolorStroke    00720700 f   clibpdf:cpdfColor.obj
 0002:00201820       _cpdf_setcmykcolorFill     00720820 f   clibpdf:cpdfColor.obj
 0002:00201960       _cpdf_setcmykcolorStroke   00720960 f   clibpdf:cpdfColor.obj
 0002:00201aa0       __cpdf_inc_docID           00720aa0 f   clibpdf:cpdfUtil.obj
 0002:00201b40       _cpdf_localtime            00720b40 f   clibpdf:cpdfUtil.obj
 0002:00201bb0       _cpdf_mktime               00720bb0 f   clibpdf:cpdfUtil.obj
 0002:00201c20       _cpdf_setDocumentID        00720c20 f   clibpdf:cpdfUtil.obj
 0002:00201c70       _multiplyCTM               00720c70 f   clibpdf:cpdfUtil.obj
 0002:00201e00       _getMantissaExp            00720e00 f   clibpdf:cpdfUtil.obj
 0002:00201f20       __cpdf_nibbleValue         00720f20 f   clibpdf:cpdfUtil.obj
 0002:00201fd0       _cpdf_convertBinaryToHex   00720fd0 f   clibpdf:cpdfUtil.obj
 0002:00202130       _cpdf_convertHexToBinary   00721130 f   clibpdf:cpdfUtil.obj
 0002:00202260       _cpdf_hexStringMode        00721260 f   clibpdf:cpdfUtil.obj
 0002:002022a0       _cpdf_useContentMemStream  007212a0 f   clibpdf:cpdfUtil.obj
 0002:002022e0       _cpdf_useStdout            007212e0 f   clibpdf:cpdfUtil.obj
 0002:00202320       _cpdf_setCreator           00721320 f   clibpdf:cpdfUtil.obj
 0002:00202390       _cpdf_setTitle             00721390 f   clibpdf:cpdfUtil.obj
 0002:00202400       _cpdf_setSubject           00721400 f   clibpdf:cpdfUtil.obj
 0002:00202470       _cpdf_setKeywords          00721470 f   clibpdf:cpdfUtil.obj
 0002:002024e0       _cpdf_setPDFLevel          007214e0 f   clibpdf:cpdfUtil.obj
 0002:00202550       _cpdf_comments             00721550 f   clibpdf:cpdfUtil.obj
 0002:00202610       _cpdf_getOutputFilename    00721610 f   clibpdf:cpdfUtil.obj
 0002:00202650       _cpdf_setOutputFilename    00721650 f   clibpdf:cpdfUtil.obj
 0002:002026e0       _cpdf_setDefaultDomainUnit 007216e0 f   clibpdf:cpdfUtil.obj
 0002:00202720       _cpdf_version              00721720 f   clibpdf:cpdfUtil.obj
 0002:00202760       _cpdf_platform             00721760 f   clibpdf:cpdfUtil.obj
 0002:002027a0       _cpdf_convertUpathToOS     007217a0 f   clibpdf:cpdfUtil.obj
 0002:00202840       _cpdf_setErrorHandler      00721840 f   clibpdf:cpdfUtil.obj
 0002:00202890       _cpdf_Error                00721890 f   clibpdf:cpdfUtil.obj
 0002:00202930       __cpdf_defaultErrorHandler 00721930 f   clibpdf:cpdfUtil.obj
 0002:00202a20       _cpdf_setGlobalErrorHandler 00721a20 f   clibpdf:cpdfUtil.obj
 0002:00202a70       _cpdf_GlobalError          00721a70 f   clibpdf:cpdfUtil.obj
 0002:00202b00       __cpdf_defaultGlobalErrorHandler 00721b00 f   clibpdf:cpdfUtil.obj
 0002:00202bf0       __Big_Endian               00721bf0 f   clibpdf:cpdfUtil.obj
 0002:00202c70       _str_append_int            00721c70 f   clibpdf:cpdfUtil.obj
 0002:00202d40       __cpdf_malloc_check        00721d40 f   clibpdf:cpdfUtil.obj
 0002:00202da0       _cpdf_openMemoryStream     00721da0 f   clibpdf:cpdfMemBuf.obj
 0002:00202e70       _cpdf_clearMemoryStream    00721e70 f   clibpdf:cpdfMemBuf.obj
 0002:00202f10       _cpdf_closeMemoryStream    00721f10 f   clibpdf:cpdfMemBuf.obj
 0002:00202fe0       _cpdf_writeMemoryStream    00721fe0 f   clibpdf:cpdfMemBuf.obj
 0002:002031c0       _cpdf_memPutc              007221c0 f   clibpdf:cpdfMemBuf.obj
 0002:00203260       _cpdf_memPuts              00722260 f   clibpdf:cpdfMemBuf.obj
 0002:002032d0       _cpdf_getMemoryBuffer      007222d0 f   clibpdf:cpdfMemBuf.obj
 0002:00203370       _cpdf_saveMemoryStreamToFile 00722370 f   clibpdf:cpdfMemBuf.obj
 0002:00203530       __checkMemMagic            00722530 f   clibpdf:cpdfMemBuf.obj
 0002:002035c0       _cpdf_createAxis           007225c0 f   clibpdf:cpdfAxis.obj
 0002:00203930       _cpdf_createTimeAxis       00722930 f   clibpdf:cpdfAxis.obj
 0002:00203cd0       _cpdf_freeAxis             00722cd0 f   clibpdf:cpdfAxis.obj
 0002:00203e60       _cpdf_drawAxis             00722e60 f   clibpdf:cpdfAxis.obj
 0002:002041a0       _cpdf_attachAxisToDomain   007231a0 f   clibpdf:cpdfAxis.obj
 0002:002041f0       _cpdf_setTicNumEnable      007231f0 f   clibpdf:cpdfAxis.obj
 0002:00204250       _cpdf_setAxisTicNumLabelPosition 00723250 f   clibpdf:cpdfAxis.obj
 0002:002042c0       _fix_trailingZeros         007232c0 f   clibpdf:cpdfAxis.obj
 0002:00204390       __do_oneNumber             00723390 f   clibpdf:cpdfAxis.obj
 0002:00204710       __yearFormat               00723710 f   clibpdf:cpdfAxis.obj
 0002:002047c0       _cpdf_setMonthNames        007237c0 f   clibpdf:cpdfAxis.obj
 0002:002048c0       __cpdf_freeMonthNames      007238c0 f   clibpdf:cpdfAxis.obj
 0002:00204960       __do_oneTimeNumber         00723960 f   clibpdf:cpdfAxis.obj
 0002:00205180       __do_linearNumbers         00724180 f   clibpdf:cpdfAxis.obj
 0002:00205290       __do_logNumbers            00724290 f   clibpdf:cpdfAxis.obj
 0002:002054c0       __do_timeNumbers           007244c0 f   clibpdf:cpdfAxis.obj
 0002:00205760       __bump_tm_Time             00724760 f   clibpdf:cpdfAxis.obj
 0002:00205960       __setDefaultTimeBumpVar    00724960 f   clibpdf:cpdfAxis.obj
 0002:00205aa0       _cpdf_suggestTimeDomainParams 00724aa0 f   clibpdf:cpdfAxis.obj
 0002:002060f0       __bittest                  007250f0 f   clibpdf:cpdfAxis.obj
 0002:00206150       _cpdf_setAxisNumberFormat  00725150 f   clibpdf:cpdfAxis.obj
 0002:002061b0       _cpdf_setAxisNumberFormat2 007251b0 f   clibpdf:cpdfAxis.obj
 0002:002063f0       _cpdf_setTimeAxisNumberFormat 007253f0 f   clibpdf:cpdfAxis.obj
 0002:00206460       _cpdf_setTimeAxisNumberFormat2 00725460 f   clibpdf:cpdfAxis.obj
 0002:00206620       _cpdf_setAxisLineParams    00725620 f   clibpdf:cpdfAxis.obj
 0002:00206690       __do_oneTick               00725690 f   clibpdf:cpdfAxis.obj
 0002:00206770       __do_linearTics            00725770 f   clibpdf:cpdfAxis.obj
 0002:00206930       __do_logTics               00725930 f   clibpdf:cpdfAxis.obj
 0002:00206bb0       __do_timeTics              00725bb0 f   clibpdf:cpdfAxis.obj
 0002:00206ee0       _cpdf_setLinearAxisParams  00725ee0 f   clibpdf:cpdfAxis.obj
 0002:00206f50       _cpdf_setLogAxisTickSelector 00725f50 f   clibpdf:cpdfAxis.obj
 0002:00206f90       _cpdf_setLogAxisNumberSelector 00725f90 f   clibpdf:cpdfAxis.obj
 0002:00206fd0       _cpdf_setAxisLabel         00725fd0 f   clibpdf:cpdfAxis.obj
 0002:002071f0       __do_axisLabel             007261f0 f   clibpdf:cpdfAxis.obj
 0002:00207520       _vAxis2Points              00726520 f   clibpdf:cpdfAxis.obj
 0002:00207680       _cpdf_createPlotDomain     00726680 f   clibpdf:cpdfDomain.obj
 0002:00207920       _cpdf_createTimePlotDomain 00726920 f   clibpdf:cpdfDomain.obj
 0002:00207bd0       _cpdf_freePlotDomain       00726bd0 f   clibpdf:cpdfDomain.obj
 0002:00207c40       _cpdf_fillDomainWithGray   00726c40 f   clibpdf:cpdfDomain.obj
 0002:00207d00       _cpdf_fillDomainWithRGBcolor 00726d00 f   clibpdf:cpdfDomain.obj
 0002:00207dd0       _cpdf_clipDomain           00726dd0 f   clibpdf:cpdfDomain.obj
 0002:00207e80       _cpdf_setPlotDomain        00726e80 f   clibpdf:cpdfDomain.obj
 0002:00208000       _cpdf_setMeshColor         00727000 f   clibpdf:cpdfDomain.obj
 0002:00208090       _cpdf_drawMeshForDomain    00727090 f   clibpdf:cpdfDomain.obj
 0002:00208130       __do_meshLines_X           00727130 f   clibpdf:cpdfDomain.obj
 0002:00208b00       __do_meshLines_Y           00727b00 f   clibpdf:cpdfDomain.obj
 0002:00209030       _cpdf_setLinearMeshParams  00728030 f   clibpdf:cpdfDomain.obj
 0002:002090e0       _x_Domain2Points           007280e0 f   clibpdf:cpdfDomain.obj
 0002:00209240       _y_Domain2Points           00728240 f   clibpdf:cpdfDomain.obj
 0002:002093a0       _y_Points2Domain           007283a0 f   clibpdf:cpdfDomain.obj
 0002:002094f0       _x_Points2Domain           007284f0 f   clibpdf:cpdfDomain.obj
 0002:00209640       _cpdf_addOutlineEntry      00728640 f   clibpdf:cpdfOutline.obj
 0002:00209b10       _cpdf_addOutlineAction     00728b10 f   clibpdf:cpdfOutline.obj
 0002:00209fa0       __cpdf_copy_string_with_malloc 00728fa0 f   clibpdf:cpdfOutline.obj
 0002:0020a040       __cpdf_dest_attribute      00729040 f   clibpdf:cpdfOutline.obj
 0002:0020a3b0       __cpdf_serializeOutlineEntries 007293b0 f   clibpdf:cpdfOutline.obj
 0002:0020a460       __cpdf_WriteOutlineEntries 00729460 f   clibpdf:cpdfOutline.obj
 0002:0020a500       __cpdf_WriteOneOutlineEntry 00729500 f   clibpdf:cpdfOutline.obj
 0002:0020a9c0       __cpdf_freeAllOutlineEntries 007299c0 f   clibpdf:cpdfOutline.obj
 0002:0020aac0       _compress2                 00729ac0 f   clibpdf:compress.obj
 0002:0020ac30       _compress                  00729c30 f   clibpdf:compress.obj
 0002:0020ac90       _timestring                00729c90 f   clibpdf:cpdfTime.obj
 0002:0020ae30       _tm_to_NumDays             00729e30 f   clibpdf:cpdfTime.obj
 0002:0020afe0       _isLeapYear                00729fe0 f   clibpdf:cpdfTime.obj
 0002:0020b060       __printfTime               0072a060 f   clibpdf:cpdfTime.obj
 0002:0020b100       __cpdf_readPFB             0072a100 f   clibpdf:cpdfReadPFB.obj
 0002:0020b880       __cpdf_readPFM             0072a880 f   clibpdf:cpdfReadPFM.obj
 0002:0020bee0       __cpdf_readPFM_Header      0072aee0 f   clibpdf:cpdfReadPFM.obj
 0002:0020c650       __cpdf_readPFM_Extension   0072b650 f   clibpdf:cpdfReadPFM.obj
 0002:0020c950       __cpdf_byteRevPFM_Header   0072b950 f   clibpdf:cpdfReadPFM.obj
 0002:0020cc80       __cpdf_byteRevPFM_Extension 0072bc80 f   clibpdf:cpdfReadPFM.obj
 0002:0020ce20       _LbyteRev                  0072be20 f   clibpdf:cpdfReadPFM.obj
 0002:0020cea0       _SbyteRev                  0072bea0 f   clibpdf:cpdfReadPFM.obj
 0002:0020cf00       _read_JPEG_header          0072bf00 f   clibpdf:jpegsize.obj
 0002:0020d640       _cpdf_suggestLinearDomainParams 0072c640 f   clibpdf:cpdfTicInt.obj
 0002:0020db70       _cpdf_suggestMinMaxForLinearDomain 0072cb70 f   clibpdf:cpdfTicInt.obj
 0002:0020dc50       _deflateInit_              0072cc50 f   clibpdf:deflate.obj
 0002:0020dcc0       _deflateInit2_             0072ccc0 f   clibpdf:deflate.obj
 0002:0020e0d0       _deflateSetDictionary      0072d0d0 f   clibpdf:deflate.obj
 0002:0020e300       _deflateReset              0072d300 f   clibpdf:deflate.obj
 0002:0020e440       _deflateParams             0072d440 f   clibpdf:deflate.obj
 0002:0020e5d0       _deflate                   0072d5d0 f   clibpdf:deflate.obj
 0002:0020ec30       _deflateEnd                0072dc30 f   clibpdf:deflate.obj
 0002:0020ee00       _deflateCopy               0072de00 f   clibpdf:deflate.obj
 0002:00210d80       _zlibVersion               0072fd80 f   clibpdf:zutil.obj
 0002:00210dc0       _zError                    0072fdc0 f   clibpdf:zutil.obj
 0002:00210e10       _zcalloc                   0072fe10 f   clibpdf:zutil.obj
 0002:00210e90       _zcfree                    0072fe90 f   clibpdf:zutil.obj
 0002:00210ef0       _adler32                   0072fef0 f   clibpdf:adler32.obj
 0002:002111f0       __tr_init                  007301f0 f   clibpdf:trees.obj
 0002:00211440       __tr_stored_block          00730440 f   clibpdf:trees.obj
 0002:00211600       __tr_align                 00730600 f   clibpdf:trees.obj
 0002:00211c20       __tr_flush_block           00730c20 f   clibpdf:trees.obj
 0002:002144d0       __tr_tally                 007334d0 f   clibpdf:trees.obj
 0002:0021565e       ??3@YAXPAX@Z               0073465e f   mfc100d:mfc100d.dll
 0002:00215664       ??1?$CStringT@DV?$StrTraitMFC_DLL@DV?$ChTraitsCRT@D@ATL@@@@@ATL@@QAE@XZ 00734664 f   mfc100d:mfc100d.dll
 0002:0021566a       ??0?$CStringT@DV?$StrTraitMFC_DLL@DV?$ChTraitsCRT@D@ATL@@@@@ATL@@QAE@XZ 0073466a f   mfc100d:mfc100d.dll
 0002:00215670       ??1CStdioFile@@UAE@XZ      00734670 f   mfc100d:mfc100d.dll
 0002:00215676       ?AfxMessageBox@@YGHPBDII@Z 00734676 f   mfc100d:mfc100d.dll
 0002:0021567c       ?Close@CStdioFile@@UAEXXZ  0073467c f   mfc100d:mfc100d.dll
 0002:00215682       ?WriteString@CStdioFile@@UAEXPBD@Z 00734682 f   mfc100d:mfc100d.dll
 0002:00215688       ?Replace@?$CStringT@DV?$StrTraitMFC_DLL@DV?$ChTraitsCRT@D@ATL@@@@@ATL@@QAEHPBD0@Z 00734688 f   mfc100d:mfc100d.dll
 0002:0021568e       ?Trim@?$CStringT@DV?$StrTraitMFC_DLL@DV?$ChTraitsCRT@D@ATL@@@@@ATL@@QAEAAV12@XZ 0073468e f   mfc100d:mfc100d.dll
 0002:00215694       ?ReadString@CStdioFile@@UAEHAAV?$CStringT@DV?$StrTraitMFC_DLL@DV?$ChTraitsCRT@D@ATL@@@@@ATL@@@Z 00734694 f   mfc100d:mfc100d.dll
 0002:0021569a       ?Open@CStdioFile@@UAEHPBDIPAVCFileException@@@Z 0073469a f   mfc100d:mfc100d.dll
 0002:002156a0       ??0CStdioFile@@QAE@XZ      007346a0 f   mfc100d:mfc100d.dll
 0002:002156a6       ??B?$CSimpleStringT@D$00@ATL@@QBEPBDXZ 007346a6 f   mfc100d:mfc100d.dll
 0002:002156ac       ?Format@?$CStringT@DV?$StrTraitMFC_DLL@DV?$ChTraitsCRT@D@ATL@@@@@ATL@@QAAXPBDZZ 007346ac f   mfc100d:mfc100d.dll
 0002:002156b2       ?Delete@?$CStringT@DV?$StrTraitMFC_DLL@DV?$ChTraitsCRT@D@ATL@@@@@ATL@@QAEHHH@Z 007346b2 f   mfc100d:mfc100d.dll
 0002:002156b8       ??4?$CStringT@DV?$StrTraitMFC_DLL@DV?$ChTraitsCRT@D@ATL@@@@@ATL@@QAEAAV01@ABV01@@Z 007346b8 f   mfc100d:mfc100d.dll
 0002:002156be       ?Left@?$CStringT@DV?$StrTraitMFC_DLL@DV?$ChTraitsCRT@D@ATL@@@@@ATL@@QBE?AV12@H@Z 007346be f   mfc100d:mfc100d.dll
 0002:002156c4       ?Find@?$CStringT@DV?$StrTraitMFC_DLL@DV?$ChTraitsCRT@D@ATL@@@@@ATL@@QBEHPBDH@Z 007346c4 f   mfc100d:mfc100d.dll
 0002:002156ca       ??0?$CStringT@DV?$StrTraitMFC_DLL@DV?$ChTraitsCRT@D@ATL@@@@@ATL@@QAE@ABV01@@Z 007346ca f   mfc100d:mfc100d.dll
 0002:002156d0       ?Truncate@?$CSimpleStringT@D$00@ATL@@QAEXH@Z 007346d0 f   mfc100d:mfc100d.dll
 0002:002156d6       ?GetLength@?$CSimpleStringT@D$00@ATL@@QBEHXZ 007346d6 f   mfc100d:mfc100d.dll
 0002:002156dc       ?Right@?$CStringT@DV?$StrTraitMFC_DLL@DV?$ChTraitsCRT@D@ATL@@@@@ATL@@QBE?AV12@H@Z 007346dc f   mfc100d:mfc100d.dll
 0002:002156e2       ??4?$CStringT@DV?$StrTraitMFC_DLL@DV?$ChTraitsCRT@D@ATL@@@@@ATL@@QAEAAV01@PBD@Z 007346e2 f   mfc100d:mfc100d.dll
 0002:002156e8       ?Compare@?$CStringT@DV?$StrTraitMFC_DLL@DV?$ChTraitsCRT@D@ATL@@@@@ATL@@QBEHPBD@Z 007346e8 f   mfc100d:mfc100d.dll
 0002:002156ee       ??Y?$CStringT@DV?$StrTraitMFC_DLL@DV?$ChTraitsCRT@D@ATL@@@@@ATL@@QAEAAV01@ABV?$CSimpleStringT@D$00@1@@Z 007346ee f   mfc100d:mfc100d.dll
 0002:002156f4       ??0?$CStringT@DV?$StrTraitMFC_DLL@DV?$ChTraitsCRT@D@ATL@@@@@ATL@@QAE@PBD@Z 007346f4 f   mfc100d:mfc100d.dll
 0002:002156fa       ?Mid@?$CStringT@DV?$StrTraitMFC_DLL@DV?$ChTraitsCRT@D@ATL@@@@@ATL@@QBE?AV12@HH@Z 007346fa f   mfc100d:mfc100d.dll
 0002:00215700       ?Concatenate@?$CSimpleStringT@D$00@ATL@@KAXAAV12@PBDH1H@Z 00734700 f   mfc100d:mfc100d.dll
 0002:00215706       ??0?$CStringT@DV?$StrTraitMFC_DLL@DV?$ChTraitsCRT@D@ATL@@@@@ATL@@QAE@PAUIAtlStringMgr@1@@Z 00734706 f   mfc100d:mfc100d.dll
 0002:0021570c       ?GetManager@?$CStringT@DV?$StrTraitMFC_DLL@DV?$ChTraitsCRT@D@ATL@@@@@ATL@@QBEPAUIAtlStringMgr@2@XZ 0073470c f   mfc100d:mfc100d.dll
 0002:00215712       ?StringLength@?$CSimpleStringT@D$00@ATL@@SAHPBD@Z 00734712 f   mfc100d:mfc100d.dll
 0002:00215718       ?AfxThrowInvalidArgException@@YGXXZ 00734718 f   mfc100d:mfc100d.dll
 0002:0021571e       ??0CObject@@IAE@XZ         0073471e f   mfc100d:mfc100d.dll
 0002:00215724       ?GetRuntimeClass@CObject@@UBEPAUCRuntimeClass@@XZ 00734724 f   mfc100d:mfc100d.dll
 0002:0021572a       ?AfxAssertValidObject@@YGXPBVCObject@@PBDH@Z 0073472a f   mfc100d:mfc100d.dll
 0002:00215730       ?AfxThrowMemoryException@@YGXXZ 00734730 f   mfc100d:mfc100d.dll
 0002:00215736       ??_U@YAPAXI@Z              00734736 f   mfc100d:mfc100d.dll
 0002:0021573c       ??_U@YAPAXIPBDH@Z          0073473c f   mfc100d:mfc100d.dll
 0002:00215742       ??_V@YAXPAX@Z              00734742 f   mfc100d:mfc100d.dll
 0002:00215748       ??1CObject@@UAE@XZ         00734748 f   mfc100d:mfc100d.dll
 0002:0021574e       ??$SerializeElements@V?$CStringT@DV?$StrTraitMFC_DLL@DV?$ChTraitsCRT@D@ATL@@@@@ATL@@@@YGXAAVCArchive@@PAV?$CStringT@DV?$StrTraitMFC_DLL@DV?$ChTraitsCRT@D@ATL@@@@@ATL@@H@Z 0073474e f   mfc100d:mfc100d.dll
 0002:00215754       ?ReadCount@CArchive@@QAEKXZ 00734754 f   mfc100d:mfc100d.dll
 0002:0021575a       ?WriteCount@CArchive@@QAEXK@Z 0073475a f   mfc100d:mfc100d.dll
 0002:00215760       ?IsStoring@CArchive@@QBEHXZ 00734760 f   mfc100d:mfc100d.dll
 0002:00215766       ?Serialize@CObject@@UAEXAAVCArchive@@@Z 00734766 f   mfc100d:mfc100d.dll
 0002:0021576c       ?GetDepth@CDumpContext@@QBEHXZ 0073476c f   mfc100d:mfc100d.dll
 0002:00215772       ??6CDumpContext@@QAEAAV0@H@Z 00734772 f   mfc100d:mfc100d.dll
 0002:00215778       ??6CDumpContext@@QAEAAV0@PBD@Z 00734778 f   mfc100d:mfc100d.dll
 0002:0021577e       ?Dump@CObject@@UBEXAAVCDumpContext@@@Z 0073477e f   mfc100d:mfc100d.dll
 0002:00215784       ?AfxIsValidAddress@@YGHPBXIH@Z 00734784 f   mfc100d:mfc100d.dll
 0002:0021578a       ?AssertValid@CObject@@UBEXXZ 0073478a f   mfc100d:mfc100d.dll
 0002:00215790       ??3CObject@@SGXPAX@Z       00734790 f   mfc100d:mfc100d.dll
 0002:00215796       ?EnsureRead@CArchive@@QAEXPAXI@Z 00734796 f   mfc100d:mfc100d.dll
 0002:0021579c       ?Write@CArchive@@QAEXPBXI@Z 0073479c f   mfc100d:mfc100d.dll
 0002:002157a2       ?GetThisMessageMap@CDialog@@KGPBUAFX_MSGMAP@@XZ 007347a2 f   mfc100d:mfc100d.dll
 0002:002157a8       ??3CObject@@SGXPAXPBDH@Z   007347a8 f   mfc100d:mfc100d.dll
 0002:002157ae       ?BringWindowToTop@CWnd@@QAEXXZ 007347ae f   mfc100d:mfc100d.dll
 0002:002157b4       ?ShowWindow@CWnd@@QAEHH@Z  007347b4 f   mfc100d:mfc100d.dll
 0002:002157ba       ??2CObject@@SGPAXIPBDH@Z   007347ba f   mfc100d:mfc100d.dll
 0002:002157c0       ?AddString@CListBox@@QAEHPBD@Z 007347c0 f   mfc100d:mfc100d.dll
 0002:002157c6       ?DeleteString@CListBox@@QAEHI@Z 007347c6 f   mfc100d:mfc100d.dll
 0002:002157cc       ?GetCount@CListBox@@QBEHXZ 007347cc f   mfc100d:mfc100d.dll
 0002:002157d2       ?FindString@CListBox@@QBEHHPBD@Z 007347d2 f   mfc100d:mfc100d.dll
 0002:002157d8       ?FindStringExact@CListBox@@QBEHHPBD@Z 007347d8 f   mfc100d:mfc100d.dll
 0002:002157de       ?FindOneOf@?$CStringT@DV?$StrTraitMFC_DLL@DV?$ChTraitsCRT@D@ATL@@@@@ATL@@QBEHPBD@Z 007347de f   mfc100d:mfc100d.dll
 0002:002157e4       ?AfxGetMainWnd@@YGPAVCWnd@@XZ 007347e4 f   mfc100d:mfc100d.dll
 0002:002157ea       ?ReverseFind@?$CStringT@DV?$StrTraitMFC_DLL@DV?$ChTraitsCRT@D@ATL@@@@@ATL@@QBEHD@Z 007347ea f   mfc100d:mfc100d.dll
 0002:002157f0       ?GetThisClass@CDialog@@SGPAUCRuntimeClass@@XZ 007347f0 f   mfc100d:mfc100d.dll
 0002:002157f6       ??1CListBox@@UAE@XZ        007347f6 f   mfc100d:mfc100d.dll
 0002:002157fc       ??1CComboBox@@UAE@XZ       007347fc f   mfc100d:mfc100d.dll
 0002:00215802       ??1CButton@@UAE@XZ         00734802 f   mfc100d:mfc100d.dll
 0002:00215808       ??1CStatic@@UAE@XZ         00734808 f   mfc100d:mfc100d.dll
 0002:0021580e       ??1CDialog@@UAE@XZ         0073480e f   mfc100d:mfc100d.dll
 0002:00215814       ??0CListBox@@QAE@XZ        00734814 f   mfc100d:mfc100d.dll
 0002:0021581a       ??0CComboBox@@QAE@XZ       0073481a f   mfc100d:mfc100d.dll
 0002:00215820       ??0CButton@@QAE@XZ         00734820 f   mfc100d:mfc100d.dll
 0002:00215826       ??0CStatic@@QAE@XZ         00734826 f   mfc100d:mfc100d.dll
 0002:0021582c       ??0CDialog@@QAE@IPAVCWnd@@@Z 0073482c f   mfc100d:mfc100d.dll
 0002:00215832       ?AssertValid@CDialog@@UBEXXZ 00734832 f   mfc100d:mfc100d.dll
 0002:00215838       ?Dump@CDialog@@UBEXAAVCDumpContext@@@Z 00734838 f   mfc100d:mfc100d.dll
 0002:0021583e       ?OnCmdMsg@CDialog@@UAEHIHPAXPAUAFX_CMDHANDLERINFO@@@Z 0073483e f   mfc100d:mfc100d.dll
 0002:00215844       ?OnFinalRelease@CWnd@@UAEXXZ 00734844 f   mfc100d:mfc100d.dll
 0002:0021584a       ?IsInvokeAllowed@CCmdTarget@@UAEHJ@Z 0073484a f   mfc100d:mfc100d.dll
 0002:00215850       ?GetDispatchIID@CCmdTarget@@UAEHPAU_GUID@@@Z 00734850 f   mfc100d:mfc100d.dll
 0002:00215856       ?GetTypeInfoCount@CCmdTarget@@UAEIXZ 00734856 f   mfc100d:mfc100d.dll
 0002:0021585c       ?GetTypeLibCache@CCmdTarget@@UAEPAVCTypeLibCache@@XZ 0073485c f   mfc100d:mfc100d.dll
 0002:00215862       ?GetTypeLib@CCmdTarget@@UAEJKPAPAUITypeLib@@@Z 00734862 f   mfc100d:mfc100d.dll
 0002:00215868       ?GetCommandMap@CCmdTarget@@MBEPBUAFX_OLECMDMAP@@XZ 00734868 f   mfc100d:mfc100d.dll
 0002:0021586e       ?GetDispatchMap@CCmdTarget@@MBEPBUAFX_DISPMAP@@XZ 0073486e f   mfc100d:mfc100d.dll
 0002:00215874       ?GetConnectionMap@CCmdTarget@@MBEPBUAFX_CONNECTIONMAP@@XZ 00734874 f   mfc100d:mfc100d.dll
 0002:0021587a       ?GetInterfaceMap@CWnd@@MBEPBUAFX_INTERFACEMAP@@XZ 0073487a f   mfc100d:mfc100d.dll
 0002:00215880       ?GetEventSinkMap@CCmdTarget@@MBEPBUAFX_EVENTSINKMAP@@XZ 00734880 f   mfc100d:mfc100d.dll
 0002:00215886       ?OnCreateAggregates@CCmdTarget@@UAEHXZ 00734886 f   mfc100d:mfc100d.dll
 0002:0021588c       ?GetInterfaceHook@CCmdTarget@@UAEPAUIUnknown@@PBX@Z 0073488c f   mfc100d:mfc100d.dll
 0002:00215892       ?GetExtraConnectionPoints@CCmdTarget@@MAEHPAVCPtrArray@@@Z 00734892 f   mfc100d:mfc100d.dll
 0002:00215898       ?GetConnectionHook@CCmdTarget@@MAEPAUIConnectionPoint@@ABU_GUID@@@Z 00734898 f   mfc100d:mfc100d.dll
 0002:0021589e       ?PreSubclassWindow@CWnd@@UAEXXZ 0073489e f   mfc100d:mfc100d.dll
 0002:002158a4       ?Create@CWnd@@UAEHPBD0KABUtagRECT@@PAV1@IPAUCCreateContext@@@Z 007348a4 f   mfc100d:mfc100d.dll
 0002:002158aa       ?CreateEx@CWnd@@UAEHKPBD0KABUtagRECT@@PAV1@IPAX@Z 007348aa f   mfc100d:mfc100d.dll
 0002:002158b0       ?CreateEx@CWnd@@UAEHKPBD0KHHHHPAUHWND__@@PAUHMENU__@@PAX@Z 007348b0 f   mfc100d:mfc100d.dll
 0002:002158b6       ?DestroyWindow@CWnd@@UAEHXZ 007348b6 f   mfc100d:mfc100d.dll
 0002:002158bc       ?PreCreateWindow@CWnd@@UAEHAAUtagCREATESTRUCTA@@@Z 007348bc f   mfc100d:mfc100d.dll
 0002:002158c2       ?CalcWindowRect@CWnd@@UAEXPAUtagRECT@@I@Z 007348c2 f   mfc100d:mfc100d.dll
 0002:002158c8       ?GetMenu@CWnd@@UBEPAVCMenu@@XZ 007348c8 f   mfc100d:mfc100d.dll
 0002:002158ce       ?SetMenu@CWnd@@UAEHPAVCMenu@@@Z 007348ce f   mfc100d:mfc100d.dll
 0002:002158d4       ?OnToolHitTest@CWnd@@UBEHVCPoint@@PAUtagTOOLINFOA@@@Z 007348d4 f   mfc100d:mfc100d.dll
 0002:002158da       ?GetScrollBarCtrl@CWnd@@UBEPAVCScrollBar@@H@Z 007348da f   mfc100d:mfc100d.dll
 0002:002158e0       ?WinHelpA@CWnd@@UAEXKI@Z   007348e0 f   mfc100d:mfc100d.dll
 0002:002158e6       ?HtmlHelpA@CWnd@@UAEXKI@Z  007348e6 f   mfc100d:mfc100d.dll
 0002:002158ec       ?WinHelpInternal@CWnd@@UAEXKI@Z 007348ec f   mfc100d:mfc100d.dll
 0002:002158f2       ?ContinueModal@CWnd@@UAEHXZ 007348f2 f   mfc100d:mfc100d.dll
 0002:002158f8       ?EndModalLoop@CWnd@@UAEXH@Z 007348f8 f   mfc100d:mfc100d.dll
 0002:002158fe       ?OnDrawIconicThumbnailOrLivePreview@CWnd@@UAEXAAVCDC@@VCRect@@VCSize@@HAAH@Z 007348fe f   mfc100d:mfc100d.dll
 0002:00215904       ?EnsureStdObj@CWnd@@UAEJXZ 00734904 f   mfc100d:mfc100d.dll
 0002:0021590a       ?get_accParent@CWnd@@UAEJPAPAUIDispatch@@@Z 0073490a f   mfc100d:mfc100d.dll
 0002:00215910       ?get_accChildCount@CWnd@@UAEJPAJ@Z 00734910 f   mfc100d:mfc100d.dll
 0002:00215916       ?get_accChild@CWnd@@UAEJUtagVARIANT@@PAPAUIDispatch@@@Z 00734916 f   mfc100d:mfc100d.dll
 0002:0021591c       ?get_accName@CWnd@@UAEJUtagVARIANT@@PAPA_W@Z 0073491c f   mfc100d:mfc100d.dll
 0002:00215922       ?get_accValue@CWnd@@UAEJUtagVARIANT@@PAPA_W@Z 00734922 f   mfc100d:mfc100d.dll
 0002:00215928       ?get_accDescription@CWnd@@UAEJUtagVARIANT@@PAPA_W@Z 00734928 f   mfc100d:mfc100d.dll
 0002:0021592e       ?get_accRole@CWnd@@UAEJUtagVARIANT@@PAU2@@Z 0073492e f   mfc100d:mfc100d.dll
 0002:00215934       ?get_accState@CWnd@@UAEJUtagVARIANT@@PAU2@@Z 00734934 f   mfc100d:mfc100d.dll
 0002:0021593a       ?get_accHelp@CWnd@@UAEJUtagVARIANT@@PAPA_W@Z 0073493a f   mfc100d:mfc100d.dll
 0002:00215940       ?get_accHelpTopic@CWnd@@UAEJPAPA_WUtagVARIANT@@PAJ@Z 00734940 f   mfc100d:mfc100d.dll
 0002:00215946       ?get_accKeyboardShortcut@CWnd@@UAEJUtagVARIANT@@PAPA_W@Z 00734946 f   mfc100d:mfc100d.dll
 0002:0021594c       ?get_accFocus@CWnd@@UAEJPAUtagVARIANT@@@Z 0073494c f   mfc100d:mfc100d.dll
 0002:00215952       ?get_accSelection@CWnd@@UAEJPAUtagVARIANT@@@Z 00734952 f   mfc100d:mfc100d.dll
 0002:00215958       ?get_accDefaultAction@CWnd@@UAEJUtagVARIANT@@PAPA_W@Z 00734958 f   mfc100d:mfc100d.dll
 0002:0021595e       ?accSelect@CWnd@@UAEJJUtagVARIANT@@@Z 0073495e f   mfc100d:mfc100d.dll
 0002:00215964       ?accLocation@CWnd@@UAEJPAJ000UtagVARIANT@@@Z 00734964 f   mfc100d:mfc100d.dll
 0002:0021596a       ?accNavigate@CWnd@@UAEJJUtagVARIANT@@PAU2@@Z 0073496a f   mfc100d:mfc100d.dll
 0002:00215970       ?accHitTest@CWnd@@UAEJJJPAUtagVARIANT@@@Z 00734970 f   mfc100d:mfc100d.dll
 0002:00215976       ?accDoDefaultAction@CWnd@@UAEJUtagVARIANT@@@Z 00734976 f   mfc100d:mfc100d.dll
 0002:0021597c       ?put_accName@CWnd@@UAEJUtagVARIANT@@PA_W@Z 0073497c f   mfc100d:mfc100d.dll
 0002:00215982       ?put_accValue@CWnd@@UAEJUtagVARIANT@@PA_W@Z 00734982 f   mfc100d:mfc100d.dll
 0002:00215988       ?SetProxy@CWnd@@UAEJPAUIAccessibleProxy@@@Z 00734988 f   mfc100d:mfc100d.dll
 0002:0021598e       ?CreateAccessibleProxy@CWnd@@UAEJIJPAJ@Z 0073498e f   mfc100d:mfc100d.dll
 0002:00215994       ?OnCommand@CWnd@@MAEHIJ@Z  00734994 f   mfc100d:mfc100d.dll
 0002:0021599a       ?OnNotify@CWnd@@MAEHIJPAJ@Z 0073499a f   mfc100d:mfc100d.dll
 0002:002159a0       ?GetSuperWndProcAddr@CWnd@@MAEPAP6GJPAUHWND__@@IIJ@ZXZ 007349a0 f   mfc100d:mfc100d.dll
 0002:002159a6       ?BeginModalState@CWnd@@UAEXXZ 007349a6 f   mfc100d:mfc100d.dll
 0002:002159ac       ?EndModalState@CWnd@@UAEXXZ 007349ac f   mfc100d:mfc100d.dll
 0002:002159b2       ?PreTranslateMessage@CDialog@@UAEHPAUtagMSG@@@Z 007349b2 f   mfc100d:mfc100d.dll
 0002:002159b8       ?OnAmbientProperty@CWnd@@UAEHPAVCOleControlSite@@JPAUtagVARIANT@@@Z 007349b8 f   mfc100d:mfc100d.dll
 0002:002159be       ?WindowProc@CWnd@@MAEJIIJ@Z 007349be f   mfc100d:mfc100d.dll
 0002:002159c4       ?OnWndMsg@CWnd@@MAEHIIJPAJ@Z 007349c4 f   mfc100d:mfc100d.dll
 0002:002159ca       ?DefWindowProcA@CWnd@@MAEJIIJ@Z 007349ca f   mfc100d:mfc100d.dll
 0002:002159d0       ?PostNcDestroy@CWnd@@MAEXXZ 007349d0 f   mfc100d:mfc100d.dll
 0002:002159d6       ?OnChildNotify@CWnd@@MAEHIIJPAJ@Z 007349d6 f   mfc100d:mfc100d.dll
 0002:002159dc       ?OnTouchInputs@CWnd@@MAEHIPAUtagTOUCHINPUT@@@Z 007349dc f   mfc100d:mfc100d.dll
 0002:002159e2       ?OnTouchInput@CWnd@@MAEHVCPoint@@HHPAUtagTOUCHINPUT@@@Z 007349e2 f   mfc100d:mfc100d.dll
 0002:002159e8       ?GetGestureStatus@CWnd@@MAEKVCPoint@@@Z 007349e8 f   mfc100d:mfc100d.dll
 0002:002159ee       ?OnGestureZoom@CWnd@@MAEHVCPoint@@J@Z 007349ee f   mfc100d:mfc100d.dll
 0002:002159f4       ?OnGesturePan@CWnd@@MAEHVCPoint@@0@Z 007349f4 f   mfc100d:mfc100d.dll
 0002:002159fa       ?OnGestureRotate@CWnd@@MAEHVCPoint@@N@Z 007349fa f   mfc100d:mfc100d.dll
 0002:00215a00       ?OnGestureTwoFingerTap@CWnd@@MAEHVCPoint@@@Z 00734a00 f   mfc100d:mfc100d.dll
 0002:00215a06       ?OnGesturePressAndTap@CWnd@@MAEHVCPoint@@J@Z 00734a06 f   mfc100d:mfc100d.dll
 0002:00215a0c       ?CheckAutoCenter@CDialog@@UAEHXZ 00734a0c f   mfc100d:mfc100d.dll
 0002:00215a12       ?IsFrameWnd@CWnd@@UBEHXZ   00734a12 f   mfc100d:mfc100d.dll
 0002:00215a18       ?CreateControlContainer@CWnd@@MAEHPAPAVCOleControlContainer@@@Z 00734a18 f   mfc100d:mfc100d.dll
 0002:00215a1e       ?CreateControlSite@CWnd@@MAEHPAVCOleControlContainer@@PAPAVCOleControlSite@@IABU_GUID@@@Z 00734a1e f   mfc100d:mfc100d.dll
 0002:00215a24       ?SetOccDialogInfo@CDialog@@MAEHPAU_AFX_OCC_DIALOG_INFO@@@Z 00734a24 f   mfc100d:mfc100d.dll
 0002:00215a2a       ?GetOccDialogInfo@CDialog@@MAEPAU_AFX_OCC_DIALOG_INFO@@XZ 00734a2a f   mfc100d:mfc100d.dll
 0002:00215a30       ?Create@CDialog@@UAEHIPAVCWnd@@@Z 00734a30 f   mfc100d:mfc100d.dll
 0002:00215a36       ?Create@CDialog@@UAEHPBDPAVCWnd@@@Z 00734a36 f   mfc100d:mfc100d.dll
 0002:00215a3c       ?CreateIndirect@CDialog@@UAEHPAXPAVCWnd@@@Z 00734a3c f   mfc100d:mfc100d.dll
 0002:00215a42       ?CreateIndirect@CDialog@@UAEHPBUDLGTEMPLATE@@PAVCWnd@@PAX@Z 00734a42 f   mfc100d:mfc100d.dll
 0002:00215a48       ?DoModal@CDialog@@UAEHXZ   00734a48 f   mfc100d:mfc100d.dll
 0002:00215a4e       ?OnInitDialog@CDialog@@UAEHXZ 00734a4e f   mfc100d:mfc100d.dll
 0002:00215a54       ?OnSetFont@CDialog@@UAEXPAVCFont@@@Z 00734a54 f   mfc100d:mfc100d.dll
 0002:00215a5a       ?OnOK@CDialog@@MAEXXZ      00734a5a f   mfc100d:mfc100d.dll
 0002:00215a60       ?OnCancel@CDialog@@MAEXXZ  00734a60 f   mfc100d:mfc100d.dll
 0002:00215a66       ?PreInitDialog@CDialog@@MAEXXZ 00734a66 f   mfc100d:mfc100d.dll
 0002:00215a6c       ?CenterWindow@CWnd@@QAEXPAV1@@Z 00734a6c f   mfc100d:mfc100d.dll
 0002:00215a72       ?SetCurSel@CComboBox@@QAEHH@Z 00734a72 f   mfc100d:mfc100d.dll
 0002:00215a78       ?SetCheck@CButton@@QAEXH@Z 00734a78 f   mfc100d:mfc100d.dll
 0002:00215a7e       ?SetWindowTextA@CWnd@@QAEXPBD@Z 00734a7e f   mfc100d:mfc100d.dll
 0002:00215a84       ?EnableWindow@CWnd@@QAEHH@Z 00734a84 f   mfc100d:mfc100d.dll
 0002:00215a8a       ?Fail@CDataExchange@@QAEXXZ 00734a8a f   mfc100d:mfc100d.dll
 0002:00215a90       ?DDX_Control@@YGXPAVCDataExchange@@HAAVCWnd@@@Z 00734a90 f   mfc100d:mfc100d.dll
 0002:00215a96       ?DoDataExchange@CWnd@@MAEXPAVCDataExchange@@@Z 00734a96 f   mfc100d:mfc100d.dll
 0002:00215a9c       ?GetCurSel@CComboBox@@QBEHXZ 00734a9c f   mfc100d:mfc100d.dll
 0002:00215aa2       ?GetDlgItem@CWnd@@QBEPAV1@H@Z 00734aa2 f   mfc100d:mfc100d.dll
 0002:00215aa8       ?GetCheck@CButton@@QBEHXZ  00734aa8 f   mfc100d:mfc100d.dll
 0002:00215aae       ?GetCurSel@CListBox@@QBEHXZ 00734aae f   mfc100d:mfc100d.dll
 0002:00215ab4       ??Y?$CStringT@DV?$StrTraitMFC_DLL@DV?$ChTraitsCRT@D@ATL@@@@@ATL@@QAEAAV01@PBD@Z 00734ab4 f   mfc100d:mfc100d.dll
 0002:00215aba       ?GetText@CListBox@@QBEXHAAV?$CStringT@DV?$StrTraitMFC_DLL@DV?$ChTraitsCRT@D@ATL@@@@@ATL@@@Z 00734aba f   mfc100d:mfc100d.dll
 0002:00215ac0       ?AddString@CComboBox@@QAEHPBD@Z 00734ac0 f   mfc100d:mfc100d.dll
 0002:00215ac6       ?DeleteString@CComboBox@@QAEHI@Z 00734ac6 f   mfc100d:mfc100d.dll
 0002:00215acc       ?GetCount@CComboBox@@QBEHXZ 00734acc f   mfc100d:mfc100d.dll
 0002:00215ad2       ??1CFileFind@@UAE@XZ       00734ad2 f   mfc100d:mfc100d.dll
 0002:00215ad8       ?GetFileName@CFileFind@@UBE?AV?$CStringT@DV?$StrTraitMFC_DLL@DV?$ChTraitsCRT@D@ATL@@@@@ATL@@XZ 00734ad8 f   mfc100d:mfc100d.dll
 0002:00215ade       ?GetFilePath@CFileFind@@UBE?AV?$CStringT@DV?$StrTraitMFC_DLL@DV?$ChTraitsCRT@D@ATL@@@@@ATL@@XZ 00734ade f   mfc100d:mfc100d.dll
 0002:00215ae4       ?IsDots@CFileFind@@UBEHXZ  00734ae4 f   mfc100d:mfc100d.dll
 0002:00215aea       ?IsDirectory@CFileFind@@QBEHXZ 00734aea f   mfc100d:mfc100d.dll
 0002:00215af0       ?FindNextFileA@CFileFind@@UAEHXZ 00734af0 f   mfc100d:mfc100d.dll
 0002:00215af6       ?FindFile@CFileFind@@UAEHPBDK@Z 00734af6 f   mfc100d:mfc100d.dll
 0002:00215afc       ??0CFileFind@@QAE@XZ       00734afc f   mfc100d:mfc100d.dll
 0002:00215b02       ??0CPtrList@@QAE@H@Z       00734b02 f   mfc100d:mfc100d.dll
 0002:00215b08       ??1CPtrList@@UAE@XZ        00734b08 f   mfc100d:mfc100d.dll
 0002:00215b0e       ?RemoveHead@CPtrList@@QAEPAXXZ 00734b0e f   mfc100d:mfc100d.dll
 0002:00215b14       ?GetHead@CPtrList@@QAEAAPAXXZ 00734b14 f   mfc100d:mfc100d.dll
 0002:00215b1a       ?IsEmpty@CPtrList@@QBEHXZ  00734b1a f   mfc100d:mfc100d.dll
 0002:00215b20       ?RemoveAt@CPtrList@@QAEXPAU__POSITION@@@Z 00734b20 f   mfc100d:mfc100d.dll
 0002:00215b26       ?Find@CPtrList@@QBEPAU__POSITION@@PAXPAU2@@Z 00734b26 f   mfc100d:mfc100d.dll
 0002:00215b2c       ??3@YAXPAXPBDH@Z           00734b2c f   mfc100d:mfc100d.dll
 0002:00215b32       ?AddTail@CPtrList@@QAEPAU__POSITION@@PAX@Z 00734b32 f   mfc100d:mfc100d.dll
 0002:00215b38       ?GetSize@CPtrList@@QBEHXZ  00734b38 f   mfc100d:mfc100d.dll
 0002:00215b3e       ??2@YAPAXIPBDH@Z           00734b3e f   mfc100d:mfc100d.dll
 0002:00215b44       ?GetNext@CPtrList@@QAEAAPAXAAPAU__POSITION@@@Z 00734b44 f   mfc100d:mfc100d.dll
 0002:00215b4a       ?GetHeadPosition@CPtrList@@QBEPAU__POSITION@@XZ 00734b4a f   mfc100d:mfc100d.dll
 0002:00215b50       ?DeleteObject@CGdiObject@@QAEHXZ 00734b50 f   mfc100d:mfc100d.dll
 0002:00215b56       ??1CBitmap@@UAE@XZ         00734b56 f   mfc100d:mfc100d.dll
 0002:00215b5c       ?Ellipse@CDC@@QAEHPBUtagRECT@@@Z 00734b5c f   mfc100d:mfc100d.dll
 0002:00215b62       ??0CPen@@QAE@XZ            00734b62 f   mfc100d:mfc100d.dll
 0002:00215b68       ?SetPixel@CDC@@QAEKHHK@Z   00734b68 f   mfc100d:mfc100d.dll
 0002:00215b6e       ?Rectangle@CDC@@QAEHHHHH@Z 00734b6e f   mfc100d:mfc100d.dll
 0002:00215b74       ?Polyline@CDC@@QAEHPBUtagPOINT@@H@Z 00734b74 f   mfc100d:mfc100d.dll
 0002:00215b7a       ?LineTo@CDC@@QAEHHH@Z      00734b7a f   mfc100d:mfc100d.dll
 0002:00215b80       ?MoveTo@CDC@@QAE?AVCPoint@@HH@Z 00734b80 f   mfc100d:mfc100d.dll
 0002:00215b86       ?Ellipse@CDC@@QAEHHHHH@Z   00734b86 f   mfc100d:mfc100d.dll
 0002:00215b8c       ?CreatePen@CPen@@QAEHHHK@Z 00734b8c f   mfc100d:mfc100d.dll
 0002:00215b92       ?CreateSolidBrush@CBrush@@QAEHK@Z 00734b92 f   mfc100d:mfc100d.dll
 0002:00215b98       ?GetSafeHdc@CDC@@QBEPAUHDC__@@XZ 00734b98 f   mfc100d:mfc100d.dll
 0002:00215b9e       ??1CDC@@UAE@XZ             00734b9e f   mfc100d:mfc100d.dll
 0002:00215ba4       ?InvertRect@CDC@@QAEXPBUtagRECT@@@Z 00734ba4 f   mfc100d:mfc100d.dll
 0002:00215baa       ?StretchBlt@CDC@@QAEHHHHHPAV1@HHHHK@Z 00734baa f   mfc100d:mfc100d.dll
 0002:00215bb0       ?SelectObject@CDC@@QAEPAXPAX@Z 00734bb0 f   mfc100d:mfc100d.dll
 0002:00215bb6       ??BCGdiObject@@QBEPAXXZ    00734bb6 f   mfc100d:mfc100d.dll
 0002:00215bbc       ?SetStretchBltMode@CDC@@QAEHH@Z 00734bbc f   mfc100d:mfc100d.dll
 0002:00215bc2       ?CreateCompatibleDC@CDC@@QAEHPAV1@@Z 00734bc2 f   mfc100d:mfc100d.dll
 0002:00215bc8       ??0CDC@@QAE@XZ             00734bc8 f   mfc100d:mfc100d.dll
 0002:00215bce       ??1CBrush@@UAE@XZ          00734bce f   mfc100d:mfc100d.dll
 0002:00215bd4       ?BitBlt@CDC@@QAEHHHHHPAV1@HHK@Z 00734bd4 f   mfc100d:mfc100d.dll
 0002:00215bda       ??1CPen@@UAE@XZ            00734bda f   mfc100d:mfc100d.dll
 0002:00215be0       ?LineTo@CDC@@QAEHUtagPOINT@@@Z 00734be0 f   mfc100d:mfc100d.dll
 0002:00215be6       ?MoveTo@CDC@@QAE?AVCPoint@@UtagPOINT@@@Z 00734be6 f   mfc100d:mfc100d.dll
 0002:00215bec       ?SetROP2@CDC@@QAEHH@Z      00734bec f   mfc100d:mfc100d.dll
 0002:00215bf2       ?Rectangle@CDC@@QAEHPBUtagRECT@@@Z 00734bf2 f   mfc100d:mfc100d.dll
 0002:00215bf8       ?GetBkMode@CDC@@QBEHXZ     00734bf8 f   mfc100d:mfc100d.dll
 0002:00215bfe       ?SelectObject@CDC@@QAEPAVCBrush@@PAV2@@Z 00734bfe f   mfc100d:mfc100d.dll
 0002:00215c04       ?SelectObject@CDC@@QAEPAVCPen@@PAV2@@Z 00734c04 f   mfc100d:mfc100d.dll
 0002:00215c0a       ??0CPen@@QAE@HHK@Z         00734c0a f   mfc100d:mfc100d.dll
 0002:00215c10       ??0CBrush@@QAE@K@Z         00734c10 f   mfc100d:mfc100d.dll
 0002:00215c16       ?GetROP2@CDC@@QBEHXZ       00734c16 f   mfc100d:mfc100d.dll
 0002:00215c1c       ?SetWindowOrg@CDC@@QAE?AVCPoint@@HH@Z 00734c1c f   mfc100d:mfc100d.dll
 0002:00215c22       ?CompareNoCase@?$CStringT@DV?$StrTraitMFC_DLL@DV?$ChTraitsCRT@D@ATL@@@@@ATL@@QBEHPBD@Z 00734c22 f   mfc100d:mfc100d.dll
 0002:00215c28       ??0CBitmap@@QAE@XZ         00734c28 f   mfc100d:mfc100d.dll
 0002:00215c2e       ??1CFile@@UAE@XZ           00734c2e f   mfc100d:mfc100d.dll
 0002:00215c34       ??1CArchive@@QAE@XZ        00734c34 f   mfc100d:mfc100d.dll
 0002:00215c3a       ?Close@CFile@@UAEXXZ       00734c3a f   mfc100d:mfc100d.dll
 0002:00215c40       ?Close@CArchive@@QAEXXZ    00734c40 f   mfc100d:mfc100d.dll
 0002:00215c46       ??0CArchiveStream@@QAE@PAVCArchive@@@Z 00734c46 f   mfc100d:mfc100d.dll
 0002:00215c4c       ??0CArchive@@QAE@PAVCFile@@IHPAX@Z 00734c4c f   mfc100d:mfc100d.dll
 0002:00215c52       ?Open@CFile@@UAEHPBDIPAVCFileException@@@Z 00734c52 f   mfc100d:mfc100d.dll
 0002:00215c58       ??0CFile@@QAE@XZ           00734c58 f   mfc100d:mfc100d.dll
 0002:00215c5e       ?Attach@CGdiObject@@QAEHPAX@Z 00734c5e f   mfc100d:mfc100d.dll
 0002:00215c64       ?GetBitmap@CBitmap@@QAEHPAUtagBITMAP@@@Z 00734c64 f   mfc100d:mfc100d.dll
 0002:00215c6a       ??1CEdit@@UAE@XZ           00734c6a f   mfc100d:mfc100d.dll
 0002:00215c70       ??0CEdit@@QAE@XZ           00734c70 f   mfc100d:mfc100d.dll
 0002:00215c76       ?PrepareEditCtrl@CDataExchange@@QAEPAUHWND__@@H@Z 00734c76 f   mfc100d:mfc100d.dll
 0002:00215c7c       ?InsertString@CComboBox@@QAEHHPBD@Z 00734c7c f   mfc100d:mfc100d.dll
 0002:00215c82       ?DDX_Check@@YGXPAVCDataExchange@@HAAH@Z 00734c82 f   mfc100d:mfc100d.dll
 0002:00215c88       ?GetWindowTextA@CWnd@@QBEXAAV?$CStringT@DV?$StrTraitMFC_DLL@DV?$ChTraitsCRT@D@ATL@@@@@ATL@@@Z 00734c88 f   mfc100d:mfc100d.dll
 0002:00215c8e       ?GetSafeHwnd@CWnd@@QBEPAUHWND__@@XZ 00734c8e f   mfc100d:mfc100d.dll
 0002:00215c94       ?FindStringExact@CComboBox@@QBEHHPBD@Z 00734c94 f   mfc100d:mfc100d.dll
 0002:00215c9a       ?GetLBText@CComboBox@@QBEXHAAV?$CStringT@DV?$StrTraitMFC_DLL@DV?$ChTraitsCRT@D@ATL@@@@@ATL@@@Z 00734c9a f   mfc100d:mfc100d.dll
 0002:00215ca0       ?SetFocus@CWnd@@QAEPAV1@XZ 00734ca0 f   mfc100d:mfc100d.dll
 0002:00215ca6       ?GetBuffer@?$CSimpleStringT@D$00@ATL@@QAEPADXZ 00734ca6 f   mfc100d:mfc100d.dll
 0002:00215cac       ?Find@?$CStringT@DV?$StrTraitMFC_DLL@DV?$ChTraitsCRT@D@ATL@@@@@ATL@@QBEHDH@Z 00734cac f   mfc100d:mfc100d.dll
 0002:00215cb2       ?DDX_Text@@YGXPAVCDataExchange@@HAAV?$CStringT@DV?$StrTraitMFC_DLL@DV?$ChTraitsCRT@D@ATL@@@@@ATL@@@Z 00734cb2 f   mfc100d:mfc100d.dll
 0002:00215cb8       ?SetEditSel@CComboBox@@QAEHHH@Z 00734cb8 f   mfc100d:mfc100d.dll
 0002:00215cbe       ?GetAt@?$CSimpleStringT@D$00@ATL@@QBEDH@Z 00734cbe f   mfc100d:mfc100d.dll
 0002:00215cc4       ?SetCurSel@CListBox@@QAEHH@Z 00734cc4 f   mfc100d:mfc100d.dll
 0002:00215cca       ?GetSel@CListBox@@QBEHH@Z  00734cca f   mfc100d:mfc100d.dll
 0002:00215cd0       ?MakeLower@?$CStringT@DV?$StrTraitMFC_DLL@DV?$ChTraitsCRT@D@ATL@@@@@ATL@@QAEAAV12@XZ 00734cd0 f   mfc100d:mfc100d.dll
 0002:00215cd6       ??1CWnd@@UAE@XZ            00734cd6 f   mfc100d:mfc100d.dll
 0002:00215cdc       ?SetBitmap@CStatic@@QAEPAUHBITMAP__@@PAU2@@Z 00734cdc f   mfc100d:mfc100d.dll
 0002:00215ce2       ??BCBitmap@@QBEPAUHBITMAP__@@XZ 00734ce2 f   mfc100d:mfc100d.dll
 0002:00215ce8       ?LoadBitmapA@CBitmap@@QAEHI@Z 00734ce8 f   mfc100d:mfc100d.dll
 0002:00215cee       ?SetIcon@CWnd@@QAEPAUHICON__@@PAU2@H@Z 00734cee f   mfc100d:mfc100d.dll
 0002:00215cf4       ?LoadIconA@CWinApp@@QBEPAUHICON__@@I@Z 00734cf4 f   mfc100d:mfc100d.dll
 0002:00215cfa       ?AfxGetApp@@YGPAVCWinApp@@XZ 00734cfa f   mfc100d:mfc100d.dll
 0002:00215d00       ?ReleaseDC@CWnd@@QAEHPAVCDC@@@Z 00734d00 f   mfc100d:mfc100d.dll
 0002:00215d06       ?GetDC@CWnd@@QAEPAVCDC@@XZ 00734d06 f   mfc100d:mfc100d.dll
 0002:00215d0c       ?GetClientRect@CWnd@@QBEXPAUtagRECT@@@Z 00734d0c f   mfc100d:mfc100d.dll
 0002:00215d12       ?SetTimer@CWnd@@QAEIIIP6GXPAUHWND__@@IIK@Z@Z 00734d12 f   mfc100d:mfc100d.dll
 0002:00215d18       ?SetWindowPos@CWnd@@QAEHPBV1@HHHHI@Z 00734d18 f   mfc100d:mfc100d.dll
 0002:00215d1e       ?GetWindowRect@CWnd@@QBEXPAUtagRECT@@@Z 00734d1e f   mfc100d:mfc100d.dll
 0002:00215d24       ?FindWindowA@CWnd@@SGPAV1@PBD0@Z 00734d24 f   mfc100d:mfc100d.dll
 0002:00215d2a       ?SetFont@CWnd@@QAEXPAVCFont@@H@Z 00734d2a f   mfc100d:mfc100d.dll
 0002:00215d30       ?SetForegroundWindow@CWnd@@QAEHXZ 00734d30 f   mfc100d:mfc100d.dll
 0002:00215d36       ?TrimLeft@?$CStringT@DV?$StrTraitMFC_DLL@DV?$ChTraitsCRT@D@ATL@@@@@ATL@@QAEAAV12@XZ 00734d36 f   mfc100d:mfc100d.dll
 0002:00215d3c       ?UpdateWindow@CWnd@@QAEXXZ 00734d3c f   mfc100d:mfc100d.dll
 0002:00215d42       ?Invalidate@CWnd@@QAEXH@Z  00734d42 f   mfc100d:mfc100d.dll
 0002:00215d48       ?SeekToEnd@CFile@@QAE_KXZ  00734d48 f   mfc100d:mfc100d.dll
 0002:00215d4e       ?FindString@CComboBox@@QBEHHPBD@Z 00734d4e f   mfc100d:mfc100d.dll
 0002:00215d54       ?OnTimer@CWnd@@IAEXI@Z     00734d54 f   mfc100d:mfc100d.dll
 0002:00215d5a       ?OpenClipboard@CWnd@@QAEHXZ 00734d5a f   mfc100d:mfc100d.dll
 0002:00215d60       ?SetIcon@CButton@@QAEPAUHICON__@@PAU2@@Z 00734d60 f   mfc100d:mfc100d.dll
 0002:00215d66       ?GetEditSel@CComboBox@@QBEKXZ 00734d66 f   mfc100d:mfc100d.dll
 0002:00215d6c       ??0CBrush@@QAE@XZ          00734d6c f   mfc100d:mfc100d.dll
 0002:00215d72       ??BCBrush@@QBEPAUHBRUSH__@@XZ 00734d72 f   mfc100d:mfc100d.dll
 0002:00215d78       ?SetBkMode@CDC@@QAEHH@Z    00734d78 f   mfc100d:mfc100d.dll
 0002:00215d7e       ?GetDlgCtrlID@CWnd@@QBEHXZ 00734d7e f   mfc100d:mfc100d.dll
 0002:00215d84       ?OnCtlColor@CWnd@@IAEPAUHBRUSH__@@PAVCDC@@PAV1@I@Z 00734d84 f   mfc100d:mfc100d.dll
 0002:00215d8a       ?GetColor@CColorDialog@@QBEKXZ 00734d8a f   mfc100d:mfc100d.dll
 0002:00215d90       ?DoModal@CColorDialog@@UAEHXZ 00734d90 f   mfc100d:mfc100d.dll
 0002:00215d96       ??0CColorDialog@@QAE@KKPAVCWnd@@@Z 00734d96 f   mfc100d:mfc100d.dll
 0002:00215d9c       ?GetRuntimeClass@CCommonDialog@@UBEPAUCRuntimeClass@@XZ 00734d9c f   mfc100d:mfc100d.dll
 0002:00215da2       ?GetMessageMap@CCommonDialog@@MBEPBUAFX_MSGMAP@@XZ 00734da2 f   mfc100d:mfc100d.dll
 0002:00215da8       ?OnOK@CCommonDialog@@MAEXXZ 00734da8 f   mfc100d:mfc100d.dll
 0002:00215dae       ?OnCancel@CCommonDialog@@MAEXXZ 00734dae f   mfc100d:mfc100d.dll
 0002:00215db4       ?LimitText@CEdit@@QAEXH@Z  00734db4 f   mfc100d:mfc100d.dll
 0002:00215dba       ?MoveWindow@CWnd@@QAEXPBUtagRECT@@H@Z 00734dba f   mfc100d:mfc100d.dll
 0002:00215dc0       ?ReplaceSel@CEdit@@QAEXPBDH@Z 00734dc0 f   mfc100d:mfc100d.dll
 0002:00215dc6       ?SetSel@CEdit@@QAEXHHH@Z   00734dc6 f   mfc100d:mfc100d.dll
 0002:00215dcc       ?GetWindowTextLengthA@CWnd@@QBEHXZ 00734dcc f   mfc100d:mfc100d.dll
 0002:00215dd2       ?OnSetCursor@CWnd@@IAEHPAV1@II@Z 00734dd2 f   mfc100d:mfc100d.dll
 0002:00215dd8       ?MoveWindow@CWnd@@QAEXHHHHH@Z 00734dd8 f   mfc100d:mfc100d.dll
 0002:00215dde       ??1CListCtrl@@UAE@XZ       00734dde f   mfc100d:mfc100d.dll
 0002:00215de4       ??0CListCtrl@@QAE@XZ       00734de4 f   mfc100d:mfc100d.dll
 0002:00215dea       ?GetWindow@CWnd@@QBEPAV1@I@Z 00734dea f   mfc100d:mfc100d.dll
 0002:00215df0       ?InsertColumn@CListCtrl@@QAEHHPBDHHH@Z 00734df0 f   mfc100d:mfc100d.dll
 0002:00215df6       ?SortItems@CListCtrl@@QAEHP6GHJJJ@ZK@Z 00734df6 f   mfc100d:mfc100d.dll
 0002:00215dfc       ?SetItem@CListCtrl@@QAEHHHIPBDHIIJ@Z 00734dfc f   mfc100d:mfc100d.dll
 0002:00215e02       ?SetItemData@CListCtrl@@QAEHHK@Z 00734e02 f   mfc100d:mfc100d.dll
 0002:00215e08       ?InsertItem@CListCtrl@@QAEHHPBD@Z 00734e08 f   mfc100d:mfc100d.dll
 0002:00215e0e       ?DeleteAllItems@CListCtrl@@QAEHXZ 00734e0e f   mfc100d:mfc100d.dll
 0002:00215e14       ?SetExtendedStyle@CListCtrl@@QAEKK@Z 00734e14 f   mfc100d:mfc100d.dll
 0002:00215e1a       ?GetExtendedStyle@CListCtrl@@QBEKXZ 00734e1a f   mfc100d:mfc100d.dll
 0002:00215e20       ?GetItemState@CListCtrl@@QBEIHI@Z 00734e20 f   mfc100d:mfc100d.dll
 0002:00215e26       ?GetItemData@CListCtrl@@QBEKH@Z 00734e26 f   mfc100d:mfc100d.dll
 0002:00215e2c       ?GetItemCount@CListCtrl@@QBEHXZ 00734e2c f   mfc100d:mfc100d.dll
 0002:00215e32       ?SetItemState@CListCtrl@@QAEHHII@Z 00734e32 f   mfc100d:mfc100d.dll
 0002:00215e38       ?GetColumnWidth@CListCtrl@@QBEHH@Z 00734e38 f   mfc100d:mfc100d.dll
 0002:00215e3e       ?GetItemText@CListCtrl@@QBE?AV?$CStringT@DV?$StrTraitMFC_DLL@DV?$ChTraitsCRT@D@ATL@@@@@ATL@@HH@Z 00734e3e f   mfc100d:mfc100d.dll
 0002:00215e44       ?GetSelectedCount@CListCtrl@@QBEIXZ 00734e44 f   mfc100d:mfc100d.dll
 0002:00215e4a       ??4?$CStringT@DV?$StrTraitMFC_DLL@DV?$ChTraitsCRT@D@ATL@@@@@ATL@@QAEAAV01@D@Z 00734e4a f   mfc100d:mfc100d.dll
 0002:00215e50       ?SelectString@CListBox@@QAEHHPBD@Z 00734e50 f   mfc100d:mfc100d.dll
 0002:00215e56       ?DDV_MinMaxDouble@@YGXPAVCDataExchange@@ABNNN@Z 00734e56 f   mfc100d:mfc100d.dll
 0002:00215e5c       ?DDX_Text@@YGXPAVCDataExchange@@HAAN@Z 00734e5c f   mfc100d:mfc100d.dll
 0002:00215e62       ?DDV_MinMaxInt@@YGXPAVCDataExchange@@HHH@Z 00734e62 f   mfc100d:mfc100d.dll
 0002:00215e68       ?DDX_Text@@YGXPAVCDataExchange@@HAAH@Z 00734e68 f   mfc100d:mfc100d.dll
 0002:00215e6e       ?TrimRight@?$CStringT@DV?$StrTraitMFC_DLL@DV?$ChTraitsCRT@D@ATL@@@@@ATL@@QAEAAV12@XZ 00734e6e f   mfc100d:mfc100d.dll
 0002:00215e74       ?SetItemText@CListCtrl@@QAEHHHPBD@Z 00734e74 f   mfc100d:mfc100d.dll
 0002:00215e7a       ??1CMenu@@UAE@XZ           00734e7a f   mfc100d:mfc100d.dll
 0002:00215e80       ?TrackPopupMenu@CMenu@@QAEHIHHPAVCWnd@@PBUtagRECT@@@Z 00734e80 f   mfc100d:mfc100d.dll
 0002:00215e86       ?EnableMenuItem@CMenu@@QAEIII@Z 00734e86 f   mfc100d:mfc100d.dll
 0002:00215e8c       ?GetSubMenu@CMenu@@QBEPAV1@H@Z 00734e8c f   mfc100d:mfc100d.dll
 0002:00215e92       ?LoadMenuA@CMenu@@QAEHI@Z  00734e92 f   mfc100d:mfc100d.dll
 0002:00215e98       ??0CMenu@@QAE@XZ           00734e98 f   mfc100d:mfc100d.dll
 0002:00215e9e       ?DDX_Radio@@YGXPAVCDataExchange@@HAAH@Z 00734e9e f   mfc100d:mfc100d.dll
 0002:00215ea4       ?Insert@?$CStringT@DV?$StrTraitMFC_DLL@DV?$ChTraitsCRT@D@ATL@@@@@ATL@@QAEHHPBD@Z 00734ea4 f   mfc100d:mfc100d.dll
 0002:00215eaa       ?AppendChar@?$CSimpleStringT@D$00@ATL@@QAEXD@Z 00734eaa f   mfc100d:mfc100d.dll
 0002:00215eb0       ??A?$CSimpleStringT@D$00@ATL@@QBEDH@Z 00734eb0 f   mfc100d:mfc100d.dll
 0002:00215eb6       ?Tokenize@?$CStringT@DV?$StrTraitMFC_DLL@DV?$ChTraitsCRT@D@ATL@@@@@ATL@@QBE?AV12@PBDAAH@Z 00734eb6 f   mfc100d:mfc100d.dll
 0002:00215ebc       ?GetThisMessageMap@CDocument@@KGPBUAFX_MSGMAP@@XZ 00734ebc f   mfc100d:mfc100d.dll
 0002:00215ec2       ?GetThisClass@CDocument@@SGPAUCRuntimeClass@@XZ 00734ec2 f   mfc100d:mfc100d.dll
 0002:00215ec8       ??1CDocument@@UAE@XZ       00734ec8 f   mfc100d:mfc100d.dll
 0002:00215ece       ??0CDocument@@QAE@XZ       00734ece f   mfc100d:mfc100d.dll
 0002:00215ed4       ?OnCmdMsg@CDocument@@UAEHIHPAXPAUAFX_CMDHANDLERINFO@@@Z 00734ed4 f   mfc100d:mfc100d.dll
 0002:00215eda       ?OnFinalRelease@CDocument@@UAEXXZ 00734eda f   mfc100d:mfc100d.dll
 0002:00215ee0       ?GetInterfaceMap@CCmdTarget@@MBEPBUAFX_INTERFACEMAP@@XZ 00734ee0 f   mfc100d:mfc100d.dll
 0002:00215ee6       ?SetTitle@CDocument@@UAEXPBD@Z 00734ee6 f   mfc100d:mfc100d.dll
 0002:00215eec       ?SetPathName@CDocument@@UAEXPBDH@Z 00734eec f   mfc100d:mfc100d.dll
 0002:00215ef2       ?ClearPathName@CDocument@@UAEXXZ 00734ef2 f   mfc100d:mfc100d.dll
 0002:00215ef8       ?IsModified@CDocument@@UAEHXZ 00734ef8 f   mfc100d:mfc100d.dll
 0002:00215efe       ?SetModifiedFlag@CDocument@@UAEXH@Z 00734efe f   mfc100d:mfc100d.dll
 0002:00215f04       ?GetFirstViewPosition@CDocument@@UBEPAU__POSITION@@XZ 00734f04 f   mfc100d:mfc100d.dll
 0002:00215f0a       ?GetNextView@CDocument@@UBEPAVCView@@AAPAU__POSITION@@@Z 00734f0a f   mfc100d:mfc100d.dll
 0002:00215f10       ?OnChangedViewList@CDocument@@UAEXXZ 00734f10 f   mfc100d:mfc100d.dll
 0002:00215f16       ?DeleteContents@CDocument@@UAEXXZ 00734f16 f   mfc100d:mfc100d.dll
 0002:00215f1c       ?OnOpenDocument@CDocument@@UAEHPBD@Z 00734f1c f   mfc100d:mfc100d.dll
 0002:00215f22       ?OnCloseDocument@CDocument@@UAEXXZ 00734f22 f   mfc100d:mfc100d.dll
 0002:00215f28       ?ReportSaveLoadException@CDocument@@UAEXPBDPAVCException@@HI@Z 00734f28 f   mfc100d:mfc100d.dll
 0002:00215f2e       ?GetFile@CDocument@@UAEPAVCFile@@PBDIPAVCFileException@@@Z 00734f2e f   mfc100d:mfc100d.dll
 0002:00215f34       ?ReleaseFile@CDocument@@UAEXPAVCFile@@H@Z 00734f34 f   mfc100d:mfc100d.dll
 0002:00215f3a       ?OnRichPreviewUnload@CDocument@@UAEXXZ 00734f3a f   mfc100d:mfc100d.dll
 0002:00215f40       ?LoadDocumentFromStream@CDocument@@UAEJPAUIStream@@K@Z 00734f40 f   mfc100d:mfc100d.dll
 0002:00215f46       ?GetThumbnail@CDocument@@UAEHIPAPAUHBITMAP__@@PAW4WTS_ALPHATYPE@@@Z 00734f46 f   mfc100d:mfc100d.dll
 0002:00215f4c       ?ClearChunkList@CDocument@@UAEXXZ 00734f4c f   mfc100d:mfc100d.dll
 0002:00215f52       ?SetChunkValue@CDocument@@UAEHPAUIFilterChunkValue@ATL@@@Z 00734f52 f   mfc100d:mfc100d.dll
 0002:00215f58       ?BeginReadChunks@CDocument@@UAEXXZ 00734f58 f   mfc100d:mfc100d.dll
 0002:00215f5e       ?ReadNextChunkValue@CDocument@@UAEHPAPAUIFilterChunkValue@ATL@@@Z 00734f5e f   mfc100d:mfc100d.dll
 0002:00215f64       ?RemoveChunk@CDocument@@UAEXABU_GUID@@K@Z 00734f64 f   mfc100d:mfc100d.dll
 0002:00215f6a       ?FindChunk@CDocument@@UAEPAU__POSITION@@ABU_GUID@@K@Z 00734f6a f   mfc100d:mfc100d.dll
 0002:00215f70       ?OnDocumentEvent@CDocument@@UAEXW4DocumentEvent@1@@Z 00734f70 f   mfc100d:mfc100d.dll
 0002:00215f76       ?CanCloseFrame@CDocument@@UAEHPAVCFrameWnd@@@Z 00734f76 f   mfc100d:mfc100d.dll
 0002:00215f7c       ?SaveModified@CDocument@@UAEHXZ 00734f7c f   mfc100d:mfc100d.dll
 0002:00215f82       ?PreCloseFrame@CDocument@@UAEXPAVCFrameWnd@@@Z 00734f82 f   mfc100d:mfc100d.dll
 0002:00215f88       ?DoSave@CDocument@@UAEHPBDH@Z 00734f88 f   mfc100d:mfc100d.dll
 0002:00215f8e       ?DoFileSave@CDocument@@UAEHXZ 00734f8e f   mfc100d:mfc100d.dll
 0002:00215f94       ?UpdateFrameCounts@CDocument@@UAEXXZ 00734f94 f   mfc100d:mfc100d.dll
 0002:00215f9a       ?GetDefaultMenu@CDocument@@UAEPAUHMENU__@@XZ 00734f9a f   mfc100d:mfc100d.dll
 0002:00215fa0       ?GetDefaultAccelerator@CDocument@@UAEPAUHACCEL__@@XZ 00734fa0 f   mfc100d:mfc100d.dll
 0002:00215fa6       ?OnIdle@CDocument@@UAEXXZ  00734fa6 f   mfc100d:mfc100d.dll
 0002:00215fac       ?OnLoadDocumentFromStream@CDocument@@UAEJPAUIStream@@K@Z 00734fac f   mfc100d:mfc100d.dll
 0002:00215fb2       ?OnPreviewHandlerQueryFocus@CDocument@@UAEJPAPAUHWND__@@@Z 00734fb2 f   mfc100d:mfc100d.dll
 0002:00215fb8       ?OnPreviewHandlerTranslateAccelerator@CDocument@@UAEJPAUtagMSG@@@Z 00734fb8 f   mfc100d:mfc100d.dll
 0002:00215fbe       ?OnCreatePreviewFrame@CDocument@@UAEHXZ 00734fbe f   mfc100d:mfc100d.dll
 0002:00215fc4       ?OnUnloadHandler@CDocument@@UAEXXZ 00734fc4 f   mfc100d:mfc100d.dll
 0002:00215fca       ?OnDrawThumbnail@CDocument@@UAEXAAVCDC@@PAUtagRECT@@@Z 00734fca f   mfc100d:mfc100d.dll
 0002:00215fd0       ?SendInitialUpdate@CDocument@@QAEXXZ 00734fd0 f   mfc100d:mfc100d.dll
 0002:00215fd6       ?OnNewDocument@CDocument@@UAEHXZ 00734fd6 f   mfc100d:mfc100d.dll
 0002:00215fdc       ?AssertValid@CDocument@@UBEXXZ 00734fdc f   mfc100d:mfc100d.dll
 0002:00215fe2       ?Dump@CDocument@@UBEXAAVCDumpContext@@@Z 00734fe2 f   mfc100d:mfc100d.dll
 0002:00215fe8       ?OnSaveDocument@CDocument@@UAEHPBD@Z 00734fe8 f   mfc100d:mfc100d.dll
 0002:00215fee       ?GetMainWnd@CWinThread@@UAEPAVCWnd@@XZ 00734fee f   mfc100d:mfc100d.dll
 0002:00215ff4       ?GetActiveWindow@CWnd@@SGPAV1@XZ 00734ff4 f   mfc100d:mfc100d.dll
 0002:00215ffa       ?Close@CFileFind@@QAEXXZ   00734ffa f   mfc100d:mfc100d.dll
 0002:00216000       ?GetLastWriteTime@CFileFind@@UBEHAAVCTime@ATL@@@Z 00735000 f   mfc100d:mfc100d.dll
 0002:00216006       ?DrawMenuBar@CWnd@@QAEXXZ  00735006 f   mfc100d:mfc100d.dll
 0002:0021600c       ?SendMessageA@CWnd@@QBEJIIJ@Z 0073500c f   mfc100d:mfc100d.dll
 0002:00216012       ?Seek@CStdioFile@@UAE_K_JI@Z 00735012 f   mfc100d:mfc100d.dll
 0002:00216018       ??1CMapStringToPtr@@UAE@XZ 00735018 f   mfc100d:mfc100d.dll
 0002:0021601e       ??0CMapStringToPtr@@QAE@H@Z 0073501e f   mfc100d:mfc100d.dll
 0002:00216024       ?IsWindowVisible@CWnd@@QBEHXZ 00735024 f   mfc100d:mfc100d.dll
 0002:0021602a       ?ModifyMenuA@CMenu@@QAEHIIIPBD@Z 0073502a f   mfc100d:mfc100d.dll
 0002:00216030       ?GetMenuStringA@CMenu@@QBEHIAAV?$CStringT@DV?$StrTraitMFC_DLL@DV?$ChTraitsCRT@D@ATL@@@@@ATL@@I@Z 00735030 f   mfc100d:mfc100d.dll
 0002:00216036       ?InsertMenuA@CMenu@@QAEHIIIPBD@Z 00735036 f   mfc100d:mfc100d.dll
 0002:0021603c       ?GetMenuItemCount@CMenu@@QBEHXZ 0073503c f   mfc100d:mfc100d.dll
 0002:00216042       ?RemoveMenu@CMenu@@QAEHII@Z 00735042 f   mfc100d:mfc100d.dll
 0002:00216048       ?Delete@CException@@QAEXXZ 00735048 f   mfc100d:mfc100d.dll
 0002:0021604e       ??2@YAPAXI@Z               0073504e f   mfc100d:mfc100d.dll
 0002:00216054       ?GetThisMessageMap@CView@@KGPBUAFX_MSGMAP@@XZ 00735054 f   mfc100d:mfc100d.dll
 0002:0021605a       ?OnMove@CWnd@@IAEXHH@Z     0073505a f   mfc100d:mfc100d.dll
 0002:00216060       ?GetThisClass@CView@@SGPAUCRuntimeClass@@XZ 00735060 f   mfc100d:mfc100d.dll
 0002:00216066       ??1CRgn@@UAE@XZ            00735066 f   mfc100d:mfc100d.dll
 0002:0021606c       ??1CFont@@UAE@XZ           0073506c f   mfc100d:mfc100d.dll
 0002:00216072       ??1CView@@UAE@XZ           00735072 f   mfc100d:mfc100d.dll
 0002:00216078       ?CreateFontA@CFont@@QAEHHHHHHEEEEEEEEPBD@Z 00735078 f   mfc100d:mfc100d.dll
 0002:0021607e       ??0CRgn@@QAE@XZ            0073507e f   mfc100d:mfc100d.dll
 0002:00216084       ??0CFont@@QAE@XZ           00735084 f   mfc100d:mfc100d.dll
 0002:0021608a       ??0CView@@IAE@XZ           0073508a f   mfc100d:mfc100d.dll
 0002:00216090       ?OnCmdMsg@CView@@UAEHIHPAXPAUAFX_CMDHANDLERINFO@@@Z 00735090 f   mfc100d:mfc100d.dll
 0002:00216096       ?CalcWindowRect@CView@@UAEXPAUtagRECT@@I@Z 00735096 f   mfc100d:mfc100d.dll
 0002:0021609c       ?GetScrollBarCtrl@CView@@UBEPAVCScrollBar@@H@Z 0073509c f   mfc100d:mfc100d.dll
 0002:002160a2       ?PreTranslateMessage@CWnd@@UAEHPAUtagMSG@@@Z 007350a2 f   mfc100d:mfc100d.dll
 0002:002160a8       ?PostNcDestroy@CView@@MAEXXZ 007350a8 f   mfc100d:mfc100d.dll
 0002:002160ae       ?CheckAutoCenter@CWnd@@UAEHXZ 007350ae f   mfc100d:mfc100d.dll
 0002:002160b4       ?SetOccDialogInfo@CWnd@@MAEHPAU_AFX_OCC_DIALOG_INFO@@@Z 007350b4 f   mfc100d:mfc100d.dll
 0002:002160ba       ?GetOccDialogInfo@CWnd@@MAEPAU_AFX_OCC_DIALOG_INFO@@XZ 007350ba f   mfc100d:mfc100d.dll
 0002:002160c0       ?IsSelected@CView@@UBEHPBVCObject@@@Z 007350c0 f   mfc100d:mfc100d.dll
 0002:002160c6       ?OnScroll@CView@@UAEHIIH@Z 007350c6 f   mfc100d:mfc100d.dll
 0002:002160cc       ?OnScrollBy@CView@@UAEHVCSize@@H@Z 007350cc f   mfc100d:mfc100d.dll
 0002:002160d2       ?OnDragEnter@CView@@UAEKPAVCOleDataObject@@KVCPoint@@@Z 007350d2 f   mfc100d:mfc100d.dll
 0002:002160d8       ?OnDragOver@CView@@UAEKPAVCOleDataObject@@KVCPoint@@@Z 007350d8 f   mfc100d:mfc100d.dll
 0002:002160de       ?OnDragLeave@CView@@UAEXXZ 007350de f   mfc100d:mfc100d.dll
 0002:002160e4       ?OnDrop@CView@@UAEHPAVCOleDataObject@@KVCPoint@@@Z 007350e4 f   mfc100d:mfc100d.dll
 0002:002160ea       ?OnDropEx@CView@@UAEKPAVCOleDataObject@@KKVCPoint@@@Z 007350ea f   mfc100d:mfc100d.dll
 0002:002160f0       ?OnDragScroll@CView@@UAEKKVCPoint@@@Z 007350f0 f   mfc100d:mfc100d.dll
 0002:002160f6       ?OnPrepareDC@CView@@UAEXPAVCDC@@PAUCPrintInfo@@@Z 007350f6 f   mfc100d:mfc100d.dll
 0002:002160fc       ?OnInitialUpdate@CView@@UAEXXZ 007350fc f   mfc100d:mfc100d.dll
 0002:00216102       ?OnActivateView@CView@@MAEXHPAV1@0@Z 00735102 f   mfc100d:mfc100d.dll
 0002:00216108       ?OnActivateFrame@CView@@MAEXIPAVCFrameWnd@@@Z 00735108 f   mfc100d:mfc100d.dll
 0002:0021610e       ?OnUpdate@CView@@MAEXPAV1@JPAVCObject@@@Z 0073510e f   mfc100d:mfc100d.dll
 0002:00216114       ?OnPrint@CView@@MAEXPAVCDC@@PAUCPrintInfo@@@Z 00735114 f   mfc100d:mfc100d.dll
 0002:0021611a       ?OnEndPrintPreview@CView@@MAEXPAVCDC@@PAUCPrintInfo@@UtagPOINT@@PAVCPreviewView@@@Z 0073511a f   mfc100d:mfc100d.dll
 0002:00216120       ?PreCreateWindow@CView@@MAEHAAUtagCREATESTRUCTA@@@Z 00735120 f   mfc100d:mfc100d.dll
 0002:00216126       ?SelectClipRgn@CDC@@QAEHPAVCRgn@@@Z 00735126 f   mfc100d:mfc100d.dll
 0002:0021612c       ?RoundRect@CDC@@QAEHPBUtagRECT@@UtagPOINT@@@Z 0073512c f   mfc100d:mfc100d.dll
 0002:00216132       ?FillSolidRect@CDC@@QAEXPBUtagRECT@@K@Z 00735132 f   mfc100d:mfc100d.dll
 0002:00216138       ?DoPreparePrinting@CView@@QAEHPAUCPrintInfo@@@Z 00735138 f   mfc100d:mfc100d.dll
 0002:0021613e       ?AssertValid@CView@@UBEXXZ 0073513e f   mfc100d:mfc100d.dll
 0002:00216144       ?Dump@CView@@UBEXAAVCDumpContext@@@Z 00735144 f   mfc100d:mfc100d.dll
 0002:0021614a       ?IsKindOf@CObject@@QBEHPBUCRuntimeClass@@@Z 0073514a f   mfc100d:mfc100d.dll
 0002:00216150       ?CreateCompatibleBitmap@CBitmap@@QAEHPAVCDC@@HH@Z 00735150 f   mfc100d:mfc100d.dll
 0002:00216156       ?CreateRectRgn@CRgn@@QAEHHHHH@Z 00735156 f   mfc100d:mfc100d.dll
 0002:0021615c       ?OnSize@CWnd@@IAEXIHH@Z    0073515c f   mfc100d:mfc100d.dll
 0002:00216162       ?OnLButtonUp@CWnd@@IAEXIVCPoint@@@Z 00735162 f   mfc100d:mfc100d.dll
 0002:00216168       ?OnLButtonDblClk@CWnd@@IAEXIVCPoint@@@Z 00735168 f   mfc100d:mfc100d.dll
 0002:0021616e       ?OnRButtonDown@CWnd@@IAEXIVCPoint@@@Z 0073516e f   mfc100d:mfc100d.dll
 0002:00216174       ?OnSysKeyDown@CWnd@@IAEXIII@Z 00735174 f   mfc100d:mfc100d.dll
 0002:0021617a       ?OnSysKeyUp@CWnd@@IAEXIII@Z 0073517a f   mfc100d:mfc100d.dll
 0002:00216180       ?OnKeyUp@CWnd@@IAEXIII@Z   00735180 f   mfc100d:mfc100d.dll
 0002:00216186       ?OnKeyDown@CWnd@@IAEXIII@Z 00735186 f   mfc100d:mfc100d.dll
 0002:0021618c       ?DrawDragRect@CDC@@QAEXPBUtagRECT@@UtagSIZE@@01PAVCBrush@@2@Z 0073518c f   mfc100d:mfc100d.dll
 0002:00216192       ?OnMouseWheel@CWnd@@IAEHIFVCPoint@@@Z 00735192 f   mfc100d:mfc100d.dll
 0002:00216198       ?InsertMenuA@CMenu@@QAEHIIIPBVCBitmap@@@Z 00735198 f   mfc100d:mfc100d.dll
 0002:0021619e       ?GetPosition@CStdioFile@@UBE_KXZ 0073519e f   mfc100d:mfc100d.dll
 0002:002161a4       ?OnLButtonDown@CWnd@@IAEXIVCPoint@@@Z 007351a4 f   mfc100d:mfc100d.dll
 0002:002161aa       ??0?$CStringT@DV?$StrTraitMFC_DLL@DV?$ChTraitsCRT@D@ATL@@@@@ATL@@QAE@DH@Z 007351aa f   mfc100d:mfc100d.dll
 0002:002161b0       ?GetThisMessageMap@CWinApp@@KGPBUAFX_MSGMAP@@XZ 007351b0 f   mfc100d:mfc100d.dll
 0002:002161b6       ?OnFilePrintSetup@CWinApp@@IAEXXZ 007351b6 f   mfc100d:mfc100d.dll
 0002:002161bc       ?OnFileOpen@CWinApp@@IAEXXZ 007351bc f   mfc100d:mfc100d.dll
 0002:002161c2       ?OnFileNew@CWinApp@@IAEXXZ 007351c2 f   mfc100d:mfc100d.dll
 0002:002161c8       ??1CWinApp@@UAE@XZ         007351c8 f   mfc100d:mfc100d.dll
 0002:002161ce       ??0CWinApp@@QAE@PBD@Z      007351ce f   mfc100d:mfc100d.dll
 0002:002161d4       ?GetRuntimeClass@CWinApp@@UBEPAUCRuntimeClass@@XZ 007351d4 f   mfc100d:mfc100d.dll
 0002:002161da       ?AssertValid@CWinApp@@UBEXXZ 007351da f   mfc100d:mfc100d.dll
 0002:002161e0       ?Dump@CWinApp@@UBEXAAVCDumpContext@@@Z 007351e0 f   mfc100d:mfc100d.dll
 0002:002161e6       ?OnCmdMsg@CCmdTarget@@UAEHIHPAXPAUAFX_CMDHANDLERINFO@@@Z 007351e6 f   mfc100d:mfc100d.dll
 0002:002161ec       ?OnFinalRelease@CCmdTarget@@UAEXXZ 007351ec f   mfc100d:mfc100d.dll
 0002:002161f2       ?Run@CWinApp@@UAEHXZ       007351f2 f   mfc100d:mfc100d.dll
 0002:002161f8       ?PreTranslateMessage@CWinThread@@UAEHPAUtagMSG@@@Z 007351f8 f   mfc100d:mfc100d.dll
 0002:002161fe       ?PumpMessage@CWinThread@@UAEHXZ 007351fe f   mfc100d:mfc100d.dll
 0002:00216204       ?OnIdle@CWinApp@@UAEHJ@Z   00735204 f   mfc100d:mfc100d.dll
 0002:0021620a       ?IsIdleMessage@CWinThread@@UAEHPAUtagMSG@@@Z 0073520a f   mfc100d:mfc100d.dll
 0002:00216210       ?ProcessWndProcException@CWinApp@@UAEJPAVCException@@PBUtagMSG@@@Z 00735210 f   mfc100d:mfc100d.dll
 0002:00216216       ?ProcessMessageFilter@CWinThread@@UAEHHPAUtagMSG@@@Z 00735216 f   mfc100d:mfc100d.dll
 0002:0021621c       ?Delete@CWinThread@@UAEXXZ 0073521c f   mfc100d:mfc100d.dll
 0002:00216222       ?GetProfileIntA@CWinApp@@UAEIPBD0H@Z 00735222 f   mfc100d:mfc100d.dll
 0002:00216228       ?WriteProfileInt@CWinApp@@UAEHPBD0H@Z 00735228 f   mfc100d:mfc100d.dll
 0002:0021622e       ?GetProfileStringA@CWinApp@@UAE?AV?$CStringT@DV?$StrTraitMFC_DLL@DV?$ChTraitsCRT@D@ATL@@@@@ATL@@PBD00@Z 0073522e f   mfc100d:mfc100d.dll
 0002:00216234       ?WriteProfileStringA@CWinApp@@UAEHPBD00@Z 00735234 f   mfc100d:mfc100d.dll
 0002:0021623a       ?GetProfileBinary@CWinApp@@UAEHPBD0PAPAEPAI@Z 0073523a f   mfc100d:mfc100d.dll
 0002:00216240       ?WriteProfileBinary@CWinApp@@UAEHPBD0PAEI@Z 00735240 f   mfc100d:mfc100d.dll
 0002:00216246       ?InitLibId@CWinApp@@UAEXXZ 00735246 f   mfc100d:mfc100d.dll
 0002:0021624c       ?Register@CWinApp@@UAEHXZ  0073524c f   mfc100d:mfc100d.dll
 0002:00216252       ?Unregister@CWinApp@@UAEHXZ 00735252 f   mfc100d:mfc100d.dll
 0002:00216258       ?OpenDocumentFile@CWinApp@@UAEPAVCDocument@@PBDH@Z 00735258 f   mfc100d:mfc100d.dll
 0002:0021625e       ?OpenDocumentFile@CWinApp@@UAEPAVCDocument@@PBD@Z 0073525e f   mfc100d:mfc100d.dll
 0002:00216264       ?AddToRecentFileList@CWinApp@@UAEXPBD@Z 00735264 f   mfc100d:mfc100d.dll
 0002:0021626a       ?InitApplication@CWinApp@@UAEHXZ 0073526a f   mfc100d:mfc100d.dll
 0002:00216270       ?SaveAllModified@CWinApp@@UAEHXZ 00735270 f   mfc100d:mfc100d.dll
 0002:00216276       ?DoWaitCursor@CWinApp@@UAEXH@Z 00735276 f   mfc100d:mfc100d.dll
 0002:0021627c       ?OnDDECommand@CWinApp@@UAEHPAD@Z 0073527c f   mfc100d:mfc100d.dll
 0002:00216282       ?WinHelpA@CWinApp@@UAEXKI@Z 00735282 f   mfc100d:mfc100d.dll
 0002:00216288       ?HtmlHelpA@CWinApp@@UAEXKI@Z 00735288 f   mfc100d:mfc100d.dll
 0002:0021628e       ?WinHelpInternal@CWinApp@@UAEXKI@Z 0073528e f   mfc100d:mfc100d.dll
 0002:00216294       ?RegisterWithRestartManager@CWinApp@@UAEJPB_WKP6GKPAX@Z1KK@Z 00735294 f   mfc100d:mfc100d.dll
 0002:0021629a       ?RegisterWithRestartManager@CWinApp@@UAEJHABV?$CStringT@DV?$StrTraitMFC_DLL@DV?$ChTraitsCRT@D@ATL@@@@@ATL@@@Z 0073529a f   mfc100d:mfc100d.dll
 0002:002162a0       ?ApplicationRecoveryCallback@CWinApp@@UAEKPAX@Z 007352a0 f   mfc100d:mfc100d.dll
 0002:002162a6       ?GetDataRecoveryHandler@CWinApp@@UAEPAVCDataRecoveryHandler@@XZ 007352a6 f   mfc100d:mfc100d.dll
 0002:002162ac       ?IsTaskbarInteractionEnabled@CWinApp@@UAEHXZ 007352ac f   mfc100d:mfc100d.dll
 0002:002162b2       ?RestartInstance@CWinApp@@UAEHXZ 007352b2 f   mfc100d:mfc100d.dll
 0002:002162b8       ?LoadAppLangResourceDLL@CWinApp@@UAEPAUHINSTANCE__@@XZ 007352b8 f   mfc100d:mfc100d.dll
 0002:002162be       ?LoadSysPolicies@CWinApp@@UAEHXZ 007352be f   mfc100d:mfc100d.dll
 0002:002162c4       ?GetActiveView@CFrameWnd@@QBEPAVCView@@XZ 007352c4 f   mfc100d:mfc100d.dll
 0002:002162ca       ??1CCommandLineInfo@@UAE@XZ 007352ca f   mfc100d:mfc100d.dll
 0002:002162d0       ?ProcessShellCommand@CWinApp@@QAEHAAVCCommandLineInfo@@@Z 007352d0 f   mfc100d:mfc100d.dll
 0002:002162d6       ?ParseCommandLine@CWinApp@@QAEXAAVCCommandLineInfo@@@Z 007352d6 f   mfc100d:mfc100d.dll
 0002:002162dc       ??0CCommandLineInfo@@QAE@XZ 007352dc f   mfc100d:mfc100d.dll
 0002:002162e2       ?AddDocTemplate@CWinApp@@QAEXPAVCDocTemplate@@@Z 007352e2 f   mfc100d:mfc100d.dll
 0002:002162e8       ??0CSingleDocTemplate@@QAE@IPAUCRuntimeClass@@00@Z 007352e8 f   mfc100d:mfc100d.dll
 0002:002162ee       ?EnableShellOpen@CWinApp@@IAEXXZ 007352ee f   mfc100d:mfc100d.dll
 0002:002162f4       ?LoadStdProfileSettings@CWinApp@@IAEXI@Z 007352f4 f   mfc100d:mfc100d.dll
 0002:002162fa       ?SetRegistryKey@CWinApp@@IAEXPBD@Z 007352fa f   mfc100d:mfc100d.dll
 0002:00216300       ?Enable3dControls@CWinApp@@IAEHXZ 00735300 f   mfc100d:mfc100d.dll
 0002:00216306       ?AfxEnableControlContainer@@YAXPAVCOccManager@@@Z 00735306 f   mfc100d:mfc100d.dll
 0002:0021630c       ?GetRuntimeClass@CDialog@@UBEPAUCRuntimeClass@@XZ 0073530c f   mfc100d:mfc100d.dll
 0002:00216312       ?SetActiveView@CFrameWnd@@QAEXPAVCView@@H@Z 00735312 f   mfc100d:mfc100d.dll
 0002:00216318       ?AfxStaticDownCast@@YAPAVCObject@@PAUCRuntimeClass@@PAV1@@Z 00735318 f   mfc100d:mfc100d.dll
 0002:0021631e       ?CreateView@CFrameWnd@@QAEPAVCWnd@@PAUCCreateContext@@I@Z 0073531e f   mfc100d:mfc100d.dll
 0002:00216324       ??0CCreateContext@@QAE@XZ  00735324 f   mfc100d:mfc100d.dll
 0002:0021632a       ?ExitInstance@CWinApp@@UAEHXZ 0073532a f   mfc100d:mfc100d.dll
 0002:00216330       ?OnOpenRecentFile@CWinApp@@IAEHI@Z 00735330 f   mfc100d:mfc100d.dll
 0002:00216336       ??BCWnd@@QBEPAUHWND__@@XZ  00735336 f   mfc100d:mfc100d.dll
 0002:0021633c       ?DoMessageBox@CWinApp@@UAEHPBDII@Z 0073533c f   mfc100d:mfc100d.dll
 0002:00216342       ?MakeUpper@?$CStringT@DV?$StrTraitMFC_DLL@DV?$ChTraitsCRT@D@ATL@@@@@ATL@@QAEAAV12@XZ 00735342 f   mfc100d:mfc100d.dll
 0002:00216348       ?GetThisMessageMap@CFrameWnd@@KGPBUAFX_MSGMAP@@XZ 00735348 f   mfc100d:mfc100d.dll
 0002:0021634e       ?GetThisClass@CFrameWnd@@SGPAUCRuntimeClass@@XZ 0073534e f   mfc100d:mfc100d.dll
 0002:00216354       ??1CFrameWnd@@UAE@XZ       00735354 f   mfc100d:mfc100d.dll
 0002:0021635a       ??0CStatusBar@@QAE@XZ      0073535a f   mfc100d:mfc100d.dll
 0002:00216360       ??0CFrameWnd@@QAE@XZ       00735360 f   mfc100d:mfc100d.dll
 0002:00216366       ?OnCmdMsg@CFrameWnd@@UAEHIHPAXPAUAFX_CMDHANDLERINFO@@@Z 00735366 f   mfc100d:mfc100d.dll
 0002:0021636c       ?GetMenu@CFrameWnd@@UBEPAVCMenu@@XZ 0073536c f   mfc100d:mfc100d.dll
 0002:00216372       ?SetMenu@CFrameWnd@@UAEHPAVCMenu@@@Z 00735372 f   mfc100d:mfc100d.dll
 0002:00216378       ?OnCommand@CFrameWnd@@MAEHIJ@Z 00735378 f   mfc100d:mfc100d.dll
 0002:0021637e       ?BeginModalState@CFrameWnd@@UAEXXZ 0073537e f   mfc100d:mfc100d.dll
 0002:00216384       ?EndModalState@CFrameWnd@@UAEXXZ 00735384 f   mfc100d:mfc100d.dll
 0002:0021638a       ?PreTranslateMessage@CFrameWnd@@UAEHPAUtagMSG@@@Z 0073538a f   mfc100d:mfc100d.dll
 0002:00216390       ?PostNcDestroy@CFrameWnd@@MAEXXZ 00735390 f   mfc100d:mfc100d.dll
 0002:00216396       ?IsFrameWnd@CFrameWnd@@UBEHXZ 00735396 f   mfc100d:mfc100d.dll
 0002:0021639c       ?Create@CFrameWnd@@UAEHPBD0KABUtagRECT@@PAVCWnd@@0KPAUCCreateContext@@@Z 0073539c f   mfc100d:mfc100d.dll
 0002:002163a2       ?LoadFrame@CFrameWnd@@UAEHIKPAVCWnd@@PAUCCreateContext@@@Z 007353a2 f   mfc100d:mfc100d.dll
 0002:002163a8       ?GetActiveDocument@CFrameWnd@@UAEPAVCDocument@@XZ 007353a8 f   mfc100d:mfc100d.dll
 0002:002163ae       ?GetActiveFrame@CFrameWnd@@UAEPAV1@XZ 007353ae f   mfc100d:mfc100d.dll
 0002:002163b4       ?GetMessageString@CFrameWnd@@UBEXIAAV?$CStringT@DV?$StrTraitMFC_DLL@DV?$ChTraitsCRT@D@ATL@@@@@ATL@@@Z 007353b4 f   mfc100d:mfc100d.dll
 0002:002163ba       ?RecalcLayout@CFrameWnd@@UAEXH@Z 007353ba f   mfc100d:mfc100d.dll
 0002:002163c0       ?ActivateFrame@CFrameWnd@@UAEXH@Z 007353c0 f   mfc100d:mfc100d.dll
 0002:002163c6       ?SetMenuBarVisibility@CFrameWnd@@UAEXK@Z 007353c6 f   mfc100d:mfc100d.dll
 0002:002163cc       ?GetMenuBarVisibility@CFrameWnd@@UBEKXZ 007353cc f   mfc100d:mfc100d.dll
 0002:002163d2       ?SetMenuBarState@CFrameWnd@@UAEHK@Z 007353d2 f   mfc100d:mfc100d.dll
 0002:002163d8       ?GetMenuBarState@CFrameWnd@@UBEKXZ 007353d8 f   mfc100d:mfc100d.dll
 0002:002163de       ?OnSetPreviewMode@CFrameWnd@@UAEXHPAUCPrintPreviewState@@@Z 007353de f   mfc100d:mfc100d.dll
 0002:002163e4       ?GetMessageBar@CFrameWnd@@UAEPAVCWnd@@XZ 007353e4 f   mfc100d:mfc100d.dll
 0002:002163ea       ?NegotiateBorderSpace@CFrameWnd@@UAEHIPAUtagRECT@@@Z 007353ea f   mfc100d:mfc100d.dll
 0002:002163f0       ?OnCreateClient@CFrameWnd@@MAEHPAUtagCREATESTRUCTA@@PAUCCreateContext@@@Z 007353f0 f   mfc100d:mfc100d.dll
 0002:002163f6       ?OnUpdateFrameTitle@CFrameWnd@@UAEXH@Z 007353f6 f   mfc100d:mfc100d.dll
 0002:002163fc       ?OnUpdateFrameMenu@CFrameWnd@@UAEXPAUHMENU__@@@Z 007353fc f   mfc100d:mfc100d.dll
 0002:00216402       ?GetDefaultAccelerator@CFrameWnd@@UAEPAUHACCEL__@@XZ 00735402 f   mfc100d:mfc100d.dll
 0002:00216408       ?DelayUpdateFrameMenu@CFrameWnd@@UAEXPAUHMENU__@@@Z 00735408 f   mfc100d:mfc100d.dll
 0002:0021640e       ?ExitHelpMode@CFrameWnd@@UAEXXZ 0073540e f   mfc100d:mfc100d.dll
 0002:00216414       ?OnShowMenuBar@CFrameWnd@@MAEXXZ 00735414 f   mfc100d:mfc100d.dll
 0002:0021641a       ?OnHideMenuBar@CFrameWnd@@MAEXXZ 0073541a f   mfc100d:mfc100d.dll
 0002:00216420       ??1CStatusBar@@UAE@XZ      00735420 f   mfc100d:mfc100d.dll
 0002:00216426       ?DragAcceptFiles@CWnd@@QAEXH@Z 00735426 f   mfc100d:mfc100d.dll
 0002:0021642c       ?SetPaneText@CStatusBar@@QAEHHPBDH@Z 0073542c f   mfc100d:mfc100d.dll
 0002:00216432       ?GetFont@CWnd@@QBEPAVCFont@@XZ 00735432 f   mfc100d:mfc100d.dll
 0002:00216438       ?SetPaneInfo@CStatusBar@@QAEXHIIH@Z 00735438 f   mfc100d:mfc100d.dll
 0002:0021643e       ?GetPaneInfo@CStatusBar@@QBEXHAAI0AAH@Z 0073543e f   mfc100d:mfc100d.dll
 0002:00216444       ?SetIndicators@CStatusBar@@QAEHPBIH@Z 00735444 f   mfc100d:mfc100d.dll
 0002:0021644a       ?OnCreate@CFrameWnd@@IAEHPAUtagCREATESTRUCTA@@@Z 0073544a f   mfc100d:mfc100d.dll
 0002:00216450       ?PreCreateWindow@CFrameWnd@@MAEHAAUtagCREATESTRUCTA@@@Z 00735450 f   mfc100d:mfc100d.dll
 0002:00216456       ?AssertValid@CFrameWnd@@UBEXXZ 00735456 f   mfc100d:mfc100d.dll
 0002:0021645c       ?Dump@CFrameWnd@@UBEXAAVCDumpContext@@@Z 0073545c f   mfc100d:mfc100d.dll
 0002:00216462       ?OnSysCommand@CFrameWnd@@IAEXIJ@Z 00735462 f   mfc100d:mfc100d.dll
 0002:00216468       ?OnSetCursor@CFrameWnd@@IAEHPAVCWnd@@II@Z 00735468 f   mfc100d:mfc100d.dll
 0002:0021646e       ?OnSize@CFrameWnd@@IAEXIHH@Z 0073546e f   mfc100d:mfc100d.dll
 0002:00216474       ?GetWindowPlacement@CWnd@@QBEHPAUtagWINDOWPLACEMENT@@@Z 00735474 f   mfc100d:mfc100d.dll
 0002:0021647a       ?GetThisMessageMap@CToolBar@@KGPBUAFX_MSGMAP@@XZ 0073547a f   mfc100d:mfc100d.dll
 0002:00216480       ?GetThisClass@CToolBar@@SGPAUCRuntimeClass@@XZ 00735480 f   mfc100d:mfc100d.dll
 0002:00216486       ??1CToolBar@@UAE@XZ        00735486 f   mfc100d:mfc100d.dll
 0002:0021648c       ??0CToolBar@@QAE@XZ        0073548c f   mfc100d:mfc100d.dll
 0002:00216492       ?AssertValid@CToolBar@@UBEXXZ 00735492 f   mfc100d:mfc100d.dll
 0002:00216498       ?Dump@CToolBar@@UBEXAAVCDumpContext@@@Z 00735498 f   mfc100d:mfc100d.dll
 0002:0021649e       ?DestroyWindow@CControlBar@@UAEHXZ 0073549e f   mfc100d:mfc100d.dll
 0002:002164a4       ?PreCreateWindow@CControlBar@@UAEHAAUtagCREATESTRUCTA@@@Z 007354a4 f   mfc100d:mfc100d.dll
 0002:002164aa       ?OnToolHitTest@CToolBar@@UBEHVCPoint@@PAUtagTOOLINFOA@@@Z 007354aa f   mfc100d:mfc100d.dll
 0002:002164b0       ?get_accName@CToolBar@@UAEJUtagVARIANT@@PAPA_W@Z 007354b0 f   mfc100d:mfc100d.dll
 0002:002164b6       ?PreTranslateMessage@CControlBar@@UAEHPAUtagMSG@@@Z 007354b6 f   mfc100d:mfc100d.dll
 0002:002164bc       ?WindowProc@CControlBar@@UAEJIIJ@Z 007354bc f   mfc100d:mfc100d.dll
 0002:002164c2       ?PostNcDestroy@CControlBar@@UAEXXZ 007354c2 f   mfc100d:mfc100d.dll
 0002:002164c8       ?CalcFixedLayout@CToolBar@@UAE?AVCSize@@HH@Z 007354c8 f   mfc100d:mfc100d.dll
 0002:002164ce       ?CalcDynamicLayout@CToolBar@@UAE?AVCSize@@HK@Z 007354ce f   mfc100d:mfc100d.dll
 0002:002164d4       ?OnUpdateCmdUI@CToolBar@@UAEXPAVCFrameWnd@@H@Z 007354d4 f   mfc100d:mfc100d.dll
 0002:002164da       ?CalcInsideRect@CControlBar@@UBEXAAVCRect@@H@Z 007354da f   mfc100d:mfc100d.dll
 0002:002164e0       ?DoPaint@CControlBar@@UAEXPAVCDC@@@Z 007354e0 f   mfc100d:mfc100d.dll
 0002:002164e6       ?DrawBorders@CControlBar@@UAEXPAVCDC@@AAVCRect@@@Z 007354e6 f   mfc100d:mfc100d.dll
 0002:002164ec       ?DrawGripper@CControlBar@@UAEXPAVCDC@@ABVCRect@@@Z 007354ec f   mfc100d:mfc100d.dll
 0002:002164f2       ?DrawNCGripper@CControlBar@@UAEXPAVCDC@@ABVCRect@@@Z 007354f2 f   mfc100d:mfc100d.dll
 0002:002164f8       ?DrawThemedGripper@CControlBar@@UAEHPAVCDC@@ABVCRect@@H@Z 007354f8 f   mfc100d:mfc100d.dll
 0002:002164fe       ?DrawNonThemedGripper@CControlBar@@UAEHPAVCDC@@ABVCRect@@@Z 007354fe f   mfc100d:mfc100d.dll
 0002:00216504       ?DelayShow@CControlBar@@UAEXH@Z 00735504 f   mfc100d:mfc100d.dll
 0002:0021650a       ?IsVisible@CControlBar@@UBEHXZ 0073550a f   mfc100d:mfc100d.dll
 0002:00216510       ?RecalcDelayShow@CControlBar@@UAEKPAUAFX_SIZEPARENTPARAMS@@@Z 00735510 f   mfc100d:mfc100d.dll
 0002:00216516       ?IsDockBar@CControlBar@@UBEHXZ 00735516 f   mfc100d:mfc100d.dll
 0002:0021651c       ?OnBarStyleChange@CToolBar@@UAEXKK@Z 0073551c f   mfc100d:mfc100d.dll
 0002:00216522       ?SetStatusText@CControlBar@@UAEHH@Z 00735522 f   mfc100d:mfc100d.dll
 0002:00216528       ?Create@CToolBar@@UAEHPAVCWnd@@KI@Z 00735528 f   mfc100d:mfc100d.dll
 0002:0021652e       ?CreateEx@CToolBar@@UAEHPAVCWnd@@KKVCRect@@I@Z 0073552e f   mfc100d:mfc100d.dll
 0002:00216534       ?GetItemRect@CToolBar@@UBEXHPAUtagRECT@@@Z 00735534 f   mfc100d:mfc100d.dll
 0002:0021653a       ?SetButtonInfo@CToolBar@@QAEXHIIH@Z 0073553a f   mfc100d:mfc100d.dll
 0002:00216540       ?LoadToolBar@CToolBar@@QAEHI@Z 00735540 f   mfc100d:mfc100d.dll
 0002:00216546       ?OnCreate@CControlBar@@QAEHPAUtagCREATESTRUCTA@@@Z 00735546 f   mfc100d:mfc100d.dll
 0002:0021654c       ?ResetContent@CComboBox@@QAEXXZ 0073554c f   mfc100d:mfc100d.dll
 0002:00216552       ?GetThisMessageMap@CWnd@@KGPBUAFX_MSGMAP@@XZ 00735552 f   mfc100d:mfc100d.dll
 0002:00216558       ?GetSafeOwner@CWnd@@SGPAV1@PAV1@PAPAUHWND__@@@Z 00735558 f   mfc100d:mfc100d.dll
 0002:0021655e       ??0CWnd@@QAE@XZ            0073555e f   mfc100d:mfc100d.dll
 0002:00216564       ?GetRuntimeClass@CWnd@@UBEPAUCRuntimeClass@@XZ 00735564 f   mfc100d:mfc100d.dll
 0002:0021656a       ?AssertValid@CWnd@@UBEXXZ  0073556a f   mfc100d:mfc100d.dll
 0002:00216570       ?Dump@CWnd@@UBEXAAVCDumpContext@@@Z 00735570 f   mfc100d:mfc100d.dll
 0002:00216576       ?SubclassWindow@CWnd@@QAEHPAUHWND__@@@Z 00735576 f   mfc100d:mfc100d.dll
 0002:0021657c       ?EndWaitCursor@CCmdTarget@@QAEXXZ 0073557c f   mfc100d:mfc100d.dll
 0002:00216582       ??0CPtrArray@@QAE@XZ       00735582 f   mfc100d:mfc100d.dll
 0002:00216588       ?GetRuntimeClass@CPtrArray@@UBEPAUCRuntimeClass@@XZ 00735588 f   mfc100d:mfc100d.dll
 0002:0021658e       ?AssertValid@CPtrArray@@UBEXXZ 0073558e f   mfc100d:mfc100d.dll
 0002:00216594       ?Dump@CPtrArray@@UBEXAAVCDumpContext@@@Z 00735594 f   mfc100d:mfc100d.dll
 0002:0021659a       ??1CPtrArray@@UAE@XZ       0073559a f   mfc100d:mfc100d.dll
 0002:002165a0       ?RemoveAll@CPtrArray@@QAEXXZ 007355a0 f   mfc100d:mfc100d.dll
 0002:002165a6       ??1CFileDialog@@UAE@XZ     007355a6 f   mfc100d:mfc100d.dll
 0002:002165ac       ?GetPathName@CFileDialog@@QBE?AV?$CStringT@DV?$StrTraitMFC_DLL@DV?$ChTraitsCRT@D@ATL@@@@@ATL@@XZ 007355ac f   mfc100d:mfc100d.dll
 0002:002165b2       ?DoModal@CFileDialog@@UAEHXZ 007355b2 f   mfc100d:mfc100d.dll
 0002:002165b8       ?GetOFN@CFileDialog@@QAEAAUtagOFNA@@XZ 007355b8 f   mfc100d:mfc100d.dll
 0002:002165be       ??0CFileDialog@@QAE@HPBD0K0PAVCWnd@@KH@Z 007355be f   mfc100d:mfc100d.dll
 0002:002165c4       ?Add@CPtrArray@@QAEHPAX@Z  007355c4 f   mfc100d:mfc100d.dll
 0002:002165ca       ??ACPtrArray@@QAEAAPAXH@Z  007355ca f   mfc100d:mfc100d.dll
 0002:002165d0       ?GetSafeHmenu@CMenu@@QBEPAUHMENU__@@XZ 007355d0 f   mfc100d:mfc100d.dll
 0002:002165d6       ?IsSystem@CFileFind@@QBEHXZ 007355d6 f   mfc100d:mfc100d.dll
 0002:002165dc       ?IsHidden@CFileFind@@QBEHXZ 007355dc f   mfc100d:mfc100d.dll
 0002:002165e2       ?SpanIncluding@?$CStringT@DV?$StrTraitMFC_DLL@DV?$ChTraitsCRT@D@ATL@@@@@ATL@@QBE?AV12@PBD@Z 007355e2 f   mfc100d:mfc100d.dll
 0002:002165e8       ?Arc@CDC@@QAEHHHHHHHHH@Z   007355e8 f   mfc100d:mfc100d.dll
 0002:002165ee       ?Arc@CDC@@QAEHPBUtagRECT@@UtagPOINT@@1@Z 007355ee f   mfc100d:mfc100d.dll
 0002:002165f4       ??4?$CStringT@DV?$StrTraitMFC_DLL@DV?$ChTraitsCRT@D@ATL@@@@@ATL@@QAEAAV01@PBE@Z 007355f4 f   mfc100d:mfc100d.dll
 0002:002165fa       __CrtDbgReport             007355fa f   msvcrtd:MSVCR100D.dll
 0002:00216600       __RTC_CheckEsp             00735600 f   msvcrtd:_stack_.obj
 0002:00216630       @_RTC_CheckStackVars@8     00735630 f   msvcrtd:_stack_.obj
 0002:002166b0       @_RTC_AllocaHelper@12      007356b0 f   msvcrtd:_stack_.obj
 0002:002166f0       @_RTC_CheckStackVars2@12   007356f0 f   msvcrtd:_stack_.obj
 0002:00216800       __RTC_InitBase             00735800 f   msvcrtd:_init_.obj
 0002:00216840       __RTC_Shutdown             00735840 f   msvcrtd:_init_.obj
 0002:00216860       ??_M@YGXPAXIHP6EX0@Z@Z     00735860 f   msvcrtd:ehvecdtr.obj
 0002:00216940       ?__ArrayUnwind@@YGXPAXIHP6EX0@Z@Z 00735940 f   msvcrtd:ehvecdtr.obj
 0002:00216a30       ??_L@YGXPAXIHP6EX0@Z1@Z    00735a30 f   msvcrtd:ehvecctr.obj
 0002:00216b0c       ___CxxFrameHandler3        00735b0c f   msvcrtd:MSVCR100D.dll
 0002:00216b20       @__security_check_cookie@4 00735b20 f   msvcrtd:secchk.obj
 0002:00216b32       __wassert                  00735b32 f   msvcrtd:MSVCR100D.dll
 0002:00216b38       __stat64i32                00735b38 f   msvcrtd:MSVCR100D.dll
 0002:00216b40       __onexit                   00735b40 f   msvcrtd:atonexit.obj
 0002:00216c70       _atexit                    00735c70 f   msvcrtd:atonexit.obj
 0002:00216c94       _abs                       00735c94 f   msvcrtd:MSVCR100D.dll
 0002:00216ca0       __ftol2_sse                00735ca0 f   msvcrtd:ftol2.obj
 0002:00216ca9       __ftol2_pentium4           00735ca9 f   msvcrtd:ftol2.obj
 0002:00216cbc       __ftol2_sse_excpt          00735cbc f   msvcrtd:ftol2.obj
 0002:00216cd6       __ftol2                    00735cd6 f   msvcrtd:ftol2.obj
 0002:00216d80       ??0type_info@@AAE@ABV0@@Z  00735d80 f   msvcrtd:ti_inst.obj
 0002:00216db0       ??_Etype_info@@UAEPAXI@Z   00735db0 f i msvcrtd:ti_inst.obj
 0002:00216e40       ??4type_info@@AAEAAV0@ABV0@@Z 00735e40 f   msvcrtd:ti_inst.obj
 0002:00216e56       _memmove_s                 00735e56 f   msvcrtd:MSVCR100D.dll
 0002:00216e5c       _memset                    00735e5c f   msvcrtd:MSVCR100D.dll
 0002:00216e62       _memcpy_s                  00735e62 f   msvcrtd:MSVCR100D.dll
 0002:00216e68       __mkdir                    00735e68 f   msvcrtd:MSVCR100D.dll
 0002:00216e6e       _srand                     00735e6e f   msvcrtd:MSVCR100D.dll
 0002:00216e74       _rand                      00735e74 f   msvcrtd:MSVCR100D.dll
 0002:00216e80       ?_RTC_Failure@@YAXPAXH@Z   00735e80 f   msvcrtd:_error_.obj
 0002:00217310       ?_RTC_StackFailure@@YAXPAXPBD@Z 00736310 f   msvcrtd:_error_.obj
 0002:00217450       ?_RTC_AllocaFailure@@YAXPAXPAU_RTC_ALLOCA_NODE@@H@Z 00736450 f   msvcrtd:_error_.obj
 0002:00217660       __RTC_UninitUse            00736660 f   msvcrtd:_error_.obj
 0002:00217784       _free                      00736784 f   msvcrtd:MSVCR100D.dll
 0002:0021778a       _clock                     0073678a f   msvcrtd:MSVCR100D.dll
 0002:00217790       __chkstk                   00736790 f   msvcrtd:chkstk.obj
 0002:00217790       __alloca_probe             00736790     msvcrtd:chkstk.obj
 0002:002177d0       __allmul                   007367d0 f   msvcrtd:llmul.obj
 0002:00217812       _floor                     00736812 f   msvcrtd:MSVCR100D.dll
 0002:00217818       _calloc                    00736818 f   msvcrtd:MSVCR100D.dll
 0002:0021781e       _atof                      0073681e f   msvcrtd:MSVCR100D.dll
 0002:00217824       __chdir                    00736824 f   msvcrtd:MSVCR100D.dll
 0002:0021782a       __localtime64              0073682a f   msvcrtd:MSVCR100D.dll
 0002:00217830       __time64                   00736830 f   msvcrtd:MSVCR100D.dll
 0002:00217836       _labs                      00736836 f   msvcrtd:MSVCR100D.dll
 0002:0021783c       _memcpy                    0073683c f   msvcrtd:MSVCR100D.dll
 0002:00217842       _strcmp                    00736842 f   msvcrtd:MSVCR100D.dll
 0002:00217848       _strlen                    00736848 f   msvcrtd:MSVCR100D.dll
 0002:0021784e       _atoi                      0073684e f   msvcrtd:MSVCR100D.dll
 0002:00217854       __fullpath                 00736854 f   msvcrtd:MSVCR100D.dll
 0002:0021785a       __CxxThrowException@8      0073685a f   msvcrtd:MSVCR100D.dll
 0002:00217860       _remove                    00736860 f   msvcrtd:MSVCR100D.dll
 0002:00217866       ___sys_errlist             00736866 f   msvcrtd:MSVCR100D.dll
 0002:0021786c       _malloc                    0073686c f   msvcrtd:MSVCR100D.dll
 0002:00217872       _fabs                      00736872 f   msvcrtd:MSVCR100D.dll
 0002:00217878       _rename                    00736878 f   msvcrtd:MSVCR100D.dll
 0002:0021787e       __purecall                 0073687e f   msvcrtd:MSVCR100D.dll
 0002:00217884       _sqrt                      00736884 f   msvcrtd:MSVCR100D.dll
 0002:0021788a       _atan                      0073688a f   msvcrtd:MSVCR100D.dll
 0002:00217890       _cos                       00736890 f   msvcrtd:MSVCR100D.dll
 0002:00217896       _sin                       00736896 f   msvcrtd:MSVCR100D.dll
 0002:0021789c       _llabs                     0073689c f   msvcrtd:MSVCR100D.dll
 0002:002178a2       _fmod                      007368a2 f   msvcrtd:MSVCR100D.dll
 0002:002178a8       _atan2                     007368a8 f   msvcrtd:MSVCR100D.dll
 0002:002178ae       _modf                      007368ae f   msvcrtd:MSVCR100D.dll
 0002:002178b4       _tan                       007368b4 f   msvcrtd:MSVCR100D.dll
 0002:002178ba       _strcpy_s                  007368ba f   msvcrtd:MSVCR100D.dll
 0002:002178c0       __alldiv                   007368c0 f   msvcrtd:lldiv.obj
 0002:00217994       _exit                      00736994 f   msvcrtd:MSVCR100D.dll
 0002:0021799a       _fprintf                   0073699a f   msvcrtd:MSVCR100D.dll
 0002:002179a0       ___iob_func                007369a0 f   msvcrtd:MSVCR100D.dll
 0002:002179a6       _fscanf                    007369a6 f   msvcrtd:MSVCR100D.dll
 0002:002179ac       __access                   007369ac f   msvcrtd:MSVCR100D.dll
 0002:002179b2       _strcat                    007369b2 f   msvcrtd:MSVCR100D.dll
 0002:002179b8       _acos                      007369b8 f   msvcrtd:MSVCR100D.dll
 0002:002179be       _asin                      007369be f   msvcrtd:MSVCR100D.dll
 0002:002179c4       _strcpy                    007369c4 f   msvcrtd:MSVCR100D.dll
 0002:002179ca       _strrchr                   007369ca f   msvcrtd:MSVCR100D.dll
 0002:002179d0       _fread                     007369d0 f   msvcrtd:MSVCR100D.dll
 0002:002179d6       _fwrite                    007369d6 f   msvcrtd:MSVCR100D.dll
 0002:002179dc       _sscanf                    007369dc f   msvcrtd:MSVCR100D.dll
 0002:002179e2       _fgets                     007369e2 f   msvcrtd:MSVCR100D.dll
 0002:002179e8       _feof                      007369e8 f   msvcrtd:MSVCR100D.dll
 0002:002179ee       _fclose                    007369ee f   msvcrtd:MSVCR100D.dll
 0002:002179f4       _fopen                     007369f4 f   msvcrtd:MSVCR100D.dll
 0002:002179fa       __exit                     007369fa f   msvcrtd:MSVCR100D.dll
 0002:00217a00       _memcmp                    00736a00 f   msvcrtd:MSVCR100D.dll
 0002:00217a06       __lock_file                00736a06 f   msvcrtd:MSVCR100D.dll
 0002:00217a0c       __unlock_file              00736a0c f   msvcrtd:MSVCR100D.dll
 0002:00217a12       _fputc                     00736a12 f   msvcrtd:MSVCR100D.dll
 0002:00217a18       _ungetc                    00736a18 f   msvcrtd:MSVCR100D.dll
 0002:00217a1e       _fgetc                     00736a1e f   msvcrtd:MSVCR100D.dll
 0002:00217a24       _fgetpos                   00736a24 f   msvcrtd:MSVCR100D.dll
 0002:00217a2a       __fseeki64                 00736a2a f   msvcrtd:MSVCR100D.dll
 0002:00217a30       _fsetpos                   00736a30 f   msvcrtd:MSVCR100D.dll
 0002:00217a36       _setvbuf                   00736a36 f   msvcrtd:MSVCR100D.dll
 0002:00217a3c       _fflush                    00736a3c f   msvcrtd:MSVCR100D.dll
 0002:00217a42       _memmove                   00736a42 f   msvcrtd:MSVCR100D.dll
 0002:00217a48       __invalid_parameter        00736a48 f   msvcrtd:MSVCR100D.dll
 0002:00217a4e       __CrtDbgReportW            00736a4e f   msvcrtd:MSVCR100D.dll
 0002:00217a54       ??0bad_cast@std@@QAE@PBD@Z 00736a54 f   msvcrtd:MSVCR100D.dll
 0002:00217a5a       ??1bad_cast@std@@UAE@XZ    00736a5a f   msvcrtd:MSVCR100D.dll
 0002:00217a60       ??0bad_cast@std@@QAE@ABV01@@Z 00736a60 f   msvcrtd:MSVCR100D.dll
 0002:00217a66       ??0exception@std@@QAE@ABV01@@Z 00736a66 f   msvcrtd:MSVCR100D.dll
 0002:00217a6c       ??0exception@std@@QAE@ABQBD@Z 00736a6c f   msvcrtd:MSVCR100D.dll
 0002:00217a72       ?what@exception@std@@UBEPBDXZ 00736a72 f   msvcrtd:MSVCR100D.dll
 0002:00217a78       ??1exception@std@@UAE@XZ   00736a78 f   msvcrtd:MSVCR100D.dll
 0002:00217ba0       _WinMainCRTStartup         00736ba0 f   msvcrtd:crtexew.obj
 0002:00217f80       _NtCurrentTeb              00736f80 f i msvcrtd:crtexew.obj
 0002:0021801a       _strstr                    0073701a f   msvcrtd:MSVCR100D.dll
 0002:00218020       _strncpy                   00737020 f   msvcrtd:MSVCR100D.dll
 0002:00218026       _sprintf                   00737026 f   msvcrtd:MSVCR100D.dll
 0002:0021802c       _fputs                     0073702c f   msvcrtd:MSVCR100D.dll
 0002:00218032       _strncmp                   00737032 f   msvcrtd:MSVCR100D.dll
 0002:00218038       _strchr                    00737038 f   msvcrtd:MSVCR100D.dll
 0002:0021803e       _vfprintf                  0073703e f   msvcrtd:MSVCR100D.dll
 0002:00218044       _strncat                   00737044 f   msvcrtd:MSVCR100D.dll
 0002:0021804a       _realloc                   0073704a f   msvcrtd:MSVCR100D.dll
 0002:00218050       _log10                     00737050 f   msvcrtd:MSVCR100D.dll
 0002:00218056       _pow                       00737056 f   msvcrtd:MSVCR100D.dll
 0002:0021805c       _printf                    0073705c f   msvcrtd:MSVCR100D.dll
 0002:00218062       _getc                      00737062 f   msvcrtd:MSVCR100D.dll
 0002:00218068       _fseek                     00737068 f   msvcrtd:MSVCR100D.dll
 0002:0021806e       _ceil                      0073706e f   msvcrtd:MSVCR100D.dll
 0002:00218080       __RTC_NumErrors            00737080 f   msvcrtd:_userapi_.obj
 0002:00218090       __RTC_GetErrDesc           00737090 f   msvcrtd:_userapi_.obj
 0002:002180b0       __RTC_SetErrorType         007370b0 f   msvcrtd:_userapi_.obj
 0002:002180e0       __RTC_SetErrorFunc         007370e0 f   msvcrtd:_userapi_.obj
 0002:00218110       __RTC_SetErrorFuncW        00737110 f   msvcrtd:_userapi_.obj
 0002:00218140       ?_RTC_GetErrorFunc@@YAP6AHHPBDH00ZZPBX@Z 00737140 f   msvcrtd:_userapi_.obj
 0002:00218150       ?_RTC_GetErrorFuncW@@YAP6AHHPB_WH00ZZPBX@Z 00737150 f   msvcrtd:_userapi_.obj
 0002:00218156       __CRT_RTC_INITW            00737156 f   msvcrtd:MSVCR100D.dll
 0002:00218160       __except_handler4          00737160 f   msvcrtd:chandler4gs.obj
 0002:00218194       ?terminate@@YAXXZ          00737194 f   msvcrtd:MSVCR100D.dll
 0002:002181a0       ___report_gsfailure        007371a0 f   msvcrtd:gs_report.obj
 0002:002182f2       __unlock                   007372f2 f   msvcrtd:MSVCR100D.dll
 0002:002182f8       ___dllonexit               007372f8 f   msvcrtd:MSVCR100D.dll
 0002:002182fe       __lock                     007372fe f   msvcrtd:MSVCR100D.dll
 0002:00218310       ___sse2_available_init     00737310 f   msvcrtd:cpu_disp.obj
 0002:00218330       ?_RTC_GetSrcLine@@YAHPAEPA_WKPAH1K@Z 00737330 f   msvcrtd:_pdblkup_.obj
 0002:00218910       ?__CxxUnhandledExceptionFilter@@YGJPAU_EXCEPTION_POINTERS@@@Z 00737910 f   msvcrtd:unhandld.obj
 0002:00218990       ___CxxSetUnhandledExceptionFilter 00737990 f   msvcrtd:unhandld.obj
 0002:002189aa       __configthreadlocale       007379aa f   msvcrtd:MSVCR100D.dll
 0002:002189b0       __setdefaultprecision      007379b0 f   msvcrtd:fp8.obj
 0002:00218a00       __invoke_watson_if_error   00737a00 f i msvcrtd:fp8.obj
 0002:00218a32       ___setusermatherr          00737a32 f   msvcrtd:MSVCR100D.dll
 0002:00218a40       __matherr                  00737a40 f   msvcrtd:merr.obj
 0002:00218a50       __setargv                  00737a50 f   msvcrtd:dllargv.obj
 0002:00218a60       __RTC_Initialize           00737a60 f   msvcrtd:_initsect_.obj
 0002:00218a90       __RTC_Terminate            00737a90 f   msvcrtd:_initsect_.obj
 0002:00218ac0       ___set_app_type            00737ac0 f   msvcrtd:MSVCR100D.dll
 0002:00218ac6       __amsg_exit                00737ac6 f   msvcrtd:MSVCR100D.dll
 0002:00218acc       ___getmainargs             00737acc f   msvcrtd:MSVCR100D.dll
 0002:00218ae0       ___security_init_cookie    00737ae0 f   msvcrtd:gs_support.obj
 0002:00218bf8       __XcptFilter               00737bf8 f   msvcrtd:MSVCR100D.dll
 0002:00218bfe       __cexit                    00737bfe f   msvcrtd:MSVCR100D.dll
 0002:00218c04       __ismbblead                00737c04 f   msvcrtd:MSVCR100D.dll
 0002:00218c0a       __CrtSetCheckCount         00737c0a f   msvcrtd:MSVCR100D.dll
 0002:00218c10       __ValidateImageBase        00737c10 f   msvcrtd:pesect.obj
 0002:00218c90       __FindPESection            00737c90 f   msvcrtd:pesect.obj
 0002:00218d30       __IsNonwritableInCurrentImage 00737d30 f   msvcrtd:pesect.obj
 0002:00218e86       __initterm                 00737e86 f   msvcrtd:MSVCR100D.dll
 0002:00218e8c       __initterm_e               00737e8c f   msvcrtd:MSVCR100D.dll
 0002:00218e92       __stat32                   00737e92 f   msvcrtd:MSVCR100D.dll
 0002:00218e98       __localtime32              00737e98 f   msvcrtd:MSVCR100D.dll
 0002:00218e9e       __mktime32                 00737e9e f   msvcrtd:MSVCR100D.dll
 0002:00218ea4       __time32                   00737ea4 f   msvcrtd:MSVCR100D.dll
 0002:00218eaa       __except_handler4_common   00737eaa f   msvcrtd:MSVCR100D.dll
 0002:00218eb0       __crt_debugger_hook        00737eb0 f   msvcrtd:MSVCR100D.dll
 0002:00218eb6       ??1type_info@@UAE@XZ       00737eb6 f   msvcrtd:MSVCR100D.dll
 0002:00218eb6       ?_type_info_dtor_internal_method@type_info@@QAEXXZ 00737eb6 f   msvcrtd:MSVCR100D.dll
 0002:00218ebc       __controlfp_s              00737ebc f   msvcrtd:MSVCR100D.dll
 0002:00218ec2       __invoke_watson            00737ec2 f   msvcrtd:MSVCR100D.dll
 0002:00218ec8       _CopyFileA@12              00737ec8 f   kernel32:KERNEL32.dll
 0002:00218ece       _SetFileAttributesA@8      00737ece f   kernel32:KERNEL32.dll
 0002:00218ed4       _DeleteFileA@4             00737ed4 f   kernel32:KERNEL32.dll
 0002:00218eda       _FindNextFileA@8           00737eda f   kernel32:KERNEL32.dll
 0002:00218ee0       _FindFirstFileA@8          00737ee0 f   kernel32:KERNEL32.dll
 0002:00218ee6       _Sleep@4                   00737ee6 f   kernel32:KERNEL32.dll
 0002:00218eec       _GlobalAlloc@8             00737eec f   kernel32:KERNEL32.dll
 0002:00218ef2       _GetModuleFileNameA@12     00737ef2 f   kernel32:KERNEL32.dll
 0002:00218ef8       _GetFullPathNameA@16       00737ef8 f   kernel32:KERNEL32.dll
 0002:00218efe       _GetLastError@0            00737efe f   kernel32:KERNEL32.dll
 0002:00218f04       _GetFileAttributesA@4      00737f04 f   kernel32:KERNEL32.dll
 0002:00218f0a       _MoveFileA@8               00737f0a f   kernel32:KERNEL32.dll
 0002:00218f10       _InterlockedIncrement@4    00737f10 f   kernel32:KERNEL32.dll
 0002:00218f16       _InterlockedDecrement@4    00737f16 f   kernel32:KERNEL32.dll
 0002:00218f1c       _GetCurrentDirectoryA@8    00737f1c f   kernel32:KERNEL32.dll
 0002:00218f22       _CreateDirectoryA@8        00737f22 f   kernel32:KERNEL32.dll
 0002:00218f28       _FreeLibrary@4             00737f28 f   kernel32:KERNEL32.dll
 0002:00218f2e       _GetProcAddress@8          00737f2e f   kernel32:KERNEL32.dll
 0002:00218f34       _LoadLibraryA@4            00737f34 f   kernel32:KERNEL32.dll
 0002:00218f3a       _EnterCriticalSection@4    00737f3a f   kernel32:KERNEL32.dll
 0002:00218f40       _InitializeCriticalSection@4 00737f40 f   kernel32:KERNEL32.dll
 0002:00218f46       _DeleteCriticalSection@4   00737f46 f   kernel32:KERNEL32.dll
 0002:00218f4c       _LeaveCriticalSection@4    00737f4c f   kernel32:KERNEL32.dll
 0002:00218f52       _WaitForSingleObject@8     00737f52 f   kernel32:KERNEL32.dll
 0002:00218f58       _ReleaseMutex@4            00737f58 f   kernel32:KERNEL32.dll
 0002:00218f5e       _MapViewOfFile@20          00737f5e f   kernel32:KERNEL32.dll
 0002:00218f64       _CreateFileMappingA@24     00737f64 f   kernel32:KERNEL32.dll
 0002:00218f6a       _CreateMutexA@12           00737f6a f   kernel32:KERNEL32.dll
 0002:00218f70       _OutputDebugStringA@4      00737f70 f   kernel32:KERNEL32.dll
 0002:00218f76       _CloseHandle@4             00737f76 f   kernel32:KERNEL32.dll
 0002:00218f7c       _WriteFile@20              00737f7c f   kernel32:KERNEL32.dll
 0002:00218f82       _SetFilePointer@16         00737f82 f   kernel32:KERNEL32.dll
 0002:00218f88       _GetCurrentThreadId@0      00737f88 f   kernel32:KERNEL32.dll
 0002:00218f8e       _GetCurrentProcessId@0     00737f8e f   kernel32:KERNEL32.dll
 0002:00218f94       _GetLocalTime@4            00737f94 f   kernel32:KERNEL32.dll
 0002:00218f9a       _MoveFileExA@12            00737f9a f   kernel32:KERNEL32.dll
 0002:00218fa0       _GetFileSize@8             00737fa0 f   kernel32:KERNEL32.dll
 0002:00218fa6       _CreateFileA@28            00737fa6 f   kernel32:KERNEL32.dll
 0002:00218fac       _LocalFree@4               00737fac f   kernel32:KERNEL32.dll
 0002:00218fb2       _FormatMessageA@28         00737fb2 f   kernel32:KERNEL32.dll
 0002:00218fb8       _GetEnvironmentVariableA@12 00737fb8 f   kernel32:KERNEL32.dll
 0002:00218fbe       _UnmapViewOfFile@4         00737fbe f   kernel32:KERNEL32.dll
 0002:00218fc4       _CreateProcessA@40         00737fc4 f   kernel32:KERNEL32.dll
 0002:00218fca       _GetStdHandle@4            00737fca f   kernel32:KERNEL32.dll
 0002:00218fd0       _DuplicateHandle@28        00737fd0 f   kernel32:KERNEL32.dll
 0002:00218fd6       _GetCurrentProcess@0       00737fd6 f   kernel32:KERNEL32.dll
 0002:00218fdc       _CreatePipe@16             00737fdc f   kernel32:KERNEL32.dll
 0002:00218fe2       _ReadFile@20               00737fe2 f   kernel32:KERNEL32.dll
 0002:00218fe8       _QueryPerformanceFrequency@4 00737fe8 f   kernel32:KERNEL32.dll
 0002:00218fee       _QueryPerformanceCounter@4 00737fee f   kernel32:KERNEL32.dll
 0002:00218ff4       _SetThreadPriority@8       00737ff4 f   kernel32:KERNEL32.dll
 0002:00218ffa       _GetCurrentThread@0        00737ffa f   kernel32:KERNEL32.dll
 0002:00219000       _WideCharToMultiByte@32    00738000 f   kernel32:KERNEL32.dll
 0002:00219006       _MultiByteToWideChar@24    00738006 f   kernel32:KERNEL32.dll
 0002:0021900c       _EncodePointer@4           0073800c f   kernel32:KERNEL32.dll
 0002:00219012       _DecodePointer@4           00738012 f   kernel32:KERNEL32.dll
 0002:00219018       _IsDebuggerPresent@0       00738018 f   kernel32:KERNEL32.dll
 0002:0021901e       _RaiseException@16         0073801e f   kernel32:KERNEL32.dll
 0002:00219024       _lstrlenA@4                00738024 f   kernel32:KERNEL32.dll
 0002:0021902a       _LoadLibraryW@4            0073802a f   kernel32:KERNEL32.dll
 0002:00219030       _InterlockedExchange@8     00738030 f   kernel32:KERNEL32.dll
 0002:00219036       _InterlockedCompareExchange@12 00738036 f   kernel32:KERNEL32.dll
 0002:0021903c       _HeapSetInformation@16     0073803c f   kernel32:KERNEL32.dll
 0002:00219042       _GetStartupInfoW@4         00738042 f   kernel32:KERNEL32.dll
 0002:00219048       _TerminateProcess@8        00738048 f   kernel32:KERNEL32.dll
 0002:0021904e       _UnhandledExceptionFilter@4 0073804e f   kernel32:KERNEL32.dll
 0002:00219054       _SetUnhandledExceptionFilter@4 00738054 f   kernel32:KERNEL32.dll
 0002:0021905a       _IsProcessorFeaturePresent@4 0073805a f   kernel32:KERNEL32.dll
 0002:00219060       _HeapFree@12               00738060 f   kernel32:KERNEL32.dll
 0002:00219066       _HeapAlloc@12              00738066 f   kernel32:KERNEL32.dll
 0002:0021906c       _GetProcessHeap@0          0073806c f   kernel32:KERNEL32.dll
 0002:00219072       _GetModuleFileNameW@12     00738072 f   kernel32:KERNEL32.dll
 0002:00219078       _VirtualQuery@12           00738078 f   kernel32:KERNEL32.dll
 0002:0021907e       _GetTickCount@0            0073807e f   kernel32:KERNEL32.dll
 0002:00219084       _GetSystemTimeAsFileTime@4 00738084 f   kernel32:KERNEL32.dll
 0002:0021908a       _PostQuitMessage@4         0073808a f   user32:USER32.dll
 0002:00219090       _PeekMessageA@20           00738090 f   user32:USER32.dll
 0002:00219096       _LoadImageA@24             00738096 f   user32:USER32.dll
 0002:0021909c       _SetWindowTextA@8          0073809c f   user32:USER32.dll
 0002:002190a2       _DestroyIcon@4             007380a2 f   user32:USER32.dll
 0002:002190a8       _CloseClipboard@0          007380a8 f   user32:USER32.dll
 0002:002190ae       _SetClipboardData@8        007380ae f   user32:USER32.dll
 0002:002190b4       _EmptyClipboard@0          007380b4 f   user32:USER32.dll
 0002:002190ba       _ShowCursor@4              007380ba f   user32:USER32.dll
 0002:002190c0       _GetCursorPos@4            007380c0 f   user32:USER32.dll
 0002:002190c6       _UpdateWindow@4            007380c6 f   user32:USER32.dll
 0002:002190cc       _SetForegroundWindow@4     007380cc f   user32:USER32.dll
 0002:002190d2       _DispatchMessageA@4        007380d2 f   user32:USER32.dll
 0002:002190d8       _TranslateMessage@4        007380d8 f   user32:USER32.dll
 0002:002190de       _BringWindowToTop@4        007380de f   user32:USER32.dll
 0002:002190e4       _SendMessageA@16           007380e4 f   user32:USER32.dll
 0002:002190ea       _FindWindowA@8             007380ea f   user32:USER32.dll
 0002:002190f0       _OpenClipboard@4           007380f0 f   user32:USER32.dll
 0002:002190f6       _SetWindowPlacement@8      007380f6 f   user32:USER32.dll
 0002:002190fc       _GetWindowPlacement@8      007380fc f   user32:USER32.dll
 0002:00219102       _SetCursorPos@8            00738102 f   user32:USER32.dll
 0002:00219108       _GetKeyState@4             00738108 f   user32:USER32.dll
 0002:0021910e       _LoadCursorA@8             0073810e f   user32:USER32.dll
 0002:00219114       _SetWindowLongA@12         00738114 f   user32:USER32.dll
 0002:0021911a       _GetWindowLongA@8          0073811a f   user32:USER32.dll
 0002:00219120       _SetCursor@4               00738120 f   user32:USER32.dll
 0002:00219126       _SetFocus@4                00738126 f   user32:USER32.dll
 0002:0021912c       _EndDialog@8               0073812c f   user32:USER32.dll
 0002:00219132       _GetWindowTextA@12         00738132 f   user32:USER32.dll
 0002:00219138       _GetDlgItem@8              00738138 f   user32:USER32.dll
 0002:0021913e       _CreateWindowExA@48        0073813e f   user32:USER32.dll
 0002:00219144       _ScreenToClient@8          00738144 f   user32:USER32.dll
 0002:0021914a       _GetWindowRect@8           0073814a f   user32:USER32.dll
 0002:00219150       _ShowWindow@8              00738150 f   user32:USER32.dll
 0002:00219156       _wsprintfA                 00738156 f   user32:USER32.dll
 0002:0021915c       _MessageBoxA@16            0073815c f   user32:USER32.dll
 0002:00219162       _InsertMenuItemA@16        00738162 f   user32:USER32.dll
 0002:00219168       _CreatePopupMenu@0         00738168 f   user32:USER32.dll
 0002:0021916e       _GetStockObject@4          0073816e f   gdi32:GDI32.dll
 0002:00219174       _SelectObject@8            00738174 f   gdi32:GDI32.dll
 0002:0021917a       _ShellExecuteA@24          0073817a f   shell32:SHELL32.dll
 0002:00219180       _SHGetFileInfoA@20         00738180 f   shell32:SHELL32.dll
 0002:00219186       _ShellExecuteExA@4         00738186 f   shell32:SHELL32.dll
 0002:0021918c       _DragFinish@4              0073818c f   shell32:SHELL32.dll
 0002:00219192       _DragQueryFileA@16         00738192 f   shell32:SHELL32.dll
 0002:00219198       _SHGetPathFromIDListA@8    00738198 f   shell32:SHELL32.dll
 0002:0021919e       _SHBrowseForFolderA@4      0073819e f   shell32:SHELL32.dll
 0002:002191a4       _SHGetMalloc@4             007381a4 f   shell32:SHELL32.dll
 0002:002191aa       _StrToIntA@4               007381aa f   shlwapi:SHLWAPI.dll
 0002:002191b0       _PathFileExistsA@4         007381b0 f   shlwapi:SHLWAPI.dll
 0002:002191c0       ??0CSize@@QAE@XZ           007381c0 f   atlsd:atltypes.obj
 0002:002191f0       ??0CSize@@QAE@HH@Z         007381f0 f   atlsd:atltypes.obj
 0002:00219220       ??0CSize@@QAE@UtagSIZE@@@Z 00738220 f   atlsd:atltypes.obj
 0002:00219250       ??0CSize@@QAE@UtagPOINT@@@Z 00738250 f   atlsd:atltypes.obj
 0002:00219280       ??0CSize@@QAE@K@Z          00738280 f   atlsd:atltypes.obj
 0002:002192d0       ??8CSize@@QBEHUtagSIZE@@@Z 007382d0 f   atlsd:atltypes.obj
 0002:00219320       ??9CSize@@QBEHUtagSIZE@@@Z 00738320 f   atlsd:atltypes.obj
 0002:00219370       ??YCSize@@QAEXUtagSIZE@@@Z 00738370 f   atlsd:atltypes.obj
 0002:002193b0       ??ZCSize@@QAEXUtagSIZE@@@Z 007383b0 f   atlsd:atltypes.obj
 0002:002193f0       ?SetSize@CSize@@QAEXHH@Z   007383f0 f   atlsd:atltypes.obj
 0002:00219420       ??HCSize@@QBE?AV0@UtagSIZE@@@Z 00738420 f   atlsd:atltypes.obj
 0002:00219460       ??GCSize@@QBE?AV0@UtagSIZE@@@Z 00738460 f   atlsd:atltypes.obj
 0002:002194a0       ??GCSize@@QBE?AV0@XZ       007384a0 f   atlsd:atltypes.obj
 0002:002194e0       ??HCSize@@QBE?AVCPoint@@UtagPOINT@@@Z 007384e0 f   atlsd:atltypes.obj
 0002:00219520       ??GCSize@@QBE?AVCPoint@@UtagPOINT@@@Z 00738520 f   atlsd:atltypes.obj
 0002:00219560       ??HCSize@@QBE?AVCRect@@PBUtagRECT@@@Z 00738560 f   atlsd:atltypes.obj
 0002:002195d0       ??GCSize@@QBE?AVCRect@@PBUtagRECT@@@Z 007385d0 f   atlsd:atltypes.obj
 0002:00219640       ??0CPoint@@QAE@XZ          00738640 f   atlsd:atltypes.obj
 0002:00219670       ??0CPoint@@QAE@HH@Z        00738670 f   atlsd:atltypes.obj
 0002:002196a0       ??0CPoint@@QAE@UtagPOINT@@@Z 007386a0 f   atlsd:atltypes.obj
 0002:002196d0       ??0CPoint@@QAE@UtagSIZE@@@Z 007386d0 f   atlsd:atltypes.obj
 0002:00219700       ??0CPoint@@QAE@J@Z         00738700 f   atlsd:atltypes.obj
 0002:00219750       ?Offset@CPoint@@QAEXHH@Z   00738750 f   atlsd:atltypes.obj
 0002:00219790       ?Offset@CPoint@@QAEXUtagPOINT@@@Z 00738790 f   atlsd:atltypes.obj
 0002:002197d0       ?Offset@CPoint@@QAEXUtagSIZE@@@Z 007387d0 f   atlsd:atltypes.obj
 0002:00219810       ?SetPoint@CPoint@@QAEXHH@Z 00738810 f   atlsd:atltypes.obj
 0002:00219840       ??8CPoint@@QBEHUtagPOINT@@@Z 00738840 f   atlsd:atltypes.obj
 0002:00219890       ??9CPoint@@QBEHUtagPOINT@@@Z 00738890 f   atlsd:atltypes.obj
 0002:002198e0       ??YCPoint@@QAEXUtagSIZE@@@Z 007388e0 f   atlsd:atltypes.obj
 0002:00219920       ??ZCPoint@@QAEXUtagSIZE@@@Z 00738920 f   atlsd:atltypes.obj
 0002:00219960       ??YCPoint@@QAEXUtagPOINT@@@Z 00738960 f   atlsd:atltypes.obj
 0002:002199a0       ??ZCPoint@@QAEXUtagPOINT@@@Z 007389a0 f   atlsd:atltypes.obj
 0002:002199e0       ??HCPoint@@QBE?AV0@UtagSIZE@@@Z 007389e0 f   atlsd:atltypes.obj
 0002:00219a20       ??GCPoint@@QBE?AV0@UtagSIZE@@@Z 00738a20 f   atlsd:atltypes.obj
 0002:00219a60       ??GCPoint@@QBE?AV0@XZ      00738a60 f   atlsd:atltypes.obj
 0002:00219aa0       ??HCPoint@@QBE?AV0@UtagPOINT@@@Z 00738aa0 f   atlsd:atltypes.obj
 0002:00219ae0       ??GCPoint@@QBE?AVCSize@@UtagPOINT@@@Z 00738ae0 f   atlsd:atltypes.obj
 0002:00219b20       ??HCPoint@@QBE?AVCRect@@PBUtagRECT@@@Z 00738b20 f   atlsd:atltypes.obj
 0002:00219b90       ??GCPoint@@QBE?AVCRect@@PBUtagRECT@@@Z 00738b90 f   atlsd:atltypes.obj
 0002:00219c00       ??0CRect@@QAE@XZ           00738c00 f   atlsd:atltypes.obj
 0002:00219c50       ??0CRect@@QAE@HHHH@Z       00738c50 f   atlsd:atltypes.obj
 0002:00219ca0       ??0CRect@@QAE@ABUtagRECT@@@Z 00738ca0 f   atlsd:atltypes.obj
 0002:00219cd0       ??0CRect@@QAE@PBUtagRECT@@@Z 00738cd0 f   atlsd:atltypes.obj
 0002:00219d00       ??0CRect@@QAE@UtagPOINT@@UtagSIZE@@@Z 00738d00 f   atlsd:atltypes.obj
 0002:00219d50       ??0CRect@@QAE@UtagPOINT@@0@Z 00738d50 f   atlsd:atltypes.obj
 0002:00219da0       ?Width@CRect@@QBEHXZ       00738da0 f   atlsd:atltypes.obj
 0002:00219dc0       ?Height@CRect@@QBEHXZ      00738dc0 f   atlsd:atltypes.obj
 0002:00219de0       ?Size@CRect@@QBE?AVCSize@@XZ 00738de0 f   atlsd:atltypes.obj
 0002:00219e20       ?TopLeft@CRect@@QAEAAVCPoint@@XZ 00738e20 f   atlsd:atltypes.obj
 0002:00219e40       ?BottomRight@CRect@@QAEAAVCPoint@@XZ 00738e40 f   atlsd:atltypes.obj
 0002:00219e60       ?TopLeft@CRect@@QBEABVCPoint@@XZ 00738e60 f   atlsd:atltypes.obj
 0002:00219e80       ?BottomRight@CRect@@QBEABVCPoint@@XZ 00738e80 f   atlsd:atltypes.obj
 0002:00219ea0       ?CenterPoint@CRect@@QBE?AVCPoint@@XZ 00738ea0 f   atlsd:atltypes.obj
 0002:00219ef0       ?SwapLeftRight@CRect@@QAEXXZ 00738ef0 f   atlsd:atltypes.obj
 0002:00219f10       ?SwapLeftRight@CRect@@SGXPAUtagRECT@@@Z 00738f10 f   atlsd:atltypes.obj
 0002:00219f50       ??BCRect@@QAEPAUtagRECT@@XZ 00738f50 f   atlsd:atltypes.obj
 0002:00219f70       ??BCRect@@QBEPBUtagRECT@@XZ 00738f70 f   atlsd:atltypes.obj
 0002:00219f90       ?IsRectEmpty@CRect@@QBEHXZ 00738f90 f   atlsd:atltypes.obj
 0002:00219fb0       ?IsRectNull@CRect@@QBEHXZ  00738fb0 f   atlsd:atltypes.obj
 0002:0021a010       ?PtInRect@CRect@@QBEHUtagPOINT@@@Z 00739010 f   atlsd:atltypes.obj
 0002:0021a040       ?SetRect@CRect@@QAEXHHHH@Z 00739040 f   atlsd:atltypes.obj
 0002:0021a080       ?SetRect@CRect@@QAEXUtagPOINT@@0@Z 00739080 f   atlsd:atltypes.obj
 0002:0021a0c0       ?SetRectEmpty@CRect@@QAEXXZ 007390c0 f   atlsd:atltypes.obj
 0002:0021a0e0       ?CopyRect@CRect@@QAEXPBUtagRECT@@@Z 007390e0 f   atlsd:atltypes.obj
 0002:0021a110       ?EqualRect@CRect@@QBEHPBUtagRECT@@@Z 00739110 f   atlsd:atltypes.obj
 0002:0021a140       ?InflateRect@CRect@@QAEXHH@Z 00739140 f   atlsd:atltypes.obj
 0002:0021a170       ?InflateRect@CRect@@QAEXUtagSIZE@@@Z 00739170 f   atlsd:atltypes.obj
 0002:0021a1a0       ?DeflateRect@CRect@@QAEXHH@Z 007391a0 f   atlsd:atltypes.obj
 0002:0021a1d0       ?DeflateRect@CRect@@QAEXUtagSIZE@@@Z 007391d0 f   atlsd:atltypes.obj
 0002:0021a200       ?OffsetRect@CRect@@QAEXHH@Z 00739200 f   atlsd:atltypes.obj
 0002:0021a230       ?OffsetRect@CRect@@QAEXUtagPOINT@@@Z 00739230 f   atlsd:atltypes.obj
 0002:0021a260       ?OffsetRect@CRect@@QAEXUtagSIZE@@@Z 00739260 f   atlsd:atltypes.obj
 0002:0021a290       ?MoveToY@CRect@@QAEXH@Z    00739290 f   atlsd:atltypes.obj
 0002:0021a2d0       ?MoveToX@CRect@@QAEXH@Z    007392d0 f   atlsd:atltypes.obj
 0002:0021a310       ?MoveToXY@CRect@@QAEXHH@Z  00739310 f   atlsd:atltypes.obj
 0002:0021a340       ?MoveToXY@CRect@@QAEXUtagPOINT@@@Z 00739340 f   atlsd:atltypes.obj
 0002:0021a370       ?IntersectRect@CRect@@QAEHPBUtagRECT@@0@Z 00739370 f   atlsd:atltypes.obj
 0002:0021a3a0       ?UnionRect@CRect@@QAEHPBUtagRECT@@0@Z 007393a0 f   atlsd:atltypes.obj
 0002:0021a3d0       ??4CRect@@QAEXABUtagRECT@@@Z 007393d0 f   atlsd:atltypes.obj
 0002:0021a400       ??8CRect@@QBEHABUtagRECT@@@Z 00739400 f   atlsd:atltypes.obj
 0002:0021a430       ??9CRect@@QBEHABUtagRECT@@@Z 00739430 f   atlsd:atltypes.obj
 0002:0021a460       ??YCRect@@QAEXUtagPOINT@@@Z 00739460 f   atlsd:atltypes.obj
 0002:0021a490       ??YCRect@@QAEXUtagSIZE@@@Z 00739490 f   atlsd:atltypes.obj
 0002:0021a4c0       ??YCRect@@QAEXPBUtagRECT@@@Z 007394c0 f   atlsd:atltypes.obj
 0002:0021a4f0       ??ZCRect@@QAEXUtagPOINT@@@Z 007394f0 f   atlsd:atltypes.obj
 0002:0021a520       ??ZCRect@@QAEXUtagSIZE@@@Z 00739520 f   atlsd:atltypes.obj
 0002:0021a550       ??ZCRect@@QAEXPBUtagRECT@@@Z 00739550 f   atlsd:atltypes.obj
 0002:0021a580       ??_4CRect@@QAEXABUtagRECT@@@Z 00739580 f   atlsd:atltypes.obj
 0002:0021a5b0       ??_5CRect@@QAEXABUtagRECT@@@Z 007395b0 f   atlsd:atltypes.obj
 0002:0021a5e0       ??HCRect@@QBE?AV0@UtagPOINT@@@Z 007395e0 f   atlsd:atltypes.obj
 0002:0021a670       ??GCRect@@QBE?AV0@UtagPOINT@@@Z 00739670 f   atlsd:atltypes.obj
 0002:0021a700       ??HCRect@@QBE?AV0@UtagSIZE@@@Z 00739700 f   atlsd:atltypes.obj
 0002:0021a790       ??GCRect@@QBE?AV0@UtagSIZE@@@Z 00739790 f   atlsd:atltypes.obj
 0002:0021a820       ??HCRect@@QBE?AV0@PBUtagRECT@@@Z 00739820 f   atlsd:atltypes.obj
 0002:0021a890       ??GCRect@@QBE?AV0@PBUtagRECT@@@Z 00739890 f   atlsd:atltypes.obj
 0002:0021a900       ??ICRect@@QBE?AV0@ABUtagRECT@@@Z 00739900 f   atlsd:atltypes.obj
 0002:0021a980       ??UCRect@@QBE?AV0@ABUtagRECT@@@Z 00739980 f   atlsd:atltypes.obj
 0002:0021aa00       ?SubtractRect@CRect@@QAEHPBUtagRECT@@0@Z 00739a00 f   atlsd:atltypes.obj
 0002:0021aa30       ?NormalizeRect@CRect@@QAEXXZ 00739a30 f   atlsd:atltypes.obj
 0002:0021aab0       ?InflateRect@CRect@@QAEXPBUtagRECT@@@Z 00739ab0 f   atlsd:atltypes.obj
 0002:0021ab20       ?InflateRect@CRect@@QAEXHHHH@Z 00739b20 f   atlsd:atltypes.obj
 0002:0021ab80       ?DeflateRect@CRect@@QAEXPBUtagRECT@@@Z 00739b80 f   atlsd:atltypes.obj
 0002:0021abf0       ?DeflateRect@CRect@@QAEXHHHH@Z 00739bf0 f   atlsd:atltypes.obj
 0002:0021ac50       ?MulDiv@CRect@@QBE?AV1@HH@Z 00739c50 f   atlsd:atltypes.obj
 0002:0021ace0       ??0CTimeSpan@ATL@@QAE@XZ   00739ce0 f   atlsd:atltime.obj
 0002:0021ad10       ??0CTimeSpan@ATL@@QAE@_J@Z 00739d10 f   atlsd:atltime.obj
 0002:0021ad40       ??0CTimeSpan@ATL@@QAE@JHHH@Z 00739d40 f   atlsd:atltime.obj
 0002:0021ade0       ?GetDays@CTimeSpan@ATL@@QBE_JXZ 00739de0 f   atlsd:atltime.obj
 0002:0021ae10       ?GetTotalHours@CTimeSpan@ATL@@QBE_JXZ 00739e10 f   atlsd:atltime.obj
 0002:0021ae40       ?GetHours@CTimeSpan@ATL@@QBEJXZ 00739e40 f   atlsd:atltime.obj
 0002:0021ae90       ?GetTotalMinutes@CTimeSpan@ATL@@QBE_JXZ 00739e90 f   atlsd:atltime.obj
 0002:0021aec0       ?GetMinutes@CTimeSpan@ATL@@QBEJXZ 00739ec0 f   atlsd:atltime.obj
 0002:0021af10       ?GetTotalSeconds@CTimeSpan@ATL@@QBE_JXZ 00739f10 f   atlsd:atltime.obj
 0002:0021af30       ?GetSeconds@CTimeSpan@ATL@@QBEJXZ 00739f30 f   atlsd:atltime.obj
 0002:0021af80       ?GetTimeSpan@CTimeSpan@ATL@@QBE_JXZ 00739f80 f   atlsd:atltime.obj
 0002:0021afa0       ??HCTimeSpan@ATL@@QBE?AV01@V01@@Z 00739fa0 f   atlsd:atltime.obj
 0002:0021afe0       ??GCTimeSpan@ATL@@QBE?AV01@V01@@Z 00739fe0 f   atlsd:atltime.obj
 0002:0021b020       ??YCTimeSpan@ATL@@QAEAAV01@V01@@Z 0073a020 f   atlsd:atltime.obj
 0002:0021b060       ??ZCTimeSpan@ATL@@QAEAAV01@V01@@Z 0073a060 f   atlsd:atltime.obj
 0002:0021b0a0       ??8CTimeSpan@ATL@@QBE_NV01@@Z 0073a0a0 f   atlsd:atltime.obj
 0002:0021b0f0       ??9CTimeSpan@ATL@@QBE_NV01@@Z 0073a0f0 f   atlsd:atltime.obj
 0002:0021b140       ??MCTimeSpan@ATL@@QBE_NV01@@Z 0073a140 f   atlsd:atltime.obj
 0002:0021b1a0       ??OCTimeSpan@ATL@@QBE_NV01@@Z 0073a1a0 f   atlsd:atltime.obj
 0002:0021b200       ??NCTimeSpan@ATL@@QBE_NV01@@Z 0073a200 f   atlsd:atltime.obj
 0002:0021b260       ??PCTimeSpan@ATL@@QBE_NV01@@Z 0073a260 f   atlsd:atltime.obj
 0002:0021b2c0       ?GetTickCount@CTime@ATL@@SG?AV12@XZ 0073a2c0 f   atlsd:atltime.obj
 0002:0021b2f0       ?IsValidFILETIME@CTime@ATL@@SGHABU_FILETIME@@@Z 0073a2f0 f   atlsd:atltime.obj
 0002:0021b360       ??0CTime@ATL@@QAE@XZ       0073a360 f   atlsd:atltime.obj
 0002:0021b390       ??0CTime@ATL@@QAE@_J@Z     0073a390 f   atlsd:atltime.obj
 0002:0021b3c0       ??0CTime@ATL@@QAE@HHHHHHH@Z 0073a3c0 f   atlsd:atltime.obj
 0002:0021b7a0       ??0CTime@ATL@@QAE@GGH@Z    0073a7a0 f   atlsd:atltime.obj
 0002:0021b8e0       ??0CTime@ATL@@QAE@ABU_SYSTEMTIME@@H@Z 0073a8e0 f   atlsd:atltime.obj
 0002:0021b9a0       ??0CTime@ATL@@QAE@ABU_FILETIME@@H@Z 0073a9a0 f   atlsd:atltime.obj
 0002:0021ba70       ??4CTime@ATL@@QAEAAV01@_J@Z 0073aa70 f   atlsd:atltime.obj
 0002:0021baa0       ??YCTime@ATL@@QAEAAV01@VCTimeSpan@1@@Z 0073aaa0 f   atlsd:atltime.obj
 0002:0021bae0       ??ZCTime@ATL@@QAEAAV01@VCTimeSpan@1@@Z 0073aae0 f   atlsd:atltime.obj
 0002:0021bb20       ??GCTime@ATL@@QBE?AVCTimeSpan@1@V01@@Z 0073ab20 f   atlsd:atltime.obj
 0002:0021bb60       ??GCTime@ATL@@QBE?AV01@VCTimeSpan@1@@Z 0073ab60 f   atlsd:atltime.obj
 0002:0021bba0       ??HCTime@ATL@@QBE?AV01@VCTimeSpan@1@@Z 0073aba0 f   atlsd:atltime.obj
 0002:0021bbe0       ??8CTime@ATL@@QBE_NV01@@Z  0073abe0 f   atlsd:atltime.obj
 0002:0021bc30       ??9CTime@ATL@@QBE_NV01@@Z  0073ac30 f   atlsd:atltime.obj
 0002:0021bc80       ??MCTime@ATL@@QBE_NV01@@Z  0073ac80 f   atlsd:atltime.obj
 0002:0021bce0       ??OCTime@ATL@@QBE_NV01@@Z  0073ace0 f   atlsd:atltime.obj
 0002:0021bd40       ??NCTime@ATL@@QBE_NV01@@Z  0073ad40 f   atlsd:atltime.obj
 0002:0021bda0       ??PCTime@ATL@@QBE_NV01@@Z  0073ada0 f   atlsd:atltime.obj
 0002:0021be00       ?GetGmtTm@CTime@ATL@@QBEPAUtm@@PAU3@@Z 0073ae00 f   atlsd:atltime.obj
 0002:0021bee0       ?GetLocalTm@CTime@ATL@@QBEPAUtm@@PAU3@@Z 0073aee0 f   atlsd:atltime.obj
 0002:0021bfc0       ?GetAsSystemTime@CTime@ATL@@QBE_NAAU_SYSTEMTIME@@@Z 0073afc0 f   atlsd:atltime.obj
 0002:0021c0a0       ?GetTime@CTime@ATL@@QBE_JXZ 0073b0a0 f   atlsd:atltime.obj
 0002:0021c0c0       ?GetYear@CTime@ATL@@QBEHXZ 0073b0c0 f   atlsd:atltime.obj
 0002:0021c130       ?GetMonth@CTime@ATL@@QBEHXZ 0073b130 f   atlsd:atltime.obj
 0002:0021c1a0       ?GetDay@CTime@ATL@@QBEHXZ  0073b1a0 f   atlsd:atltime.obj
 0002:0021c200       ?GetHour@CTime@ATL@@QBEHXZ 0073b200 f   atlsd:atltime.obj
 0002:0021c260       ?GetMinute@CTime@ATL@@QBEHXZ 0073b260 f   atlsd:atltime.obj
 0002:0021c2c0       ?GetSecond@CTime@ATL@@QBEHXZ 0073b2c0 f   atlsd:atltime.obj
 0002:0021c320       ?GetDayOfWeek@CTime@ATL@@QBEHXZ 0073b320 f   atlsd:atltime.obj
 0002:0021c390       ??0CFileTimeSpan@ATL@@QAE@XZ 0073b390 f   atlsd:atltime.obj
 0002:0021c3c0       ??0CFileTimeSpan@ATL@@QAE@ABV01@@Z 0073b3c0 f   atlsd:atltime.obj
 0002:0021c3f0       ??0CFileTimeSpan@ATL@@QAE@_J@Z 0073b3f0 f   atlsd:atltime.obj
 0002:0021c420       ??4CFileTimeSpan@ATL@@QAEAAV01@ABV01@@Z 0073b420 f   atlsd:atltime.obj
 0002:0021c450       ??YCFileTimeSpan@ATL@@QAEAAV01@V01@@Z 0073b450 f   atlsd:atltime.obj
 0002:0021c490       ??ZCFileTimeSpan@ATL@@QAEAAV01@V01@@Z 0073b490 f   atlsd:atltime.obj
 0002:0021c4d0       ??HCFileTimeSpan@ATL@@QBE?AV01@V01@@Z 0073b4d0 f   atlsd:atltime.obj
 0002:0021c510       ??GCFileTimeSpan@ATL@@QBE?AV01@V01@@Z 0073b510 f   atlsd:atltime.obj
 0002:0021c550       ??8CFileTimeSpan@ATL@@QBE_NV01@@Z 0073b550 f   atlsd:atltime.obj
 0002:0021c5a0       ??9CFileTimeSpan@ATL@@QBE_NV01@@Z 0073b5a0 f   atlsd:atltime.obj
 0002:0021c5f0       ??MCFileTimeSpan@ATL@@QBE_NV01@@Z 0073b5f0 f   atlsd:atltime.obj
 0002:0021c650       ??OCFileTimeSpan@ATL@@QBE_NV01@@Z 0073b650 f   atlsd:atltime.obj
 0002:0021c6b0       ??NCFileTimeSpan@ATL@@QBE_NV01@@Z 0073b6b0 f   atlsd:atltime.obj
 0002:0021c710       ??PCFileTimeSpan@ATL@@QBE_NV01@@Z 0073b710 f   atlsd:atltime.obj
 0002:0021c770       ?GetTimeSpan@CFileTimeSpan@ATL@@QBE_JXZ 0073b770 f   atlsd:atltime.obj
 0002:0021c790       ?SetTimeSpan@CFileTimeSpan@ATL@@QAEX_J@Z 0073b790 f   atlsd:atltime.obj
 0002:0021c7c0       ??0CFileTime@ATL@@QAE@XZ   0073b7c0 f   atlsd:atltime.obj
 0002:0021c7f0       ??0CFileTime@ATL@@QAE@ABU_FILETIME@@@Z 0073b7f0 f   atlsd:atltime.obj
 0002:0021c830       ??0CFileTime@ATL@@QAE@_K@Z 0073b830 f   atlsd:atltime.obj
 0002:0021c870       ??4CFileTime@ATL@@QAEAAV01@ABU_FILETIME@@@Z 0073b870 f   atlsd:atltime.obj
 0002:0021c8b0       ?GetTickCount@CFileTime@ATL@@SG?AV12@XZ 0073b8b0 f   atlsd:atltime.obj
 0002:0021c8f0       ??YCFileTime@ATL@@QAEAAV01@VCFileTimeSpan@1@@Z 0073b8f0 f   atlsd:atltime.obj
 0002:0021c940       ??ZCFileTime@ATL@@QAEAAV01@VCFileTimeSpan@1@@Z 0073b940 f   atlsd:atltime.obj
 0002:0021c990       ??HCFileTime@ATL@@QBE?AV01@VCFileTimeSpan@1@@Z 0073b990 f   atlsd:atltime.obj
 0002:0021c9e0       ??GCFileTime@ATL@@QBE?AV01@VCFileTimeSpan@1@@Z 0073b9e0 f   atlsd:atltime.obj
 0002:0021ca30       ??GCFileTime@ATL@@QBE?AVCFileTimeSpan@1@V01@@Z 0073ba30 f   atlsd:atltime.obj
 0002:0021ca80       ??8CFileTime@ATL@@QBE_NV01@@Z 0073ba80 f   atlsd:atltime.obj
 0002:0021caf0       ??9CFileTime@ATL@@QBE_NV01@@Z 0073baf0 f   atlsd:atltime.obj
 0002:0021cb60       ??MCFileTime@ATL@@QBE_NV01@@Z 0073bb60 f   atlsd:atltime.obj
 0002:0021cbd0       ??OCFileTime@ATL@@QBE_NV01@@Z 0073bbd0 f   atlsd:atltime.obj
 0002:0021cc40       ??NCFileTime@ATL@@QBE_NV01@@Z 0073bc40 f   atlsd:atltime.obj
 0002:0021ccb0       ??PCFileTime@ATL@@QBE_NV01@@Z 0073bcb0 f   atlsd:atltime.obj
 0002:0021cd20       ?GetTime@CFileTime@ATL@@QBE_KXZ 0073bd20 f   atlsd:atltime.obj
 0002:0021cd60       ?SetTime@CFileTime@ATL@@QAEX_K@Z 0073bd60 f   atlsd:atltime.obj
 0002:0021cda0       ?UTCToLocal@CFileTime@ATL@@QBE?AV12@XZ 0073bda0 f   atlsd:atltime.obj
 0002:0021cdf0       ?LocalToUTC@CFileTime@ATL@@QBE?AV12@XZ 0073bdf0 f   atlsd:atltime.obj
 0002:0021ce40       ?AtlThrowImpl@ATL@@YGXJ@Z  0073be40 f i atlsd:atltime.obj
 0002:0021cef0       ??RCTraceFileAndLineInfo@ATL@@QBAXKIPBDZZ 0073bef0 f i atlsd:atltime.obj
 0002:0021cf50       ?_AtlRaiseException@ATL@@YAXKK@Z 0073bf50 f i atlsd:atltime.obj
 0002:0021cf70       ??0CAtlAllocator@@QAE@XZ   0073bf70 f i atlsd:Externs.obj
 0002:0021cfd0       ??0CTraceSnapshot@@QAE@XZ  0073bfd0 f i atlsd:Externs.obj
 0002:0021d000       ??0?$CSimpleArray@UCModuleInfo@CTraceSnapshot@@V?$CSimpleArrayEqualHelper@UCModuleInfo@CTraceSnapshot@@@ATL@@@ATL@@QAE@XZ 0073c000 f i atlsd:Externs.obj
 0002:0021d040       ??0?$CSimpleArray@KV?$CSimpleArrayEqualHelper@K@ATL@@@ATL@@QAE@XZ 0073c040 f i atlsd:Externs.obj
 0002:0021d1b0       ??0CAtlException@ATL@@QAE@J@Z 0073c1b0 f i atlsd:Externs.obj
 0002:0021d1d0       ?AtlCrtErrorCheck@ATL@@YAHH@Z 0073c1d0 f i atlsd:Externs.obj
 0002:0021d2b0       ??0CTrace@ATL@@AAE@P6AHHPBDH00ZZ@Z 0073c2b0 f i atlsd:Externs.obj
 0002:0021d300       ??1CAtlAllocator@@QAE@XZ   0073c300 f i atlsd:Externs.obj
 0002:0021d330       ??1CTraceSnapshot@@QAE@XZ  0073c330 f i atlsd:Externs.obj
 0002:0021d360       ??1?$CSimpleArray@UCModuleInfo@CTraceSnapshot@@V?$CSimpleArrayEqualHelper@UCModuleInfo@CTraceSnapshot@@@ATL@@@ATL@@QAE@XZ 0073c360 f i atlsd:Externs.obj
 0002:0021d380       ??1?$CSimpleArray@KV?$CSimpleArrayEqualHelper@K@ATL@@@ATL@@QAE@XZ 0073c380 f i atlsd:Externs.obj
 0002:0021d3a0       ?RemoveAll@?$CSimpleArray@UCModuleInfo@CTraceSnapshot@@V?$CSimpleArrayEqualHelper@UCModuleInfo@CTraceSnapshot@@@ATL@@@ATL@@QAEXXZ 0073c3a0 f i atlsd:Externs.obj
 0002:0021d420       ?RemoveAll@?$CSimpleArray@KV?$CSimpleArrayEqualHelper@K@ATL@@@ATL@@QAEXXZ 0073c420 f i atlsd:Externs.obj
 0002:0021d4a0       ??1CTrace@ATL@@AAE@XZ      0073c4a0 f i atlsd:Externs.obj
 0002:0021d4c0       ??0CTraceCategory@ATL@@QAE@PBDI@Z 0073c4c0 f i atlsd:atltrace.obj
 0002:0021d520       ?ChangeCategory@CTrace@ATL@@QAE_NKIW4ATLTRACESTATUS@2@@Z 0073c520 f i atlsd:atltrace.obj
 0002:0021d560       ?RegisterCategory@CTrace@ATL@@QAEKPBD@Z 0073c560 f i atlsd:atltrace.obj
 0002:0021d590       ?NotifyTool@ATL@@YGXXZ     0073c590 f   atlsd:AtlDebugAPI.obj
 0002:0021d5e0       _AtlTraceRegister@8        0073c5e0 f   atlsd:AtlDebugAPI.obj
 0002:0021d670       _AtlTraceUnregister@4      0073c670 f   atlsd:AtlDebugAPI.obj
 0002:0021d6b0       _AtlTraceRegisterCategoryA@8 0073c6b0 f   atlsd:AtlDebugAPI.obj
 0002:0021d730       _AtlTraceRegisterCategoryU@8 0073c730 f   atlsd:AtlDebugAPI.obj
 0002:0021d790       _AtlTraceModifyProcess@20  0073c790 f   atlsd:AtlDebugAPI.obj
 0002:0021d860       ?GetProcess@CAtlAllocator@@QBEPAVCAtlTraceProcess@@XZ 0073c860 f i atlsd:AtlDebugAPI.obj
 0002:0021d880       _AtlTraceModifyModule@16   0073c880 f   atlsd:AtlDebugAPI.obj
 0002:0021d9a0       _AtlTraceModifyCategory@16 0073c9a0 f   atlsd:AtlDebugAPI.obj
 0002:0021da80       _AtlTraceGetProcess@20     0073ca80 f   atlsd:AtlDebugAPI.obj
 0002:0021db90       _AtlTraceGetModule@16      0073cb90 f   atlsd:AtlDebugAPI.obj
 0002:0021dce0       _AtlTraceGetCategory@16    0073cce0 f   atlsd:AtlDebugAPI.obj
 0002:0021de00       _AtlTraceGetUpdateEventNameA@4 0073ce00 f   atlsd:AtlDebugAPI.obj
 0002:0021de40       _AtlTraceGetUpdateEventNameA_s@8 0073ce40 f   atlsd:AtlDebugAPI.obj
 0002:0021de80       _AtlTraceGetUpdateEventNameU@4 0073ce80 f   atlsd:AtlDebugAPI.obj
 0002:0021df00       _AtlTraceGetUpdateEventNameU_s@8 0073cf00 f   atlsd:AtlDebugAPI.obj
 0002:0021df90       _AtlTraceVA                0073cf90 f   atlsd:AtlDebugAPI.obj
 0002:0021e370       ?Name@CAtlTraceCategory@@QBEPB_WXZ 0073d370 f i atlsd:AtlDebugAPI.obj
 0002:0021e390       _AtlTraceVU                0073d390 f   atlsd:AtlDebugAPI.obj
 0002:0021e7b0       _AtlTraceOpenProcess@4     0073d7b0 f   atlsd:AtlDebugAPI.obj
 0002:0021e8e0       ??_GCAtlAllocator@@QAEPAXI@Z 0073d8e0 f i atlsd:AtlDebugAPI.obj
 0002:0021e920       _AtlTraceCloseProcess@4    0073d920 f   atlsd:AtlDebugAPI.obj
 0002:0021e9e0       _AtlTraceSnapshotProcess@4 0073d9e0 f   atlsd:AtlDebugAPI.obj
 0002:0021ea70       _AtlTraceGetProcessInfo@8  0073da70 f   atlsd:AtlDebugAPI.obj
 0002:0021ec80       ?Path@CAtlTraceModuleInfo@@QBEPB_WXZ 0073dc80 f i atlsd:AtlDebugAPI.obj
 0002:0021eca0       ?Name@CAtlTraceModuleInfo@@QBEPB_WXZ 0073dca0 f i atlsd:AtlDebugAPI.obj
 0002:0021ecc0       ?Id@CAtlTraceProcess@@QBEKXZ 0073dcc0 f i atlsd:AtlDebugAPI.obj
 0002:0021ece0       _AtlTraceGetModuleInfo@12  0073dce0 f   atlsd:AtlDebugAPI.obj
 0002:0021eee0       _AtlTraceGetCategoryInfo@16 0073dee0 f   atlsd:AtlDebugAPI.obj
 0002:0021f340       ?CrtDbgReport@CAtlTraceModule@@QBEP6AHHPBDH00ZZXZ 0073e340 f i atlsd:AtlDebugAPI.obj
 0002:0021f360       ?_IsTracingEnabled@ATL@@YA_NKKI@Z 0073e360 f   atlsd:AtlDebugAPI.obj
 0002:0021f3a0       ?GetSize@?$CSimpleArray@UCModuleInfo@CTraceSnapshot@@V?$CSimpleArrayEqualHelper@UCModuleInfo@CTraceSnapshot@@@ATL@@@ATL@@QBEHXZ 0073e3a0 f i atlsd:AtlDebugAPI.obj
 0002:0021f3c0       ??A?$CSimpleArray@UCModuleInfo@CTraceSnapshot@@V?$CSimpleArrayEqualHelper@UCModuleInfo@CTraceSnapshot@@@ATL@@@ATL@@QAEAAUCModuleInfo@CTraceSnapshot@@H@Z 0073e3c0 f i atlsd:AtlDebugAPI.obj
 0002:0021f450       ?strcpy_s@Checked@ATL@@YAXPADIPBD@Z 0073e450 f i atlsd:AtlDebugAPI.obj
 0002:0021f480       ?wcscpy_s@Checked@ATL@@YAXPA_WIPB_W@Z 0073e480 f i atlsd:AtlDebugAPI.obj
 0002:0021f4b0       ??0?$CA2WEX@$0IA@@ATL@@QAE@PBD@Z 0073e4b0 f i atlsd:AtlDebugAPI.obj
 0002:0021f4f0       ?_AtlGetConversionACP@ATL@@YGIXZ 0073e4f0 f i atlsd:AtlDebugAPI.obj
 0002:0021f500       ??1?$CA2WEX@$0IA@@ATL@@QAE@XZ 0073e500 f i atlsd:AtlDebugAPI.obj
 0002:0021f530       ??B?$CA2WEX@$0IA@@ATL@@QBEPA_WXZ 0073e530 f i atlsd:AtlDebugAPI.obj
 0002:0021f550       ?Init@?$CA2WEX@$0IA@@ATL@@AAEXPBDI@Z 0073e550 f i atlsd:AtlDebugAPI.obj
 0002:0021f690       ?AtlThrowLastWin32@ATL@@YGXXZ 0073e690 f i atlsd:AtlDebugAPI.obj
 0002:0021f6c0       _HRESULT_FROM_WIN32        0073e6c0 f i atlsd:AtlDebugAPI.obj
 0002:0021f700       ??$AtlConvFreeMemory@_W@ATL@@YAXPA_W0H@Z 0073e700 f i atlsd:AtlDebugAPI.obj
 0002:0021f750       ??$AtlConvAllocMemory@_W@ATL@@YAXPAPA_WHPA_WH@Z 0073e750 f i atlsd:AtlDebugAPI.obj
 0002:0021f940       ?Init@CAtlAllocator@@QAE_NPBDK@Z 0073e940 f   atlsd:Allocate.obj
 0002:0021fd40       ?IncRef@CAtlTraceProcess@@QAEIXZ 0073ed40 f i atlsd:Allocate.obj
 0002:0021fd80       ?Base@CAtlTraceProcess@@QBEPAXXZ 0073ed80 f i atlsd:Allocate.obj
 0002:0021fda0       ?Open@CAtlAllocator@@QAE_NPBD@Z 0073eda0 f   atlsd:Allocate.obj
 0002:0021ff30       ?Close@CAtlAllocator@@QAEX_N@Z 0073ef30 f   atlsd:Allocate.obj
 0002:0021ffb0       ?DecRef@CAtlTraceProcess@@QAEIXZ 0073efb0 f i atlsd:Allocate.obj
 0002:0021fff0       ?GetModule@CAtlAllocator@@QBEPAVCAtlTraceModule@@H@Z 0073eff0 f   atlsd:Allocate.obj
 0002:002200b0       ?ModuleCount@CAtlTraceProcess@@QBEHXZ 0073f0b0 f i atlsd:Allocate.obj
 0002:002200d0       ?GetCategory@CAtlAllocator@@QBEPAVCAtlTraceCategory@@H@Z 0073f0d0 f   atlsd:Allocate.obj
 0002:002201b0       ?MaxSize@CAtlTraceProcess@@QBEKXZ 0073f1b0 f i atlsd:Allocate.obj
 0002:002201d0       ?CategoryCount@CAtlTraceProcess@@QBEHXZ 0073f1d0 f i atlsd:Allocate.obj
 0002:002201f0       ?GetCategoryCount@CAtlAllocator@@QBEHH@Z 0073f1f0 f   atlsd:Allocate.obj
 0002:00220290       ?GetCategoryCount@CAtlAllocator@@QBEHABVCAtlTraceModule@@@Z 0073f290 f   atlsd:Allocate.obj
 0002:00220310       ?GetModuleCount@CAtlAllocator@@QBEHXZ 0073f310 f   atlsd:Allocate.obj
 0002:00220380       ?FindModule@CAtlAllocator@@QBE_NPB_WPAI@Z 0073f380 f   atlsd:Allocate.obj
 0002:00220420       ?AddModule@CAtlAllocator@@QAEHPAUHINSTANCE__@@@Z 0073f420 f   atlsd:Allocate.obj
 0002:00220660       ?TryAllocate@CAtlTraceSettings@@QAE_NXZ 0073f660 f i atlsd:Allocate.obj
 0002:002206b0       ?MarkValid@CAtlTraceSettings@@QAEXJ@Z 0073f6b0 f i atlsd:Allocate.obj
 0002:00220700       ?IncModuleCount@CAtlTraceProcess@@QAEXI@Z 0073f700 f i atlsd:Allocate.obj
 0002:00220730       ?AddCategory@CAtlAllocator@@QAEHHPB_W@Z 0073f730 f   atlsd:Allocate.obj
 0002:002209f0       ?TryAddRef@CAtlTraceSettings@@QAE_NXZ 0073f9f0 f i atlsd:Allocate.obj
 0002:00220a40       ?Release@CAtlTraceSettings@@QAEXXZ 0073fa40 f i atlsd:Allocate.obj
 0002:00220a80       ?IncCategoryCount@CAtlTraceProcess@@QAEXI@Z 0073fa80 f i atlsd:Allocate.obj
 0002:00220ab0       ?RemoveModule@CAtlAllocator@@QAE_NH@Z 0073fab0 f   atlsd:Allocate.obj
 0002:00220b90       ?CleanUp@CAtlAllocator@@QAEXXZ 0073fb90 f   atlsd:Allocate.obj
 0002:00220bb0       ?TakeSnapshot@CAtlAllocator@@QAEXXZ 0073fbb0 f   atlsd:Allocate.obj
 0002:00220e10       ?ReleaseSnapshot@CAtlAllocator@@QAEXXZ 0073fe10 f   atlsd:Allocate.obj
 0002:00220f20       ?Add@?$CSimpleArray@UCModuleInfo@CTraceSnapshot@@V?$CSimpleArrayEqualHelper@UCModuleInfo@CTraceSnapshot@@@ATL@@@ATL@@QAEHABUCModuleInfo@CTraceSnapshot@@@Z 0073ff20 f i atlsd:Allocate.obj
 0002:002210a0       ?GetSize@?$CSimpleArray@KV?$CSimpleArrayEqualHelper@K@ATL@@@ATL@@QBEHXZ 007400a0 f i atlsd:Allocate.obj
 0002:002210c0       ?Add@?$CSimpleArray@KV?$CSimpleArrayEqualHelper@K@ATL@@@ATL@@QAEHABK@Z 007400c0 f i atlsd:Allocate.obj
 0002:00221240       ?RemoveAt@?$CSimpleArray@KV?$CSimpleArrayEqualHelper@K@ATL@@@ATL@@QAEHH@Z 00740240 f i atlsd:Allocate.obj
 0002:00221330       ??A?$CSimpleArray@KV?$CSimpleArrayEqualHelper@K@ATL@@@ATL@@QAEAAKH@Z 00740330 f i atlsd:Allocate.obj
 0002:002213c0       ?InternalSetAtIndex@?$CSimpleArray@UCModuleInfo@CTraceSnapshot@@V?$CSimpleArrayEqualHelper@UCModuleInfo@CTraceSnapshot@@@ATL@@@ATL@@QAEXHABUCModuleInfo@CTraceSnapshot@@@Z 007403c0 f i atlsd:Allocate.obj
 0002:00221420       ?InternalSetAtIndex@?$CSimpleArray@KV?$CSimpleArrayEqualHelper@K@ATL@@@ATL@@QAEXHABK@Z 00740420 f i atlsd:Allocate.obj
 0002:00221480       ??0Wrapper@?$CSimpleArray@UCModuleInfo@CTraceSnapshot@@V?$CSimpleArrayEqualHelper@UCModuleInfo@CTraceSnapshot@@@ATL@@@ATL@@QAE@ABUCModuleInfo@CTraceSnapshot@@@Z 00740480 f i atlsd:Allocate.obj
 0002:002214c0       ??0Wrapper@?$CSimpleArray@KV?$CSimpleArrayEqualHelper@K@ATL@@@ATL@@QAE@ABK@Z 007404c0 f i atlsd:Allocate.obj
 0002:002214f0       ??$?2UCModuleInfo@CTraceSnapshot@@@Wrapper@?$CSimpleArray@UCModuleInfo@CTraceSnapshot@@V?$CSimpleArrayEqualHelper@UCModuleInfo@CTraceSnapshot@@@ATL@@@ATL@@SAPAXIPAUCModuleInfo@CTraceSnapshot@@@Z 007404f0 f i atlsd:Allocate.obj
 0002:00221500       ??$?2K@Wrapper@?$CSimpleArray@KV?$CSimpleArrayEqualHelper@K@ATL@@@ATL@@SAPAXIPAK@Z 00740500 f i atlsd:Allocate.obj
 0002:00221510       ??0CAtlTraceModuleInfo@@QAE@XZ 00740510 f   atlsd:AtlTraceModuleManager.obj
 0002:00221570       ?Reset@CAtlTraceModuleInfo@@QAEXPAUHINSTANCE__@@@Z 00740570 f   atlsd:AtlTraceModuleManager.obj
 0002:00221700       ??0CAtlTraceCategory@@QAE@XZ 00740700 f   atlsd:AtlTraceModuleManager.obj
 0002:00221750       ??0CAtlTraceSettings@@QAE@XZ 00740750 f i atlsd:AtlTraceModuleManager.obj
 0002:002217a0       ?Reset@CAtlTraceCategory@@QAEXPB_WJ@Z 007407a0 f   atlsd:AtlTraceModuleManager.obj
 0002:00221800       ??0CAtlTraceModule@@QAE@XZ 00740800 f   atlsd:AtlTraceModuleManager.obj
 0002:00221840       ?CrtDbgReport@CAtlTraceModule@@QAEXP6AHHPBDH00ZZ@Z 00740840 f   atlsd:AtlTraceModuleManager.obj
 0002:00221880       ??0CAtlTraceProcess@@QAE@K@Z 00740880 f   atlsd:AtlTraceModuleManager.obj
 0002:00221990       ?GetNextCookie@CAtlTraceProcess@@QAEJXZ 00740990 f   atlsd:AtlTraceModuleManager.obj
 0002:002219b4       _OleLoadPicture@20         007409b4 f   oleaut32:OLEAUT32.dll
 0002:002219ba       _SysFreeString@4           007409ba f   oleaut32:OLEAUT32.dll
 0002:002219c0       ?read@?$basic_istream@DU?$char_traits@D@std@@@std@@QAEAAV12@PAD_J@Z 007409c0 f   msvcprtd:MSVCP100D.dll
 0002:002219c6       ?eof@ios_base@std@@QBE_NXZ 007409c6 f   msvcprtd:MSVCP100D.dll
 0002:002219cc       ??7ios_base@std@@QBE_NXZ   007409cc f   msvcprtd:MSVCP100D.dll
 0002:002219d2       ??1?$basic_ios@DU?$char_traits@D@std@@@std@@UAE@XZ 007409d2 f   msvcprtd:MSVCP100D.dll
 0002:002219d8       ??1?$basic_istream@DU?$char_traits@D@std@@@std@@UAE@XZ 007409d8 f   msvcprtd:MSVCP100D.dll
 0002:002219de       ??0?$basic_istream@DU?$char_traits@D@std@@@std@@QAE@PAV?$basic_streambuf@DU?$char_traits@D@std@@@1@_N@Z 007409de f   msvcprtd:MSVCP100D.dll
 0002:002219e4       ??0?$basic_ios@DU?$char_traits@D@std@@@std@@IAE@XZ 007409e4 f   msvcprtd:MSVCP100D.dll
 0002:002219ea       ?clear@?$basic_ios@DU?$char_traits@D@std@@@std@@QAEXH_N@Z 007409ea f   msvcprtd:MSVCP100D.dll
 0002:002219f0       ?setstate@?$basic_ios@DU?$char_traits@D@std@@@std@@QAEXH_N@Z 007409f0 f   msvcprtd:MSVCP100D.dll
 0002:002219f6       ??1?$basic_streambuf@DU?$char_traits@D@std@@@std@@UAE@XZ 007409f6 f   msvcprtd:MSVCP100D.dll
 0002:002219fc       ?showmanyc@?$basic_streambuf@DU?$char_traits@D@std@@@std@@MAE_JXZ 007409fc f   msvcprtd:MSVCP100D.dll
 0002:00221a02       ?xsgetn@?$basic_streambuf@DU?$char_traits@D@std@@@std@@MAE_JPAD_J@Z 00740a02 f   msvcprtd:MSVCP100D.dll
 0002:00221a08       ?xsputn@?$basic_streambuf@DU?$char_traits@D@std@@@std@@MAE_JPBD_J@Z 00740a08 f   msvcprtd:MSVCP100D.dll
 0002:00221a0e       ?out@?$codecvt@DDH@std@@QBEHAAHPBD1AAPBDPAD3AAPAD@Z 00740a0e f   msvcprtd:MSVCP100D.dll
 0002:00221a14       ?_Pninc@?$basic_streambuf@DU?$char_traits@D@std@@@std@@IAEPADXZ 00740a14 f   msvcprtd:MSVCP100D.dll
 0002:00221a1a       ?epptr@?$basic_streambuf@DU?$char_traits@D@std@@@std@@IBEPADXZ 00740a1a f   msvcprtd:MSVCP100D.dll
 0002:00221a20       ?pptr@?$basic_streambuf@DU?$char_traits@D@std@@@std@@IBEPADXZ 00740a20 f   msvcprtd:MSVCP100D.dll
 0002:00221a26       ?_Gndec@?$basic_streambuf@DU?$char_traits@D@std@@@std@@IAEPADXZ 00740a26 f   msvcprtd:MSVCP100D.dll
 0002:00221a2c       ?eback@?$basic_streambuf@DU?$char_traits@D@std@@@std@@IBEPADXZ 00740a2c f   msvcprtd:MSVCP100D.dll
 0002:00221a32       ?gptr@?$basic_streambuf@DU?$char_traits@D@std@@@std@@IBEPADXZ 00740a32 f   msvcprtd:MSVCP100D.dll
 0002:00221a38       ?egptr@?$basic_streambuf@DU?$char_traits@D@std@@@std@@IBEPADXZ 00740a38 f   msvcprtd:MSVCP100D.dll
 0002:00221a3e       ?in@?$codecvt@DDH@std@@QBEHAAHPBD1AAPBDPAD3AAPAD@Z 00740a3e f   msvcprtd:MSVCP100D.dll
 0002:00221a44       ?_Gninc@?$basic_streambuf@DU?$char_traits@D@std@@@std@@IAEPADXZ 00740a44 f   msvcprtd:MSVCP100D.dll
 0002:00221a4a       ??1_Lockit@std@@QAE@XZ     00740a4a f   msvcprtd:MSVCP100D.dll
 0002:00221a50       ??0_Lockit@std@@QAE@H@Z    00740a50 f   msvcprtd:MSVCP100D.dll
 0002:00221a56       ?_Debug_message@std@@YAXPB_W0I@Z 00740a56 f   msvcprtd:MSVCP100D.dll
 0002:00221a5c       ??1_Container_base12@std@@QAE@XZ 00740a5c f   msvcprtd:MSVCP100D.dll
 0002:00221a62       ??0_Container_base12@std@@QAE@XZ 00740a62 f   msvcprtd:MSVCP100D.dll
 0002:00221a68       ?_Orphan_all@_Container_base12@std@@QAEXXZ 00740a68 f   msvcprtd:MSVCP100D.dll
 0002:00221a6e       ??0?$basic_streambuf@DU?$char_traits@D@std@@@std@@IAE@XZ 00740a6e f   msvcprtd:MSVCP100D.dll
 0002:00221a74       ?getloc@?$basic_streambuf@DU?$char_traits@D@std@@@std@@QBE?AVlocale@2@XZ 00740a74 f   msvcprtd:MSVCP100D.dll
 0002:00221a7a       ?_Fiopen@std@@YAPAU_iobuf@@PBDHH@Z 00740a7a f   msvcprtd:MSVCP100D.dll
 0002:00221a80       ?_Decref@facet@locale@std@@QAEPAV123@XZ 00740a80 f   msvcprtd:MSVCP100D.dll
 0002:00221a86       ?_Init@?$basic_streambuf@DU?$char_traits@D@std@@@std@@IAEXPAPAD0PAH001@Z 00740a86 f   msvcprtd:MSVCP100D.dll
 0002:00221a8c       ?_Init@?$basic_streambuf@DU?$char_traits@D@std@@@std@@IAEXXZ 00740a8c f   msvcprtd:MSVCP100D.dll
 0002:00221a92       ?unshift@?$codecvt@DDH@std@@QBEHAAHPAD1AAPAD@Z 00740a92 f   msvcprtd:MSVCP100D.dll
 0002:00221a98       ?always_noconv@codecvt_base@std@@QBE_NXZ 00740a98 f   msvcprtd:MSVCP100D.dll
 0002:00221a9e       ?setg@?$basic_streambuf@DU?$char_traits@D@std@@@std@@IAEXPAD00@Z 00740a9e f   msvcprtd:MSVCP100D.dll
 0002:00221aa4       ?_Xlength_error@std@@YAXPBD@Z 00740aa4 f   msvcprtd:MSVCP100D.dll
 0002:00221aaa       ?_Xout_of_range@std@@YAXPBD@Z 00740aaa f   msvcprtd:MSVCP100D.dll
 0002:00221ab0       ?_Incref@facet@locale@std@@QAEXXZ 00740ab0 f   msvcprtd:MSVCP100D.dll
 0002:00221ab6       ?_Getcat@?$codecvt@DDH@std@@SAIPAPBVfacet@locale@2@PBV42@@Z 00740ab6 f   msvcprtd:MSVCP100D.dll
 0002:00221abc       ??Bid@locale@std@@QAEIXZ   00740abc f   msvcprtd:MSVCP100D.dll
 0002:00221ad0       ?_Facet_Register@facet@locale@std@@CAXPAV123@@Z 00740ad0 f   msvcprtd:locale0_implib.obj
 0002:00221b90       ??0_Fac_node@std@@QAE@PAU01@PAVfacet@locale@1@@Z 00740b90 f i msvcprtd:locale0_implib.obj
 0002:00221bc0       ??1_Fac_tidy_reg_t@std@@QAE@XZ 00740bc0 f i msvcprtd:locale0_implib.obj
 0002:00221c90       ??$_DebugHeapDelete@U_Fac_node@std@@@std@@YAXPAU_Fac_node@0@@Z 00740c90 f i msvcprtd:locale0_implib.obj
 0002:00221cc0       ??_G_Fac_node@std@@QAEPAXI@Z 00740cc0 f i msvcprtd:locale0_implib.obj
 0002:00221d00       ??1_Fac_node@std@@QAE@XZ   00740d00 f i msvcprtd:locale0_implib.obj
 0002:00221d2a       ?_Getgloballocale@locale@std@@CAPAV_Locimp@12@XZ 00740d2a f   msvcprtd:MSVCP100D.dll
 0002:00221d30       ??3@YAXPAXABU_DebugHeapTag_t@std@@PADH@Z 00740d30 f   msvcprtd:MSVCP100D.dll
 0002:00221d36       ??2@YAPAXIABU_DebugHeapTag_t@std@@PADH@Z 00740d36 f   msvcprtd:MSVCP100D.dll
 0002:00221d3c       ?_DebugHeapTag_func@std@@YAABU_DebugHeapTag_t@1@XZ 00740d3c f   msvcprtd:MSVCP100D.dll
 0002:00221d50       _WinMain@16                00740d50 f   mfcs100d:appmodul.obj
 0002:00221d80       ?AfxInitialize@@YGHHK@Z    00740d80 f   mfcs100d:appmodul.obj
 0002:00221dec       __mktime64                 00740dec f   msvcrtd:MSVCR100D.dll
 0002:00221df2       __gmtime64_s               00740df2 f   msvcrtd:MSVCR100D.dll
 0002:00221df8       __localtime64_s            00740df8 f   msvcrtd:MSVCR100D.dll
 0002:00221e00       __aullshr                  00740e00 f   msvcrtd:ullshr.obj
 0002:00221e30       __allshl                   00740e30 f   msvcrtd:llshl.obj
 0002:00221e56       __snprintf_s               00740e56 f   msvcrtd:MSVCR100D.dll
 0002:00221e5c       __errno                    00740e5c f   msvcrtd:MSVCR100D.dll
 0002:00221e62       _wcscpy                    00740e62 f   msvcrtd:MSVCR100D.dll
 0002:00221e68       __vsnprintf_s              00740e68 f   msvcrtd:MSVCR100D.dll
 0002:00221e6e       __vsnwprintf_s             00740e6e f   msvcrtd:MSVCR100D.dll
 0002:00221e74       __snwprintf_s              00740e74 f   msvcrtd:MSVCR100D.dll
 0002:00221e7a       _wcscpy_s                  00740e7a f   msvcrtd:MSVCR100D.dll
 0002:00221e80       _wcsncpy_s                 00740e80 f   msvcrtd:MSVCR100D.dll
 0002:00221e86       __recalloc                 00740e86 f   msvcrtd:MSVCR100D.dll
 0002:00221e8c       __wcsicmp                  00740e8c f   msvcrtd:MSVCR100D.dll
 0002:00221e92       _wcslen                    00740e92 f   msvcrtd:MSVCR100D.dll
 0002:00221e98       __setmode                  00740e98 f   msvcrtd:MSVCR100D.dll
 0002:00221e98       _setmode                   00740e98 f   msvcrtd:MSVCR100D.dll
 0002:00221e9e       __fileno                   00740e9e f   msvcrtd:MSVCR100D.dll
 0002:00221ea4       __setmbcp                  00740ea4 f   msvcrtd:MSVCR100D.dll
 0002:00221eaa       _MulDiv@12                 00740eaa f   kernel32:KERNEL32.dll
 0002:00221eb0       _FileTimeToSystemTime@8    00740eb0 f   kernel32:KERNEL32.dll
 0002:00221eb6       _FileTimeToLocalFileTime@8 00740eb6 f   kernel32:KERNEL32.dll
 0002:00221ebc       _LocalFileTimeToFileTime@8 00740ebc f   kernel32:KERNEL32.dll
 0002:00221ec2       _SetEvent@4                00740ec2 f   kernel32:KERNEL32.dll
 0002:00221ec8       _OpenEventA@12             00740ec8 f   kernel32:KERNEL32.dll
 0002:00221ece       _OutputDebugStringW@4      00740ece f   kernel32:KERNEL32.dll
 0002:00221ed4       _VirtualAlloc@16           00740ed4 f   kernel32:KERNEL32.dll
 0002:00221eda       _GetSystemInfo@4           00740eda f   kernel32:KERNEL32.dll
 0002:00221ee0       _OpenFileMappingA@12       00740ee0 f   kernel32:KERNEL32.dll
 0002:00221ee6       _CopyRect@8                00740ee6 f   user32:USER32.dll
 0002:00221eec       _IsRectEmpty@4             00740eec f   user32:USER32.dll
 0002:00221ef2       _PtInRect@12               00740ef2 f   user32:USER32.dll
 0002:00221ef8       _SetRect@20                00740ef8 f   user32:USER32.dll
 0002:00221efe       _SetRectEmpty@4            00740efe f   user32:USER32.dll
 0002:00221f04       _EqualRect@8               00740f04 f   user32:USER32.dll
 0002:00221f0a       _InflateRect@12            00740f0a f   user32:USER32.dll
 0002:00221f10       _OffsetRect@12             00740f10 f   user32:USER32.dll
 0002:00221f16       _IntersectRect@12          00740f16 f   user32:USER32.dll
 0002:00221f1c       _UnionRect@12              00740f1c f   user32:USER32.dll
 0002:00221f22       _SubtractRect@12           00740f22 f   user32:USER32.dll
 0002:00221f28       _SetThreadToken@8          00740f28 f   advapi32:ADVAPI32.dll
 0002:00221f2e       _RevertToSelf@0            00740f2e f   advapi32:ADVAPI32.dll
 0002:00221f34       _OpenThreadToken@16        00740f34 f   advapi32:ADVAPI32.dll
 0002:00221f3a       ?AfxWinMain@@YGHPAUHINSTANCE__@@0PADH@Z 00740f3a f   mfc100d:mfc100d.dll
 0002:00221f40       ?AfxGetModuleState@@YGPAVAFX_MODULE_STATE@@XZ 00740f40 f   mfc100d:mfc100d.dll
 0002:00246410       ??__Fstd_err@?1??instance@CQAFDebug@@KAAAV1@XZ@YAXXZ 00765410 f i QAFDebug.obj
 0003:00000000       ___xc_a                    00767000     msvcrtd:cinitexe.obj
 0003:00000610       ___xc_z                    00767610     msvcrtd:cinitexe.obj
 0003:00000714       ___xi_a                    00767714     msvcrtd:cinitexe.obj
 0003:00000b24       ___xi_z                    00767b24     msvcrtd:cinitexe.obj
 0003:00000c4c       ??_C@_04PMOCAHAA@open?$AA@ 00767c4c     BomInTable.obj
 0003:00000c54       ??_C@_0P@DJFFGIAL@?2?Q?u?e?l?$MA?r?n?p?4exe?$CC?$AA@ 00767c54     BomInTable.obj
 0003:00000c68       ??_C@_0O@JEAOLBFL@?2freecds?4exe?$CC?$AA@ 00767c68     BomInTable.obj
 0003:00000c78       ??_C@_09IDBDDKFN@2?$HM?4n_page?$AA@ 00767c78     BomInTable.obj
 0003:00000c84       ??_C@_0BI@DBEFEFL@add_new_page?3?5?$CCPage?5?$CFd?$CC?$AA@ 00767c84     BomInTable.obj
 0003:00000ca0       ??_C@_01EEMJAFIK@?6?$AA@   00767ca0     BomInTable.obj
 0003:00000ca4       ??_C@_0DB@GFLMJMGM@description?3?5?$CC?$CFs?$CC?5?$CFd?5?$CFd?5?$CFd?5?$CFd?5?$CFd@ 00767ca4     BomInTable.obj
 0003:00000ce0       ??_C@_0BK@HLNMBKLF@?5?5corner?3?5?$CFd?5?$CFd?5?$CFd?5?$CFd?5?$CFd?6?$AA@ 00767ce0     BomInTable.obj
 0003:00000d00       ??_C@_0CD@KBIFKKDG@polyline?3?5?$CFd?5?$CFd?5?$CFd?5?$CFd?5?$CFd?5?$CFd?5?$CFd?5?$CF@ 00767d00     BomInTable.obj
 0003:00000d2c       ??_C@_05OCJEJOIA@?$FLend?$FN?$AA@ 00767d2c     BomInTable.obj
 0003:00000d34       ??_C@_0N@FHEPEHCO@add_new_page?$AA@ 00767d34     BomInTable.obj
 0003:00000d44       ??_C@_05FGLIGOPP@?$CC?$CIcol?$AA@ 00767d44     BomInTable.obj
 0003:00000d4c       ??_C@_02DAHALNEP@?$CC?4?$AA@ 00767d4c     BomInTable.obj
 0003:00000d50       ??_C@_0L@EINPDGFN@?$CFd?$HM?4n_page?$AA@ 00767d50     BomInTable.obj
 0003:00000d60       ??_C@_07HPCKOPIG@?4n_page?$AA@ 00767d60     BomInTable.obj
 0003:00000d6c       ??_C@_08LGCGMP@?4n_pages?$AA@ 00767d6c     BomInTable.obj
 0003:00000d78       ??_C@_0BB@CMJCFCIM@page_number?3?5?$CC0?$CC?$AA@ 00767d78     BomInTable.obj
 0003:00000d8c       ??_C@_0N@EIMPDHGM@page_number?3?$AA@ 00767d8c     BomInTable.obj
 0003:00000d9c       ??_C@_0P@NNEBDFP@rename_page?3?5?$CC?$AA@ 00767d9c     BomInTable.obj
 0003:00000db0       ??_C@_01BJJEKLCA@?$CC?$AA@ 00767db0     BomInTable.obj
 0003:00000db4       ??_C@_0N@CENLKDJM@rename_page?3?$AA@ 00767db4     BomInTable.obj
 0003:00000dc4       ??_C@_0BA@KKOCKCCJ@project_name?3?5?$CC?$AA@ 00767dc4     BomInTable.obj
 0003:00000dd8       ??_C@_05OIEIMHPK@?4cds?$CC?$AA@ 00767dd8     BomInTable.obj
 0003:00000de0       ??_C@_0O@GNMMHNKN@project_name?3?$AA@ 00767de0     BomInTable.obj
 0003:00000df0       ??_C@_01KICIPPFI@?2?$AA@   00767df0     BomInTable.obj
 0003:00000df4       ??_C@_03NLJIHOMM@?5?9?5?$AA@ 00767df4     BomInTable.obj
 0003:00000df8       ??_C@_08MKGEFODM@?2bom?4cds?$AA@ 00767df8     BomInTable.obj
 0003:00000e04       ??_C@_04CFHDIIKD@?4cds?$AA@ 00767e04     BomInTable.obj
 0003:00000e0c       ??_C@_04EDEAGBGM@?4fpc?$AA@ 00767e0c     BomInTable.obj
 0003:00000e14       ??_C@_13COJANIEC@?$AA0?$AA?$AA@ 00767e14     BomInTable.obj
 0003:00000e18       ??_C@_1GG@IBHODCJK@?$AAd?$AA?3?$AA?2?$AAf?$AAr?$AAe?$AAe?$AAp?$AAc?$AAb?$AAd?$AAe?$AAv?$AA?2?$AAs?$AAc?$AAh?$AAe?$AAm?$AAa?$AAt?$AAi?$AAc?$AA?5?$AAc?$AAo?$AAn?$AAs?$AAt?$AAr?$AAu?$AAc@ 00767e18     BomInTable.obj
 0003:00000e80       ??_C@_0BD@LOBCKDMF@?$CK?$CK?$CK?$CK?$CK?5DONE?5?$CK?$CK?$CK?$CK?$CK?$AN?6?$AA@ 00767e80     FreePcbView.obj
 0003:00000e94       ??_C@_0BL@MIMODBOD@?2related_files?2reports?2bom?$AA@ 00767e94     BomInTable.obj
 0003:00000eb4       ??_C@_01LFCBOECM@?4?$AA@   00767eb4     BomInTable.obj
 0003:00000eb8       ??_C@_04OEHMGJNM@?4col?$AA@ 00767eb8     BomInTable.obj
 0003:00000ec0       ??_C@_03FDANMOLP@AA0?$AA@  00767ec0     BomInTable.obj
 0003:00000ec4       ??_C@_00CNPNBAHC@?$AA@     00767ec4     BomInTable.obj
 0003:00000ec8       ??_C@_02DPKJAMEF@?$CFd?$AA@ 00767ec8     BomInTable.obj
 0003:00000ecc       ??_C@_01DNKMNLPK@?$HM?$AA@ 00767ecc     BomInTable.obj
 0003:00000ed0       ??_C@_06EGIPPJKH@?$HMLINK?3?$AA@ 00767ed0     BomInTable.obj
 0003:00000ed8       ??_C@_03LMOEDBMH@cds?$AA@  00767ed8     BomInTable.obj
 0003:00000edc       ??_C@_03NKNHNIAI@fpc?$AA@  00767edc     BomInTable.obj
 0003:00000ee0       ??_C@_09PPMKLJFC@?4pcb_name?$AA@ 00767ee0     BomInTable.obj
 0003:00000eec       ??_C@_0O@PKFINLK@?4project_name?$AA@ 00767eec     BomInTable.obj
 0003:00000efc       ??_C@_08IIDAHAPJ@?$HMmovable?$AA@ 00767efc     BomInTable.obj
 0003:00000f08       ??_C@_01GEODFPGF@?8?$AA@   00767f08     BomInTable.obj
 0003:00000f0c       ??_C@_01CLKCMJKC@?5?$AA@   00767f0c     BomInTable.obj
 0003:00000f10       ??_C@_0O@FGJKCKEB@?$HMpage_number?3?$AA@ 00767f10     BomInTable.obj
 0003:00000f20       ??_C@_02CBLDBPFN@?1?1?$AA@ 00767f20     BomInTable.obj
 0003:00000f24       ??_C@_03BJJDCJCC@www?$AA@  00767f24     BomInTable.obj
 0003:00000f28       ??_C@_0L@GNEPLPCN@?2Component?$AA@ 00767f28     BomInTable.obj
 0003:00000f38       ??_C@_01EOFPKCAF@?$EA?$AA@ 00767f38     BomInTable.obj
 0003:00000f3c       ??_C@_04IFPAFBLM@?4url?$AA@ 00767f3c     BomInTable.obj
 0003:00000f44       ??_C@_02KNHHEEKP@?5?5?$AA@ 00767f44     BomInTable.obj
 0003:00000f48       ??_C@_0CA@EJLGBBBI@?M?e?b?n?g?l?n?f?m?n?5?n?r?j?p?$PL?r?$PM?5?t?$OA?i?k?5bom?4cds?$AA@ 00767f48     BomInTable.obj
 0003:00000f70       ??_C@_0BM@IGEHMLNN@Unable?5to?5open?5file?5bom?4cds?$AA@ 00767f70     BomInTable.obj
 0003:00000f94       ??_C@_07DDDMHEIG@bmp_src?$AA@ 00767f94     BomInTable.obj
 0003:00000fa0       ??_C@_08MAIKLLAG@polyline?$AA@ 00767fa0     BomInTable.obj
 0003:00000fac       ??_C@_0N@KMNGGDIM@default_font?$AA@ 00767fac     BomInTable.obj
 0003:00000fbc       ??_C@_0L@DCKEFLEF@?4file_name?$AA@ 00767fbc     BomInTable.obj
 0003:00000fcc       ??_C@_07JINCIAMA@?4entire?$AA@ 00767fcc     BomInTable.obj
 0003:00000fd8       ??_C@_08JOPPHFEA@?4include?$AA@ 00767fd8     BomInTable.obj
 0003:00000fe4       ??_C@_08MNFOMJPL@?4exclude?$AA@ 00767fe4     BomInTable.obj
 0003:00000ff0       ??_C@_07OIHNFIIC@?4bottom?$AA@ 00767ff0     BomInTable.obj
 0003:00000ffc       ??_C@_04MPMFFLKH@?4top?$AA@ 00767ffc     BomInTable.obj
 0003:00001004       ??_C@_05CPACEEEE@?4row2?$AA@ 00768004     BomInTable.obj
 0003:0000100c       ??_C@_0M@PPJNHBMP@description?$AA@ 0076800c     BomInTable.obj
 0003:0000101c       ??_C@_0CD@CCFOOFNH@?2related_files?2reports?2bom?2bom?4c@ 0076801c     BomInTable.obj
 0003:00001048       ??_C@_01NBENCBCI@?$CK?$AA@ 00768048     BomInTable.obj
 0003:0000104c       ??_C@_04LCMACLFG@?4txt?$AA@ 0076804c     BomInTable.obj
 0003:00001054       ??_C@_08OEMLMMDD@?$FO?$HMLINK?3?5?$AA@ 00768054     BomInTable.obj
 0003:00001060       ??_C@_01IHBHIGKO@?0?$AA@   00768060     BomInTable.obj
 0003:00001068       ??_C@_0ED@NFEKICP@0123456789ABCDEFGHIJKLMNOPQRSTUV@ 00768068     BomInTable.obj
 0003:000010b8       ??_C@_0FB@LMHGDHBC@c?3?2program?5files?5?$CIx86?$CJ?2microsoft@ 007680b8     BomInTable.obj
 0003:00001120       ??_7?$CArray@PAVCText@@ABQAV1@@@6B@ 00768120     BomInTable.obj
 0003:0000113c       ??_7?$CArray@V?$CStringT@DV?$StrTraitMFC_DLL@DV?$ChTraitsCRT@D@ATL@@@@@ATL@@ABV12@@@6B@ 0076813c     BomInTable.obj
 0003:00001154       ??_C@_05PLCFPPOI@with?5?$AA@ 00768154     BomInTable.obj
 0003:0000115c       ??_C@_09HCLNAIDE@?5elements?$AA@ 0076815c     BomInTable.obj
 0003:00001168       ??_C@_0M@NKOIIJN@CDlgCompare?$AA@ 00768168     CCompare.obj
 0003:00001178       ?classCDlgCompare@CDlgCompare@@2UCRuntimeClass@@B 00768178     CCompare.obj
 0003:000013b8       ??_C@_0DJ@NLAKNPA@Text?5search?5among?5parts?5with?5foo@ 007683b8     FreePcbView.obj
 0003:000013f4       ??_C@_0CO@GPILPCGB@?5?5?5?5Text?5found?3?5?$CFs?5?$CI?5x?5?$DN?5?$CFd?5Nm?0?5@ 007683f4     FreePcbView.obj
 0003:00001424       ??_C@_0DB@EGDNJMAB@d?3?2freepcbdev?2schematic?5construc@ 00768424     CCompare.obj
 0003:00001460       ??_C@_09GMHCDLKN@?$CFs?5and?5?$CFs?$AA@ 00768460     CCompare.obj
 0003:0000146c       ??_C@_02DKCKIIND@?$CFs?$AA@ 0076846c     CCompare.obj
 0003:00001470       ??_C@_0N@FBAPDDGP@no?5footprint?$AA@ 00768470     CCompare.obj
 0003:00001480       ??_C@_08JEIPHCP@no?5value?$AA@ 00768480     CCompare.obj
 0003:0000148c       ??_C@_0CC@CHLCOJC@The?5pins?5may?5have?5been?5renumbere@ 0076848c     CCompare.obj
 0003:000014b4       ??_C@_04CDHLOGDC@?$CFs?4?$DP?$AA@ 007684b4     CCompare.obj
 0003:000014bc       ??_C@_03CMDNONLC@?42?5?$AA@ 007684bc     CCompare.obj
 0003:000014c0       ??_C@_03COHLFDOL@?41?5?$AA@ 007684c0     CCompare.obj
 0003:000014c4       ??_C@_01PKGAHCOL@?$CJ?$AA@ 007684c4     CCompare.obj
 0003:000014c8       ??_C@_01ODHLEDKK@?$CI?$AA@ 007684c8     CCompare.obj
 0003:000014cc       ??_C@_0CB@GEDEHMAO@?$CFs?5?$CI?$CFs?$CJ?5has?5been?5changed?5?$CI?$CFs?4?$CFs?$CJ@ 007684cc     CCompare.obj
 0003:000014f4       ??_C@_0L@IKBKOCD@?$CFs?0?5?$CFs?4?$CFs?$CJ?$AA@ 007684f4     CCompare.obj
 0003:00001504       ??_C@_05NNFHCGPF@?$CFs?4?$CFs?$AA@ 00768504     CCompare.obj
 0003:0000150c       ??_C@_02NPBNBJHG@?42?$AA@  0076850c     CCompare.obj
 0003:00001510       ??_C@_02PEDAEKLF@?41?$AA@  00768510     CCompare.obj
 0003:00001514       ??_C@_07ECHFDIML@pins2?3?5?$AA@ 00768514     CCompare.obj
 0003:00001520       ??_C@_01FDFGLJHB@2?$AA@    00768520     CCompare.obj
 0003:00001524       ??_C@_01HIHLOKLC@1?$AA@    00768524     CCompare.obj
 0003:00001528       ??_C@_03NOAPFHLD@?0?9?8?$AA@ 00768528     CCompare.obj
 0003:0000152c       ??_C@_07FAMAJHCF@pins1?3?5?$AA@ 0076852c     CCompare.obj
 0003:00001538       ??_C@_06CEENMHKF@no_net?$AA@ 00768538     CCompare.obj
 0003:00001540       ??_C@_0BA@CLPENFP@Text?5?$CFd?5from?5?$CFd?$AA@ 00768540     CCompare.obj
 0003:0000155c       ??_7CDlgCompare@@6B@       0076855c     CCompare.obj
 0003:000016ec       ??_C@_0CB@PLBCKOFK@Text?5search?5among?5parts?5?$CFs?4?4?4?3?$AN?6@ 007686ec     FreePcbView.obj
 0003:0000173c       ??_C@_0BE@FGIOBEED@Net?5list?5file?5names?$AA@ 0076873c     CCompare.obj
 0003:00001754       ??_C@_0BA@FBDDMBJM@Compare?5Netlist?$AA@ 00768754     CCompare.obj
 0003:00001768       ??_C@_0CH@MLFHABPG@?$NN?r?n?r?5?o?p?n?e?j?r?5?h?l?e?e?r?5?r?n?k?$PM?j?n?5?n?d?m?s?5?q?r@ 00768768     CCompare.obj
 0003:00001798       ??_C@_0BP@FPPBPPMI@This?5project?5has?5only?5one?5page?$AA@ 00768798     CCompare.obj
 0003:000017c0       ??_C@_0CC@EGLFGPEG@?$NN?r?h?5?q?r?p?$OA?m?h?v?$PL?5?o?n?k?m?n?q?r?$PM?$PO?5?h?d?e?m?r?h?w?m?$PL@ 007687c0     CCompare.obj
 0003:000017e8       ??_C@_0CG@FNKOINOK@These?5pages?5are?5completely?5ident@ 007687e8     CCompare.obj
 0003:00001818       ??_C@_07MBOMJGGF@Compare?$AA@ 00768818     CCompare.obj
 0003:00001824       ??_C@_07CLPILMON@Swap?4?4?4?$AA@ 00768824     CCompare.obj
 0003:00001830       ??_C@_0BC@FCJMGLBN@Try?5swapping?5pins?$AA@ 00768830     CCompare.obj
 0003:00001848       ??_C@_01HNPIGOCE@?$CG?$AA@ 00768848     CCompare.obj
 0003:0000184c       ??_C@_04JJJKKMIO@?4net?$AA@ 0076884c     CCompare.obj
 0003:00001854       ??_C@_0CJ@JCBKDOMK@?M?e?b?n?g?l?n?f?m?n?5?o?n?l?e?m?$PP?r?$PM?5?l?e?q?r?$OA?l?h?5?o?h?m?$PL@ 00768854     CCompare.obj
 0003:00001888       ??_C@_0DA@IGCGFML@?4?5?S?5?n?d?m?n?c?n?5?o?h?m?$OA?5?e?q?r?$PM?5?n?o?h?q?$OA?m?h?e?0?5?$OA@ 00768888     CCompare.obj
 0003:000018c4       ??_C@_0CM@KENAKEC@It?5is?5not?5possible?5to?5swap?5the?5p@ 007688c4     CCompare.obj
 0003:000018f8       ??_C@_0DJ@DKMMCJJ@?5part?4?5One?5pin?5has?5a?5description@ 007688f8     CCompare.obj
 0003:00001940       ??_C@_0FH@KJHEBNNE@?U?n?r?h?r?e?5?w?r?n?a?$PL?5?o?p?n?c?p?$OA?l?l?$OA?5?o?n?l?e?m?$PP?k?$OA?5@ 00768940     CCompare.obj
 0003:000019a8       ??_C@_0FA@LLFABLCG@Do?5you?5want?5the?5program?5to?5swap?5@ 007689a8     CCompare.obj
 0003:00001a08       ??_C@_0BM@BHOLDFIO@?$NN?r?$OA?5?o?e?w?$OA?r?m?$OA?$PP?5?o?k?$OA?r?$OA?5?g?$OA?y?h?y?e?m?$OA?$AA@ 00768a08     CCompare.obj
 0003:00001a2c       ??_C@_0BG@NFGOHMGD@This?5PCB?5is?5protected?$AA@ 00768a2c     CCompare.obj
 0003:00001a48       ??_C@_0DL@LPPJDLOL@?$NN?r?$OA?5?q?r?p?$OA?m?h?v?$OA?5?m?e?5?o?p?h?m?$OA?d?k?e?f?h?r?5?j?5?r?e@ 00768a48     CCompare.obj
 0003:00001a90       ??_C@_0DC@JPJKNLDF@This?5page?5does?5not?5belong?5to?5the@ 00768a90     CCompare.obj
 0003:00001acc       ??_C@_03NBFOK@net?$AA@     00768acc     CCompare.obj
 0003:00001ad0       ??_C@_0MH@LINKMHKH@?Q?m?$OA?w?$OA?k?$OA?5?q?c?e?m?e?p?h?p?s?i?r?e?5?q?o?h?q?n?j?5?q?n?e?d@ 00768ad0     CCompare.obj
 0003:00001bc0       ??_C@_0LD@GPLKEKNB@First?0?5generate?5a?5PADS?9PCB?5netli@ 00768bc0     CCompare.obj
 0003:00001c98       ??_C@_0BL@CMLIFCHA@?M?e?b?n?g?l?n?f?m?n?5?n?r?j?p?$PL?r?$PM?5?t?$OA?i?k?3?5?6?$AA@ 00768c98     CCompare.obj
 0003:00001cb8       ??_C@_0BH@OOCPJMDA@Unable?5to?5open?5file?3?5?6?$AA@ 00768cb8     CCompare.obj
 0003:00001cd4       ??_C@_0BC@LDDGJHOG@CComponentNoteExt?$AA@ 00768cd4     ComponentNoteExt.obj
 0003:00001cec       ?classCComponentNoteExt@CComponentNoteExt@@2UCRuntimeClass@@B 00768cec     ComponentNoteExt.obj
 0003:00001d5c       ??_7CComponentNoteExt@@6B@ 00768d5c     ComponentNoteExt.obj
 0003:00001f3c       ??_C@_04FAGKJGMG@?4pdf?$AA@ 00768f3c     ComponentNoteExt.obj
 0003:00001f44       ??_C@_05NBBLIKEF@?4docx?$AA@ 00768f44     ComponentNoteExt.obj
 0003:00001f4c       ??_C@_04FGAJMCLA@?2?$CK?4?$CK?$AA@ 00768f4c     ComponentNoteExt.obj
 0003:00001f54       ??_C@_0BO@DNMFEHFL@?M?e?b?n?g?l?n?f?m?n?5?q?n?g?d?$OA?r?$PM?5?o?$OA?o?j?s?5?$CC?$CFs?$CC?$AA@ 00768f54     ComponentNoteExt.obj
 0003:00001f78       ??_C@_0BN@PFFOHNOK@Unable?5to?5create?5folder?5?$CC?$CFs?$CC?$AA@ 00768f78     ComponentNoteExt.obj
 0003:00001f9c       ??_C@_0P@FOIEIDDC@?2related_files?$AA@ 00768f9c     ComponentNoteExt.obj
 0003:00001fb0       ??_C@_0BJ@GOHCIGHL@?2related_files?2Component?$AA@ 00768fb0     ComponentNoteExt.obj
 0003:00001fd0       ??_C@_1FK@HKKPLNLD@?$AAd?$AA?3?$AA?2?$AAf?$AAr?$AAe?$AAe?$AAp?$AAc?$AAb?$AAd?$AAe?$AAv?$AA?2?$AAs?$AAc?$AAh?$AAe?$AAm?$AAa?$AAt?$AAi?$AAc?$AA?5?$AAc?$AAo?$AAn?$AAs?$AAt?$AAr?$AAu?$AAc@ 00768fd0     Cuid.obj
 0003:00002040       __real@4000000000000000    00769040     DesignRules.obj
 0003:00002050       __real@413360f000000000    00769050     DesignRules.obj
 0003:0000205c       ??_C@_0DE@MLJJAAAH@d?3?2freepcbdev?2schematic?5construc@ 0076905c     DesignRules.obj
 0003:000020a0       __real@0000000000000000    007690a0     DisplayList.obj
 0003:000020b0       __real@4093d80000000000    007690b0     DisplayList.obj
 0003:000020bc       ??_C@_0DE@PGPMMNOM@d?3?2freepcbdev?2schematic?5construc@ 007690bc     DisplayList.obj
 0003:000020fc       ??_C@_0BJ@DDIKDBAH@restore?5original?5objects?$AA@ 007690fc     DisplayList.obj
 0003:00002120       __real@403e000000000000    00769120     DisplayList.obj
 0003:00002130       __real@4024000000000000    00769130     DisplayList.obj
 0003:00002140       __real@402e000000000000    00769140     DisplayList.obj
 0003:00002150       __real@406fe00000000000    00769150     DisplayList.obj
 0003:00002160       __real@4059000000000000    00769160     DisplayList.obj
 0003:00002170       ??_C@_1GI@BHABBEDB@?$AAd?$AA?3?$AA?2?$AAf?$AAr?$AAe?$AAe?$AAp?$AAc?$AAb?$AAd?$AAe?$AAv?$AA?2?$AAs?$AAc?$AAh?$AAe?$AAm?$AAa?$AAt?$AAi?$AAc?$AA?5?$AAc?$AAo?$AAn?$AAs?$AAt?$AAr?$AAu?$AAc@ 00769170     DisplayList.obj
 0003:000021f0       __real@4010000000000000    007691f0     DisplayList.obj
 0003:00002200       __real@4014000000000000    00769200     DisplayList.obj
 0003:00002210       __real@3fe0000000000000    00769210     DisplayList.obj
 0003:0000221c       ??_C@_1DM@MMGFGJEG@?$AAm?$AA_?$AAd?$AAr?$AAa?$AAg?$AA_?$AAs?$AAt?$AAy?$AAl?$AAe?$AA1?$AA?5?$AA?$DN?$AA?$DN?$AA?5?$AAD?$AAS?$AAS?$AA_?$AAS?$AAT?$AAR?$AAA?$AAI?$AAG?$AAH?$AAT?$AA?$AA@ 0076921c     DisplayList.obj
 0003:00002264       ??_C@_1DM@FJBFLNND@?$AAm?$AA_?$AAd?$AAr?$AAa?$AAg?$AA_?$AAs?$AAt?$AAy?$AAl?$AAe?$AA0?$AA?5?$AA?$DN?$AA?$DN?$AA?5?$AAD?$AAS?$AAS?$AA_?$AAS?$AAT?$AAR?$AAA?$AAI?$AAG?$AAH?$AAT?$AA?$AA@ 00769264     DisplayList.obj
 0003:000022ac       __real@c2b40000            007692ac     DisplayList.obj
 0003:000022b4       ??_7?$CArray@VCPoint@@ABV1@@@6B@ 007692b4     DisplayList.obj
 0003:000022d0       ??_7?$CArray@PAUCTemplate@@ABQAU1@@@6B@ 007692d0     DisplayList.obj
 0003:000022e8       ??_C@_0BC@KHHBAGNL@CDlgAddMaskCutout?$AA@ 007692e8     DlgAddMaskCutout.obj
 0003:00002300       ?classCDlgAddMaskCutout@CDlgAddMaskCutout@@2UCRuntimeClass@@B 00769300     DlgAddMaskCutout.obj
 0003:00002474       ??_7CDlgAddMaskCutout@@6B@ 00769474     DlgAddMaskCutout.obj
 0003:00002654       ??_C@_0CH@LDAMCFJH@?X?h?p?h?m?$OA?5?b?m?e?5?d?h?$OA?o?$OA?g?n?m?$OA?5?$CI?n?r?51?5?d?n?599@ 00769654     DlgAddMaskCutout.obj
 0003:00002684       ??_C@_0CD@GIIDCIJF@Width?5out?5of?5range?5?$CI1?5to?5999?5mil@ 00769684     DlgAddMaskCutout.obj
 0003:000026b0       ??_C@_02DNCLAJDG@MM?$AA@   007696b0     DlgAddMaskCutout.obj
 0003:000026b4       ??_C@_03JEECBGEF@MIL?$AA@  007696b4     DlgAddMaskCutout.obj
 0003:000026b8       ??_C@_03HPNPNFIM@70?$CF?$AA@ 007696b8     DlgAddMaskCutout.obj
 0003:000026bc       ??_C@_03MHGDLCOJ@60?$CF?$AA@ 007696bc     DlgAddMaskCutout.obj
 0003:000026c0       ??_C@_03NFNGBNAH@50?$CF?$AA@ 007696c0     DlgAddMaskCutout.obj
 0003:000026c4       ??_C@_03GNGKHKGC@40?$CF?$AA@ 007696c4     DlgAddMaskCutout.obj
 0003:000026c8       ??_C@_03PALNECNL@30?$CF?$AA@ 007696c8     DlgAddMaskCutout.obj
 0003:000026cc       ??_C@_03EOMKOHFF@25?$CF?$AA@ 007696cc     DlgAddMaskCutout.obj
 0003:000026d0       ??_C@_03EIABCFLO@20?$CF?$AA@ 007696d0     DlgAddMaskCutout.obj
 0003:000026d4       ??_C@_03FMHPEILL@15?$CF?$AA@ 007696d4     DlgAddMaskCutout.obj
 0003:000026d8       ??_C@_03FKLEIKFA@10?$CF?$AA@ 007696d8     DlgAddMaskCutout.obj
 0003:000026dc       ??_C@_02MKONNBHB@5?$CF?$AA@ 007696dc     DlgAddMaskCutout.obj
 0003:000026e0       __real@3ff0000000000000    007696e0     DlgAddMaskCutout.obj
 0003:000026f0       __real@412e848000000000    007696f0     DlgAddMaskCutout.obj
 0003:00002700       __real@40d8ce0000000000    00769700     DlgAddMaskCutout.obj
 0003:0000270c       ??_C@_0N@DONNMJEN@CDlgAddMerge?$AA@ 0076970c     DlgAddMerge.obj
 0003:0000271c       ?classCDlgAddMerge@CDlgAddMerge@@2UCRuntimeClass@@B 0076971c     DlgAddMerge.obj
 0003:0000276c       ??_7CDlgAddMerge@@6B@      0076976c     DlgAddMerge.obj
 0003:0000294c       ??_C@_07CLDOPFAM@?B?b?e?d?h?r?e?$AA@ 0076994c     DlgAddMerge.obj
 0003:00002958       ??_C@_0M@KELPMHPF@Enter?5value?$AA@ 00769958     DlgAddMerge.obj
 0003:00002968       ??_C@_0P@BJBONJHJ@?D?k?h?m?$OA?5?q?e?c?l?e?m?r?$OA?$AA@ 00769968     DlgAddMerge.obj
 0003:0000297c       ??_C@_0BD@NBOPNNOH@Set?5segment?5length?$AA@ 0076997c     DlgAddMerge.obj
 0003:00002994       ??_C@_05KGGJPFOH@?$MA?d?p?e?q?$AA@ 00769994     DlgAddMerge.obj
 0003:0000299c       ??_C@_0L@PFHJGMEC@Enter?5line?$AA@ 0076999c     DlgAddMerge.obj
 0003:000029ac       ??_C@_0P@NDEIIJOE@URL?5?j?n?l?o?n?m?e?m?r?$OA?$AA@ 007699ac     DlgAddMerge.obj
 0003:000029c0       ??_C@_0O@BLFKJNFE@Component?5URL?$AA@ 007699c0     DlgAddMerge.obj
 0003:000029d0       ??_C@_0BF@PFGODKFG@?Q?n?u?p?$OA?m?e?m?h?e?5?t?s?r?o?p?h?m?r?$OA?$AA@ 007699d0     DlgAddMerge.obj
 0003:000029ec       ??_C@_0P@DKNALMI@Save?5footprint?$AA@ 007699ec     DlgAddMerge.obj
 0003:00002a00       ??_C@_08COHGIM@?B?$PL?a?e?p?h?r?e?$AA@ 00769a00     DlgAddMerge.obj
 0003:00002a0c       ??_C@_06HJGPBJLE@Select?$AA@ 00769a0c     DlgAddMerge.obj
 0003:00002a14       ??_C@_0BG@KBFMFAHG@?S?d?$OA?k?e?m?h?e?5?h?g?5?h?g?a?p?$OA?m?m?$PL?u?$AA@ 00769a14     DlgAddMerge.obj
 0003:00002a30       ??_C@_0CB@DOMFGAEG@Remove?5one?5of?5your?5favorite?5nets@ 00769a30     DlgAddMerge.obj
 0003:00002a58       ??_C@_0M@JBMNDFH@index?5error?$AA@ 00769a58     DlgAddMerge.obj
 0003:00002a68       ??_C@_06FPMPLALL@no?5net?$AA@ 00769a68     DlgAddMerge.obj
 0003:00002a70       ??_C@_0BM@FAJJPNEM@?Q?n?g?d?$OA?m?h?e?5?q?o?h?q?j?$OA?5?n?a?n?g?m?$OA?w?e?m?h?i?$AA@ 00769a70     DlgAddMerge.obj
 0003:00002a94       ??_C@_0BA@NNHCDNCM@Add?5new?5RefList?$AA@ 00769a94     DlgAddMerge.obj
 0003:00002aa8       ??_C@_0BM@JONDAIDP@?S?d?$OA?k?e?m?h?e?5?q?o?h?q?j?$OA?5?n?a?n?g?m?$OA?w?e?m?h?i?$AA@ 00769aa8     DlgAddMerge.obj
 0003:00002acc       ??_C@_0P@GABFMIAF@Remove?5RefList?$AA@ 00769acc     DlgAddMerge.obj
 0003:00002ae0       ??_C@_0L@CFCJCDMF@RefList?9?$CFs?$AA@ 00769ae0     DlgAddMerge.obj
 0003:00002af0       ??_C@_09KBFDJCGB@RefList?91?$AA@ 00769af0     DlgAddMerge.obj
 0003:00002afc       ??_C@_0BO@CEKEHGOP@?B?$PL?a?e?p?h?r?e?5?q?r?p?$OA?m?h?v?s?5?d?k?$PP?5?b?q?r?$OA?b?j?h?$AA@ 00769afc     DlgAddMerge.obj
 0003:00002b20       ??_C@_0BP@IFNNMEIB@Select?5page?5you?5want?5to?5insert?$AA@ 00769b20     DlgAddMerge.obj
 0003:00002b48       ??_C@_09FGPFKPOD@?M?n?b?n?e?5?h?l?$PP?$AA@ 00769b48     DlgAddMerge.obj
 0003:00002b54       ??_C@_08EENDOIFD@New?5name?$AA@ 00769b54     DlgAddMerge.obj
 0003:00002b60       ??_C@_0BI@BOJEHNPP@?O?e?p?e?h?l?e?m?n?b?$OA?m?h?e?5?q?r?p?$OA?m?h?v?$PL?$AA@ 00769b60     DlgAddMerge.obj
 0003:00002b7c       ??_C@_0M@ELEJIHKN@Rename?5page?$AA@ 00769b7c     DlgAddMerge.obj
 0003:00002b8c       ??_C@_03FOJODCLM@?H?l?$PP?$AA@ 00769b8c     DlgAddMerge.obj
 0003:00002b90       ??_C@_0P@CFBMJKIL@?M?n?b?$OA?$PP?5?q?r?p?$OA?m?h?v?$OA?$AA@ 00769b90     DlgAddMerge.obj
 0003:00002ba4       ??_C@_04FABLJDN@Name?$AA@  00769ba4     DlgAddMerge.obj
 0003:00002bac       ??_C@_0N@BJAHGNNK@Add?5new?5page?$AA@ 00769bac     DlgAddMerge.obj
 0003:00002bbc       ??_C@_0BL@IKJICMFB@?$CK?$CK?$CK?5?b?$PL?a?e?p?h?r?e?5?o?n?k?h?k?h?m?h?$PO?5?$CK?$CK?$CK?$AA@ 00769bbc     DlgAddMerge.obj
 0003:00002bdc       ??_C@_0BI@NAGMGDGP@?$CK?$CK?$CK?5choose?5polyline?5?$CK?$CK?$CK?$AA@ 00769bdc     DlgAddMerge.obj
 0003:00002bf8       ??_C@_04FCOCJDHE@?$CF?44d?$AA@ 00769bf8     DlgAddMerge.obj
 0003:00002c00       ??_C@_0BG@EGDFKNMB@?B?$PL?a?n?p?5?t?n?p?l?$PL?5?o?n?k?h?k?h?m?h?h?$AA@ 00769c00     DlgAddMerge.obj
 0003:00002c1c       ??_C@_0BI@LKNHIHEN@?$CK?$CK?$CK?5?b?$PL?a?e?p?h?r?e?5?d?e?r?$OA?k?$PM?5?$CK?$CK?$CK?$AA@ 00769c1c     DlgAddMerge.obj
 0003:00002c38       ??_C@_0BH@EECKKHBF@?$CK?$CK?$CK?5choose?5ref?5des?5?$CK?$CK?$CK?$AA@ 00769c38     DlgAddMerge.obj
 0003:00002c54       ??_C@_06FFNIEGJA@?N?a?n?g?m?4?$AA@ 00769c54     DlgAddMerge.obj
 0003:00002c5c       ??_C@_0BM@POGIMGFO@?H?q?j?k?$PO?w?e?m?h?e?5?h?g?5?q?h?m?u?p?n?m?h?g?$OA?v?h?h?$AA@ 00769c5c     DlgAddMerge.obj
 0003:00002c80       ??_C@_04JOHCFHID@Part?$AA@ 00769c80     DlgAddMerge.obj
 0003:00002c88       ??_C@_0BM@HAGAKFPN@Do?5not?5sync?5part?5attributes?$AA@ 00769c88     DlgAddMerge.obj
 0003:00002cac       ??_C@_08GBBOCLMP@?J?$OA?j?5?s?4?4?4?$AA@ 00769cac     DlgAddMerge.obj
 0003:00002cb8       ??_C@_0BF@CCFIDIIE@?B?$PL?a?n?p?5?n?a?p?$OA?g?v?$OA?5?d?e?r?$OA?k?h?$AA@ 00769cb8     DlgAddMerge.obj
 0003:00002cd4       ??_C@_07GEDIFDEH@Same?5as?$AA@ 00769cd4     DlgAddMerge.obj
 0003:00002ce0       ??_C@_0BD@KGMGECEC@Select?5new?5pattern?$AA@ 00769ce0     DlgAddMerge.obj
 0003:00002cf8       ??_C@_04OHJIHAFH@None?$AA@ 00769cf8     DlgAddMerge.obj
 0003:00002d00       ??_C@_08PJDIHONO@Merge?9?$CFs?$AA@ 00769d00     DlgAddMerge.obj
 0003:00002d0c       ??_C@_07GGADEGEP@Merge?91?$AA@ 00769d0c     DlgAddMerge.obj
 0003:00002d18       ??_C@_0DE@IOCOCNN@?M?e?d?n?o?s?q?r?h?l?$OA?$PP?5?q?r?p?n?j?$OA?4?5?H?l?$PP?5?m?e?5?l?n?f?e@ 00769d18     DlgAddMerge.obj
 0003:00002d58       ??_C@_0DM@GJFIAJGP@Illegal?5string?4?5The?5name?5can?5not@ 00769d58     DlgAddMerge.obj
 0003:00002da0       ??_C@_0EK@PMNAPPLG@?M?e?d?n?o?s?q?r?h?l?$OA?$PP?5?q?r?p?n?j?$OA?4?5?H?l?$PP?5?m?e?5?l?n?f?e@ 00769da0     DlgAddMerge.obj
 0003:00002df8       ??_C@_0FD@DMKCJHIB@Illegal?5string?4?5The?5name?5can?5not@ 00769df8     DlgAddMerge.obj
 0003:00002e5c       ??_C@_09MEHKOFDP@?2?1?3?$CK?$DP?$CC?$DM?$DO?$HM?$AA@ 00769e5c     DlgAddMerge.obj
 0003:00002e68       ??_C@_0BN@IJOGNBBI@?M?e?d?n?o?s?q?r?h?l?$PL?i?5?h?m?d?e?j?q?5?n?a?z?e?j?r?$OA?$CB?$AA@ 00769e68     DlgAddMerge.obj
 0003:00002e8c       ??_C@_0BG@IJOLJGKK@Illegal?5object?5index?$CB?$AA@ 00769e8c     DlgAddMerge.obj
 0003:00002ea8       ??_C@_0BF@IPKPEJF@?M?e?d?n?o?s?q?r?h?l?$OA?$PP?5?q?r?p?n?j?$OA?$CB?$AA@ 00769ea8     DlgAddMerge.obj
 0003:00002ec4       ??_C@_0BA@CEAKOOCJ@Illegal?5string?$CB?$AA@ 00769ec4     DlgAddMerge.obj
 0003:00002ed8       ??_C@_0DD@OMKIKING@?R?$OA?j?$OA?$PP?5?q?r?p?$OA?m?h?v?$OA?5?s?f?e?5?q?s?y?e?q?r?b?s?e?r?0?5?b@ 00769ed8     DlgAddMerge.obj
 0003:00002f18       ??_C@_0DG@FKFMPIKJ@This?5page?5is?5already?5present?0?5en@ 00769f18     DlgAddMerge.obj
 0003:00002f58       ??_C@_0DM@BJJMNEDH@?M?e?d?n?o?s?q?r?h?l?$OA?$PP?5?q?r?p?n?j?$OA?4?5?H?l?$PP?5?m?e?5?l?n?f?e@ 00769f58     DlgAddMerge.obj
 0003:00002fa0       ??_C@_0DO@PJLKOKOK@Illegal?5string?4?5The?5name?5can?5not@ 00769fa0     DlgAddMerge.obj
 0003:00002fec       ??_C@_0P@MMDAMPPB@?O?s?q?r?$OA?$PP?5?q?r?p?n?j?$OA?$DP?$AA@ 00769fec     DlgAddMerge.obj
 0003:00003000       ??_C@_0O@GGBCIFOE@Empty?5string?$DP?$AA@ 0076a000     DlgAddMerge.obj
 0003:00003010       ??_C@_0M@LLFCABMC@CDlgAddPoly?$AA@ 0076a010     DlgAddPoly.obj
 0003:00003020       ?classCDlgAddPoly@CDlgAddPoly@@2UCRuntimeClass@@B 0076a020     DlgAddPoly.obj
 0003:0000308c       ??_7CDlgAddPoly@@6B@       0076a08c     DlgAddPoly.obj
 0003:0000326c       ??_C@_0M@IPOODCIH@CDlgAddText?$AA@ 0076a26c     DlgAddText.obj
 0003:0000327c       ?classCDlgAddText@CDlgAddText@@2UCRuntimeClass@@B 0076a27c     DlgAddText.obj
 0003:0000340c       ??_7CDlgAddText@@6B@       0076a40c     DlgAddText.obj
 0003:000035ec       ??_C@_0DF@OAPKFPKN@?N?o?v?h?h?5?r?e?j?q?r?$OA?5?q?n?5?q?j?p?$PL?r?$PL?l?h?5?o?n?k?$PP?l?h?5@ 0076a5ec     DlgAddText.obj
 0003:0000362c       ??_C@_06EHLADMMM@key?3?5?$CC?$AA@ 0076a62c     DlgAddText.obj
 0003:00003634       ??_C@_03ELHPEHJG@?$CC?5?$CC?$AA@ 0076a634     DlgAddText.obj
 0003:00003638       ??_C@_01KMDKNFGN@?1?$AA@   0076a638     DlgAddText.obj
 0003:0000363c       ??_C@_03NIBMKKKC@?5?1?5?$AA@ 0076a63c     DlgAddText.obj
 0003:00003640       ??_C@_0CG@EIFLOKNM@?R?e?j?q?r?n?b?$OA?$PP?5?q?r?p?n?j?$OA?5?m?e?5?l?n?f?e?r?5?q?n?d?e?p?f@ 0076a640     DlgAddText.obj
 0003:00003670       ??_C@_0BM@EDNKKDNO@Text?5string?5can?8t?5contain?5?$CC?$AA@ 0076a670     DlgAddText.obj
 0003:00003694       ??_C@_0BL@OKDFHADH@?M?e?d?n?o?s?q?r?h?l?n?e?5?h?l?$PP?5?o?h?m?$OA?5?$CC?$CFs?$CC?$AA@ 0076a694     DlgAddText.obj
 0003:000036b4       ??_C@_0BG@MCABDMGN@Illegal?5pin?5name?5?$CC?$CFs?$CC?$AA@ 0076a6b4     DlgAddText.obj
 0003:000036d0       ??_C@_0BG@INNGIGPD@?$FL?5?$CD?$CG?$EA$?$CF?2?1?$DL?3?$CB?$DP?$HL?$HN?$DM?$DO?$GA?$CC?4?$FN?$AA@ 0076a6d0     DlgAddText.obj
 0003:000036ec       ??_C@_0BO@LLFMGLED@?M?e?d?n?o?s?q?r?h?l?n?e?5?h?l?$PP?5?$PN?k?4?v?e?o?h?5?$CC?$CFs?$CC?$AA@ 0076a6ec     DlgAddText.obj
 0003:00003710       ??_C@_0BG@BDLNOJOH@Illegal?5net?5name?5?$CC?$CFs?$CC?$AA@ 0076a710     DlgAddText.obj
 0003:0000372c       ??_C@_09JLLHFKLH@?$FL?5?$CD?$CG?$EA?$GA?8?$CC?$FN?$AA@ 0076a72c     DlgAddText.obj
 0003:00003738       ??_C@_0CB@CICPLFOC@?M?e?d?n?o?s?q?r?h?l?$PL?i?5?r?e?j?q?r?5?n?o?h?q?$OA?m?h?$PP?5?$CC?$CFs?$CC@ 0076a738     DlgAddText.obj
 0003:00003760       ??_C@_0BO@GKEFPIAK@Illegal?5description?5text?5?$CC?$CFs?$CC?$AA@ 0076a760     DlgAddText.obj
 0003:00003784       ??_C@_0CA@NBHKEAKL@?M?e?d?n?o?s?q?r?h?l?n?e?5?h?l?$PP?5?t?s?r?o?p?h?m?r?$OA?5?$CC?$CFs?$CC?$AA@ 0076a784     DlgAddText.obj
 0003:000037ac       ??_C@_0BM@MIINHKNB@Illegal?5footprint?5name?5?$CC?$CFs?$CC?$AA@ 0076a7ac     DlgAddText.obj
 0003:000037d0       ??_C@_02IHJAAFLM@?$HM?8?$AA@ 0076a7d0     DlgAddText.obj
 0003:000037d4       ??_C@_0BJ@MOGPCLHL@?M?e?d?n?o?s?q?r?h?l?$OA?$PP?5?q?r?p?n?j?$OA?5?$CC?$CFs?$CC?$AA@ 0076a7d4     DlgAddText.obj
 0003:000037f4       ??_C@_0BE@KOBOHBKB@Illegal?5string?5?$CC?$CFs?$CC?$AA@ 0076a7f4     DlgAddText.obj
 0003:0000380c       ??_C@_02MLAOPLGG@?$CC?$EA?$AA@ 0076a80c     DlgAddText.obj
 0003:00003810       ??_C@_0LB@MJEGEKJB@?D?e?r?$OA?k?$PM?5?s?f?e?5?q?s?y?e?q?r?b?s?e?r?5?m?$OA?5?$PN?r?n?i?5?q?r@ 0076a810     DlgAddText.obj
 0003:000038e8       ??_C@_0JH@KBCLHLGK@Part?5already?5exists?5on?5this?5page@ 0076a8e8     DlgAddText.obj
 0003:000039a0       ??_C@_0LC@HKEHBDKL@?D?e?r?$OA?k?$PM?5?o?p?h?q?s?r?q?r?b?s?e?r?5?m?$OA?5?q?r?p?$OA?m?h?v?e?5@ 0076a9a0     DlgAddText.obj
 0003:00003a78       ??_C@_0JD@GEMPKOLF@Part?5present?5on?5page?5?$CFd?5?9?5?$CFs?4?6?6?$CI@ 0076aa78     DlgAddText.obj
 0003:00003b28       ??_C@_01JOAMLHOP@?9?$AA@   0076ab28     DlgAddText.obj
 0003:00003b2c       ??_C@_0CF@DMKCOGDN@?M?e?d?n?o?s?q?r?h?l?n?e?5?n?a?n?g?m?$OA?w?e?m?h?e?5?d?e?r?$OA?k?h?5@ 0076ab2c     DlgAddText.obj
 0003:00003b58       ??_C@_0CC@DFCOOCID@Illegal?5reference?5designator?5?$CC?$CFs@ 0076ab58     DlgAddText.obj
 0003:00003b80       ??_C@_0BH@OKBFFDOC@?$FL?5?$CD?$CG?$EA$?$CF?$CL?2?1?$DL?3?$CB?$HL?$HN?$DM?$DO?$GA?8?$CC?0?$FN?$AA@ 0076ab80     DlgAddText.obj
 0003:00003b9c       ??_C@_02LODGEAHC@?8?$HM?$AA@ 0076ab9c     DlgAddText.obj
 0003:00003ba0       ??_C@_0O@IFGIONJB@SMALL_SIMPLEX?$AA@ 0076aba0     DlgAddText.obj
 0003:00003bb0       ??_C@_0N@MMACBMLD@SMALL_DUPLEX?$AA@ 0076abb0     DlgAddText.obj
 0003:00003bc0       ??_C@_07MOMDENJC@SIMPLEX?$AA@ 0076abc0     DlgAddText.obj
 0003:00003bcc       ??_C@_06GDHGFIJG@DUPLEX?$AA@ 0076abcc     DlgAddText.obj
 0003:00003bd4       ??_C@_07DKEOMOKJ@TRIPLEX?$AA@ 0076abd4     DlgAddText.obj
 0003:00003be0       ??_C@_06LJDKECFC@MODERN?$AA@ 0076abe0     DlgAddText.obj
 0003:00003be8       ??_C@_0P@HPLILHJH@SCRIPT_SIMPLEX?$AA@ 0076abe8     DlgAddText.obj
 0003:00003bfc       ??_C@_0O@BDGFHJKN@SCRIPT_DUPLEX?$AA@ 0076abfc     DlgAddText.obj
 0003:00003c0c       ??_C@_0P@CLHBGHCO@ITALLIC_DUPLEX?$AA@ 0076ac0c     DlgAddText.obj
 0003:00003c20       ??_C@_0BA@PPLMPCCI@ITALLIC_TRIPLEX?$AA@ 0076ac20     DlgAddText.obj
 0003:00003c34       ??_C@_05JAMBDMFO@FANCY?$AA@ 0076ac34     DlgAddText.obj
 0003:00003c3c       ??_C@_06CKBNGAJP@GOTHIC?$AA@ 0076ac3c     DlgAddText.obj
 0003:00003c44       ??_C@_04GEFJINEE@?$CF?42f?$AA@ 0076ac44     DlgAddText.obj
 0003:00003c4c       ??_C@_04FHKNIFPB@?$CF?43d?$AA@ 0076ac4c     DlgAddText.obj
 0003:00003c58       __real@3ee4f8b588e368f1    0076ac58     DlgAddText.obj
 0003:00003c64       ??_C@_08JGILNPHN@Disabled?$AA@ 0076ac64     DlgAddText.obj
 0003:00003c70       ??_C@_07FFDIEMLL@Several?$AA@ 0076ac70     DlgAddText.obj
 0003:00003c7c       ??_C@_0N@IHNMGOJG@CDlgAddWidth?$AA@ 0076ac7c     DlgAddWidth.obj
 0003:00003c8c       ?classCDlgAddWidth@CDlgAddWidth@@2UCRuntimeClass@@B 0076ac8c     DlgAddWidth.obj
 0003:00003cdc       ??_7CDlgAddWidth@@6B@      0076acdc     DlgAddWidth.obj
 0003:00003ebc       ??_C@_0N@HAHPIHPO@CDlgAttrSync?$AA@ 0076aebc     DlgAttrSync.obj
 0003:00003ecc       ?classCDlgAttrSync@CDlgAttrSync@@2UCRuntimeClass@@B 0076aecc     DlgAttrSync.obj
 0003:0000415c       ??_7CDlgAttrSync@@6B@      0076b15c     DlgAttrSync.obj
 0003:00004340       ??_C@_0BDB@MEBNHMJE@?B?j?k?$PO?w?$OA?$PP?5?$PN?r?s?5?n?o?v?h?$PO?0?5?b?$PL?5?s?q?r?$OA?m?$OA?b?k?h?b@ 0076b340     DlgAttrSync.obj
 0003:000044b0       ??_C@_0BDM@FEPAEPC@By?5enabling?5this?5option?0?5you?5set@ 0076b4b0     DlgAttrSync.obj
 0003:00004630       ??_C@_0BHP@OOCGPEOD@?E?q?k?h?5?m?$OA?5?j?$OA?j?n?i?9?k?h?a?n?5?q?r?p?$OA?m?h?v?e?5?s?5?b?$OA@ 0076b630     DlgAttrSync.obj
 0003:00004800       ??_C@_0BIN@IDNPIMFP@If?5on?5any?5page?5you?5have?5a?5modifi@ 0076b800     DlgAttrSync.obj
 0003:000049e0       ??_C@_0JM@KOIMJLIJ@?E?q?k?h?5?q?r?p?$OA?m?h?v?$OA?5?b?j?k?$PO?w?e?m?$OA?5?b?5?q?o?h?q?n?j?5@ 0076b9e0     DlgAttrSync.obj
 0003:00004aa0       ??_C@_0JL@GCMHIIKH@If?5the?5page?5is?5included?5in?5the?5n@ 0076baa0     DlgAttrSync.obj
 0003:00004b5c       ??_C@_07LFEDEKKL@CDlgCAD?$AA@ 0076bb5c     DlgCAD.obj
 0003:00004b68       ?classCDlgCAD@CDlgCAD@@2UCRuntimeClass@@B 0076bb68     DlgCAD.obj
 0003:00004cdc       ??_7CDlgCAD@@6B@           0076bcdc     DlgCAD.obj
 0003:00004ebc       ??_C@_0DL@PKBLBIPK@?$CK?$CK?$CK?$CK?$CK?$CK?$CK?$CK?$CK?$CK?$CK?$CK?$CK?$CK?$CK?$CK?$CK?$CK?$CK?$CK?$CK?$CK?$CK?$CK?$CK?5DONE?5?$CK@ 0076bebc     DlgCAD.obj
 0003:00004f04       ??_C@_05FJMIFMML@Run?3?5?$AA@ 0076bf04     DlgCAD.obj
 0003:00004f0c       ??_C@_02PCIJFNDE@?$AN?6?$AA@ 0076bf0c     DlgCAD.obj
 0003:00004f10       ??_C@_0DL@OJNIJGPO@?$CK?$CK?$CK?$CK?$CK?$CK?$CK?$CK?$CK?$CK?$CK?$CK?$CK?$CK?$CK?$CK?$CK?$CK?5RENDERING?5?4PN@ 0076bf10     DlgCAD.obj
 0003:00004f58       ??_C@_0DP@LPJKCIHB@?2GerberRender?4exe?5?9r?5400?5?9a?50?404@ 0076bf58     DlgCAD.obj
 0003:00004fa4       ??_C@_0DL@LNBDDELK@?$CK?$CK?$CK?$CK?$CK?$CK?$CK?$CK?$CK?$CK?$CK?$CK?5ALL?5GERBERS?5CREATED@ 0076bfa4     DlgCAD.obj
 0003:00004fec       ??_C@_0DL@FJPIMHHJ@?$CK?$CK?$CK?$CK?$CK?$CK?5ERRORS?5OCCURRED?5DURING?5CR@ 0076bfec     DlgCAD.obj
 0003:00005034       ??_C@_05MJMNOEPO@M02?$CK?6?$AA@ 0076c034     DlgCAD.obj
 0003:0000503c       ??_C@_08MCNGNGCP@G04?5?$CFs?$CK?6?$AA@ 0076c03c     DlgCAD.obj
 0003:00005048       ??_C@_0CL@OINNBGBK@G04?5WebSite?3?5https?3?1?1github?4com?1@ 0076c048     DlgCAD.obj
 0003:0000507c       ??_C@_0BH@MPJPGCCD@G04?5Version?3?5?$CFs?5v1?41?$CK?6?$AA@ 0076c07c     DlgCAD.obj
 0003:00005098       ??_C@_08OPKFNMKM@?Q?u?e?l?$MA?r?n?p?$AA@ 0076c098     DlgCAD.obj
 0003:000050a4       ??_C@_0BI@EMJGLF@G04?5?$CFsMFC?5Application?$CK?6?$AA@ 0076c0a4     DlgCAD.obj
 0003:000050c0       ??_C@_0M@FOHACHLA@?Q?u?e?l?$MA?r?n?p?5?9?5?$AA@ 0076c0c0     DlgCAD.obj
 0003:000050d0       ??_C@_0BF@HIGIJKHM@Writing?5file?3?5?$CC?$CFs?$CC?$AN?6?$AA@ 0076c0d0     DlgCAD.obj
 0003:000050ec       ??_C@_0CC@JLJFFLOC@ERROR?3?5Unable?5to?5open?5file?5?$CC?$CFs?$CC?$AN@ 0076c0ec     DlgCAD.obj
 0003:00005114       ??_C@_0P@JIGOABEA@RENDER_ALL?4gbr?$AA@ 0076c114     DlgCAD.obj
 0003:00005128       ??_C@_0BC@HBLEEDLD@BACK_LAYER_12?4gbr?$AA@ 0076c128     DlgCAD.obj
 0003:00005140       ??_C@_0BC@PHCADBBN@BACK_LAYER_11?4gbr?$AA@ 0076c140     DlgCAD.obj
 0003:00005158       ??_C@_0BC@DMHMOCLI@BACK_LAYER_10?4gbr?$AA@ 0076c158     DlgCAD.obj
 0003:00005170       ??_C@_0BB@FIJLBFLH@BACK_LAYER_9?4gbr?$AA@ 0076c170     DlgCAD.obj
 0003:00005184       ??_C@_0BB@JDMHMGBC@BACK_LAYER_8?4gbr?$AA@ 0076c184     DlgCAD.obj
 0003:00005198       ??_C@_0BB@GCJBHEMH@BACK_LAYER_7?4gbr?$AA@ 0076c198     DlgCAD.obj
 0003:000051ac       ??_C@_0BB@KJMNKHGC@BACK_LAYER_6?4gbr?$AA@ 0076c1ac     DlgCAD.obj
 0003:000051c0       ??_C@_0BB@CPFJNFMM@BACK_LAYER_5?4gbr?$AA@ 0076c1c0     DlgCAD.obj
 0003:000051d4       ??_C@_0BB@OEAFAGGJ@BACK_LAYER_4?4gbr?$AA@ 0076c1d4     DlgCAD.obj
 0003:000051e8       ??_C@_0BB@PJAADGNB@BACK_LAYER_3?4gbr?$AA@ 0076c1e8     DlgCAD.obj
 0003:000051fc       ??_C@_0BB@DCFMOFHE@BACK_LAYER_2?4gbr?$AA@ 0076c1fc     DlgCAD.obj
 0003:00005210       ??_C@_0BB@LEMIJHNK@BACK_LAYER_1?4gbr?$AA@ 0076c210     DlgCAD.obj
 0003:00005224       ??_C@_0BC@NDKCICCB@FRONT_LAYER_2?4gbr?$AA@ 0076c224     DlgCAD.obj
 0003:0000523c       ??_C@_0BC@FFDGPAIP@FRONT_LAYER_1?4gbr?$AA@ 0076c23c     DlgCAD.obj
 0003:00005254       ??_C@_0BA@JPCMEAGG@DESCRIPTION?4gbr?$AA@ 0076c254     DlgCAD.obj
 0003:00005268       ??_C@_09LPIGKGEK@VALUE?4gbr?$AA@ 0076c268     DlgCAD.obj
 0003:00005274       ??_C@_0O@FJEBNAJI@FOOTPRINT?4gbr?$AA@ 0076c274     DlgCAD.obj
 0003:00005284       ??_C@_0N@JICMFIIA@NET_NAME?4gbr?$AA@ 0076c284     DlgCAD.obj
 0003:00005294       ??_C@_0P@LIALKDDF@CONNECTION?4gbr?$AA@ 0076c294     DlgCAD.obj
 0003:000052a8       ??_C@_0N@JPJOCDCE@PIN_NAME?4gbr?$AA@ 0076c2a8     DlgCAD.obj
 0003:000052b8       ??_C@_0N@FDGFAKIK@PIN_LINE?4gbr?$AA@ 0076c2b8     DlgCAD.obj
 0003:000052c8       ??_C@_0M@HCJOAHJL@REF_DES?4gbr?$AA@ 0076c2c8     DlgCAD.obj
 0003:000052d8       ??_C@_0BB@PKDNPPNP@PART_OUTLINE?4gbr?$AA@ 0076c2d8     DlgCAD.obj
 0003:000052ec       ??_C@_0O@HCKGPGAG@FREE_LINE?4gbr?$AA@ 0076c2ec     DlgCAD.obj
 0003:000052fc       ??_C@_04GNFFGBEG@?4drl?$AA@ 0076c2fc     DlgCAD.obj
 0003:00005304       ??_C@_04EEOGCCFB@?4png?$AA@ 0076c304     DlgCAD.obj
 0003:0000530c       ??_C@_04LHIHFCAH@?4gbr?$AA@ 0076c30c     DlgCAD.obj
 0003:00005314       ??_C@_02KHDDNBB@?2?$CK?$AA@ 0076c314     DlgCAD.obj
 0003:00005318       ??_C@_0EP@IDKLJCHO@?M?e?b?n?g?l?n?f?m?n?5?q?n?g?d?$OA?r?$PM?5?o?$OA?o?j?s?5?$CC?$CFs?$CC?4?5?O@ 0076c318     DlgCAD.obj
 0003:00005378       ??_C@_0EH@HAEFBFGK@Unable?5to?5create?5folder?5?$CC?$CFs?$CC?4?5Tr@ 0076c378     DlgCAD.obj
 0003:000053d0       ??_C@_0BO@KBCBLAGP@?$CFs?2related_files?2print_layers?$AA@ 0076c3d0     DlgCAD.obj
 0003:000053f4       ??_C@_0BA@MEGKEBLG@?$CFs?2?$CFs?$CI?$CFd?9?$CFd?9?$CFd?$CJ?$AA@ 0076c3f4     DlgCAD.obj
 0003:00005408       ??_C@_0N@LHLKAIHL@?$CFs?2View2?$CI?$CFs?$CJ?$AA@ 0076c408     DlgCAD.obj
 0003:00005418       ??_C@_0N@DBCOHKNF@?$CFs?2View1?$CI?$CFs?$CJ?$AA@ 0076c418     DlgCAD.obj
 0003:00005428       ??_C@_0N@OINJIBLD@?$CFs?2Print?$CI?$CFs?$CJ?$AA@ 0076c428     DlgCAD.obj
 0003:00005438       ??_C@_0L@GIKPDBCF@?$CFs?2CAM?$CI?$CFs?$CJ?$AA@ 0076c438     DlgCAD.obj
 0003:00005448       ??_C@_0BD@HNCCPGEB@?O?$OA?o?j?$OA?5?d?k?$PP?5?c?e?p?a?e?p?n?b?$AA@ 0076c448     DlgCAD.obj
 0003:00005460       ??_C@_0O@GBCKEAFH@Select?5Folder?$AA@ 0076c460     DlgCAD.obj
 0003:00005470       ??_C@_0P@EKIOPILD@?B?$PL?a?e?p?h?r?e?5?o?$OA?o?j?s?$AA@ 0076c470     DlgCAD.obj
 0003:00005484       ??_C@_0BG@CLFOKELM@Set?5CAM?5output?5folder?$AA@ 0076c484     DlgCAD.obj
 0003:000054a0       ??_C@_0BA@BMPJKOBI@CDlgChangeLayer?$AA@ 0076c4a0     DlgChangeLayer.obj
 0003:000054b4       ?classCDlgChangeLayer@CDlgChangeLayer@@2UCRuntimeClass@@B 0076c4b4     DlgChangeLayer.obj
 0003:00005504       ??_7CDlgChangeLayer@@6B@   0076c504     DlgChangeLayer.obj
 0003:000056e4       ??_C@_0BA@OIGEMOIE@DlgCreateBranch?$AA@ 0076c6e4     DlgCreateBranch.obj
 0003:000056f8       ?classDlgCreateBranch@DlgCreateBranch@@2UCRuntimeClass@@B 0076c6f8     DlgCreateBranch.obj
 0003:000057c4       ??_7DlgCreateBranch@@6B@   0076c7c4     DlgCreateBranch.obj
 0003:000059a8       ??_C@_1HA@JABMBBPL@?$AAd?$AA?3?$AA?2?$AAf?$AAr?$AAe?$AAe?$AAp?$AAc?$AAb?$AAd?$AAe?$AAv?$AA?2?$AAs?$AAc?$AAh?$AAe?$AAm?$AAa?$AAt?$AAi?$AAc?$AA?5?$AAc?$AAo?$AAn?$AAs?$AAt?$AAr?$AAu?$AAc@ 0076c9a8     DlgCreateBranch.obj
 0003:00005a30       ??_C@_0O@JDIALEME@related_files?$AA@ 0076ca30     DlgCreateBranch.obj
 0003:00005a40       ??_C@_09PMNEFJFD@pcb_name?3?$AA@ 0076ca40     DlgCreateBranch.obj
 0003:00005a4c       ??_C@_05FHIGHPDA@text?3?$AA@ 0076ca4c     DlgCreateBranch.obj
 0003:00005a54       ??_C@_0N@COINJMCJ@description?3?$AA@ 0076ca54     DlgCreateBranch.obj
 0003:00005a64       ??_C@_05OBAAEICC@?3?5?$CC?$CC?6?$AA@ 0076ca64     DlgCreateBranch.obj
 0003:00005a6c       ??_C@_01JLIPDDHJ@?3?$AA@   0076ca6c     DlgCreateBranch.obj
 0003:00005a70       ??_C@_0M@BEGEHGOC@CAM_folder?3?$AA@ 0076ca70     DlgCreateBranch.obj
 0003:00005a80       ??_C@_0BD@IMBKKFOF@netlist_file_path?3?$AA@ 0076ca80     DlgCreateBranch.obj
 0003:00005a98       ??_C@_04MMEBIPMJ@?4tmp?$AA@ 0076ca98     DlgCreateBranch.obj
 0003:00005aa0       ??_C@_04PCGCJKMF@bom?4?$AA@ 0076caa0     DlgCreateBranch.obj
 0003:00005aa8       ??_C@_04PAIKAKAC@tag?4?$AA@ 0076caa8     DlgCreateBranch.obj
 0003:00005ab0       ??_C@_0DN@JFDJFBOD@?M?n?l?e?p?5?b?5?h?l?e?m?h?5?t?$OA?i?k?$OA?5?$CFs?5?p?$OA?b?e?m?5?$CFd?4@ 0076cab0     DlgCreateBranch.obj
 0003:00005b00       ??_C@_0EC@MBEICFPA@The?5number?5in?5the?5file?5name?5?$CFs?5i@ 0076cb00     DlgCreateBranch.obj
 0003:00005b50       ??_C@_08ODHECMEB@?4PCBVIEW?$AA@ 0076cb50     DlgCreateBranch.obj
 0003:00005b5c       ??_C@_05KMPOPHFM@?4scad?$AA@ 0076cb5c     DlgCreateBranch.obj
 0003:00005b64       ??_C@_08CGJPEJK@openscad?$AA@ 0076cb64     DlgCreateBranch.obj
 0003:00005b70       ??_C@_04CADJKFBK@CAM?$CI?$AA@ 0076cb70     DlgCreateBranch.obj
 0003:00005b78       ??_C@_04CGBBCILG@?4lib?$AA@ 0076cb78     DlgCreateBranch.obj
 0003:00005b80       ??_C@_05DMLEFIND@?4rnmb?$AA@ 0076cb80     DlgCreateBranch.obj
 0003:00005b88       ??_C@_02GFKGEECC@?4b?$AA@  0076cb88     DlgCreateBranch.obj
 0003:00005b8c       ??_C@_06FKEMOMJM@?2?$CK?4fpc?$AA@ 0076cb8c     DlgCreateBranch.obj
 0003:00005b94       ??_C@_0CA@PJGJHDCM@?N?x?h?a?j?$OA?$CB?5?O?$OA?o?j?$OA?5?$CFs?5?s?f?e?5?q?s?y?e?q?r?b?s?e?r?$AA@ 0076cb94     DlgCreateBranch.obj
 0003:00005bbc       ??_C@_0CA@HCJJPKLO@Error?$CB?5?$CFs?5folder?5already?5exists?$AA@ 0076cbbc     DlgCreateBranch.obj
 0003:00005be4       ??_C@_01GBGANLPD@0?$AA@    0076cbe4     DlgCreateBranch.obj
 0003:00005be8       ??_C@_06CGOJDMOF@DlgDRC?$AA@ 0076cbe8     DlgDRC.obj
 0003:00005bf0       ?classDlgDRC@DlgDRC@@2UCRuntimeClass@@B 0076cbf0     DlgDRC.obj
 0003:00005cbc       ??_7DlgDRC@@6B@            0076ccbc     DlgDRC.obj
 0003:00005e9c       ??_C@_0BD@MBGLLCNE@DlgEditBoardCorner?$AA@ 0076ce9c     DlgEditBoardCorner.obj
 0003:00005eb4       ?classDlgEditBoardCorner@DlgEditBoardCorner@@2UCRuntimeClass@@B 0076ceb4     DlgEditBoardCorner.obj
 0003:00005f3c       ??_7DlgEditBoardCorner@@6B@ 0076cf3c     DlgEditBoardCorner.obj
 0003:0000611c       ??_C@_0N@CHDDDHOJ@CDlgFindPart?$AA@ 0076d11c     DlgFindPart.obj
 0003:0000612c       ?classCDlgFindPart@CDlgFindPart@@2UCRuntimeClass@@B 0076d12c     DlgFindPart.obj
 0003:000061b4       ??_7CDlgFindPart@@6B@      0076d1b4     DlgFindPart.obj
 0003:00006394       ??_C@_02PGHGPEOM@?91?$AA@  0076d394     DlgFindPart.obj
 0003:00006398       ??_C@_0BA@ECKGBOAH@CDlgImportMerge?$AA@ 0076d398     DlgImportMerge.obj
 0003:000063ac       ?classCDlgImportMerge@CDlgImportMerge@@2UCRuntimeClass@@B 0076d3ac     DlgImportMerge.obj
 0003:0000648c       ??_7CDlgImportMerge@@6B@   0076d48c     DlgImportMerge.obj
 0003:0000666c       ??_C@_0CO@CEFEOMHK@?$NN?r?$OA?5?d?e?r?$OA?k?$PM?5?m?e?5?h?q?o?n?k?$PM?g?s?e?r?q?$PP?5?b?5?r?e?j@ 0076d66c     DlgImportMerge.obj
 0003:000066a4       ??_C@_0CN@HBGLONIN@This?5part?5is?5not?5used?5in?5the?5cur@ 0076d6a4     DlgImportMerge.obj
 0003:000066dc       ??_C@_06FEKDIFOA@Merge?9?$AA@ 0076d6dc     DlgImportMerge.obj
 0003:000066e4       ??_C@_0DH@PFMIJHPC@d?3?2freepcbdev?2schematic?5construc@ 0076d6e4     DlgImportMerge.obj
 0003:00006728       ??_C@_0BC@ICACCMBB@CDlgImportOptions?$AA@ 0076d728     DlgImportOptions.obj
 0003:00006740       ?classCDlgImportOptions@CDlgImportOptions@@2UCRuntimeClass@@B 0076d740     DlgImportOptions.obj
 0003:000067cc       ??_7CDlgImportOptions@@6B@ 0076d7cc     DlgImportOptions.obj
 0003:000069ac       ??_C@_0P@FPKDHLAI@CDlgImportPart?$AA@ 0076d9ac     DlgImportPart.obj
 0003:000069c0       ?createAlphaChannel@CImage@ATL@@2KB 0076d9c0     DlgImportPart.obj
 0003:000069c4       ?excludeGIF@CImage@ATL@@2KB 0076d9c4     DlgImportPart.obj
 0003:000069c8       ?excludeBMP@CImage@ATL@@2KB 0076d9c8     DlgImportPart.obj
 0003:000069cc       ?excludeEMF@CImage@ATL@@2KB 0076d9cc     DlgImportPart.obj
 0003:000069d0       ?excludeWMF@CImage@ATL@@2KB 0076d9d0     DlgImportPart.obj
 0003:000069d4       ?excludeJPEG@CImage@ATL@@2KB 0076d9d4     DlgImportPart.obj
 0003:000069d8       ?excludePNG@CImage@ATL@@2KB 0076d9d8     DlgImportPart.obj
 0003:000069dc       ?excludeTIFF@CImage@ATL@@2KB 0076d9dc     DlgImportPart.obj
 0003:000069e0       ?excludeIcon@CImage@ATL@@2KB 0076d9e0     DlgImportPart.obj
 0003:000069e4       ?excludeOther@CImage@ATL@@2KB 0076d9e4     DlgImportPart.obj
 0003:000069e8       ?excludeDefaultLoad@CImage@ATL@@2KB 0076d9e8     DlgImportPart.obj
 0003:000069ec       ?excludeDefaultSave@CImage@ATL@@2KB 0076d9ec     DlgImportPart.obj
 0003:000069f0       ?excludeValid@CImage@ATL@@2KB 0076d9f0     DlgImportPart.obj
 0003:000069f4       ?classCDlgImportPart@CDlgImportPart@@2UCRuntimeClass@@B 0076d9f4     DlgImportPart.obj
 0003:00006d4c       ??_7CDlgImportPart@@6B@    0076dd4c     DlgImportPart.obj
 0003:00006f2c       ??_C@_01LBDDMOBJ@?$FN?$AA@ 0076df2c     DlgImportPart.obj
 0003:00006f30       ??_C@_01OHGJGJJP@?$FL?$AA@ 0076df30     DlgImportPart.obj
 0003:00006f34       ??_C@_05IMDFKGHJ@?M?$MA?I?R?H?$AA@ 0076df34     DlgImportPart.obj
 0003:00006f3c       ??_C@_04OGGDJIHH@FIND?$AA@ 0076df3c     DlgImportPart.obj
 0003:00006f44       ??_C@_06DIBLFLDA@?H?L?O?N?P?R?$AA@ 0076df44     DlgImportPart.obj
 0003:00006f4c       ??_C@_06EKENOMLH@IMPORT?$AA@ 0076df4c     DlgImportPart.obj
 0003:00006f54       ??_C@_02PBFOLPKM@?$FN?5?$AA@ 0076df54     DlgImportPart.obj
 0003:00006f58       ??_C@_0BO@JFFCANJO@?S?m?h?j?$OA?k?$PM?m?$PL?u?5?d?e?r?$OA?k?e?i?5?m?e?5?m?$OA?i?d?e?m?n?$AA@ 0076df58     DlgImportPart.obj
 0003:00006f7c       ??_C@_0BG@OLLJNLKP@No?5unique?5parts?5found?$AA@ 0076df7c     DlgImportPart.obj
 0003:00006f98       ??_C@_0CK@ENNAGLGB@?D?e?r?$OA?k?h?5?m?e?5?h?q?o?n?k?$PM?g?s?$PO?r?q?$PP?5?b?5?r?e?j?s?y?e?l@ 0076df98     DlgImportPart.obj
 0003:00006fcc       ??_C@_0CF@BJEILGBL@No?5parts?5used?5in?5the?5current?5pro@ 0076dfcc     DlgImportPart.obj
 0003:00006ff8       ??_C@_0EK@PHHCDJDE@?M?e?5?n?a?m?$OA?p?s?f?e?m?n?5?m?h?5?n?d?m?n?i?5?d?e?r?$OA?k?h?0?5?j@ 0076dff8     DlgImportPart.obj
 0003:00007050       ??_C@_0CG@GMJKBGNE@No?5part?5found?5that?5was?5used?5only@ 0076e050     DlgImportPart.obj
 0003:00007080       ??_C@_0KI@DBDCJCHN@?T?h?k?$PM?r?p?$PL?5?d?k?$PP?5?n?o?r?h?l?h?g?$OA?v?h?h?5?j?n?l?o?k?e?j?r@ 0076e080     DlgImportPart.obj
 0003:00007150       ??_C@_0KB@LNDDLFBG@Filters?5to?5help?5optimize?5pcb?5ass@ 0076e150     DlgImportPart.obj
 0003:00007214       ??_C@_04LJDDIHIK@?4bmp?$AA@ 0076e214     DlgImportPart.obj
 0003:0000721c       ??_C@_04GNPKBLNA@?4jpg?$AA@ 0076e21c     DlgImportPart.obj
 0003:00007224       ??_C@_05KPIGABMB@?4jpeg?$AA@ 0076e224     DlgImportPart.obj
 0003:0000722c       ??_C@_0DG@JDOMPLBD@d?3?2freepcbdev?2schematic?5construc@ 0076e22c     DlgImportPart.obj
 0003:0000726c       ??_C@_0DH@HJNNHOOP@?B?M?H?L?$MA?M?H?E?3?5?t?s?r?o?p?h?m?r?5?$PN?r?n?i?5?d?e?r?$OA?k?h?5?m@ 0076e26c     DlgImportPart.obj
 0003:000072b0       ??_C@_0EC@FPPAKNNI@WARNING?3?5The?5footprint?5of?5this?5p@ 0076e2b0     DlgImportPart.obj
 0003:00007300       ??_C@_04JDIJJKPP@PART?$AA@ 0076e300     DlgImportPart.obj
 0003:00007308       ??_C@_0N@CPCEBGJM@prefixes?4txt?$AA@ 0076e308     DlgImportPart.obj
 0003:00007318       ??_C@_0JJ@NHLGFMBG@?G?$OA?o?n?k?m?h?r?e?5?m?e?d?n?q?r?$OA?$PO?y?h?e?5?h?l?e?m?$OA?5?j?k?$OA?q@ 0076e318     DlgImportPart.obj
 0003:000073d0       ??_C@_0IC@BCFNOJLF@Fill?5in?5the?5missing?5part?5class?5n@ 0076e3d0     DlgImportPart.obj
 0003:0000746c       ??_C@_03BBKEAIF@?$DP?$DP?$DP?$AA@ 0076e46c     DlgImportPart.obj
 0003:00007470       ??_C@_0BJ@MANJKLME@?9?9?$DO?5Edit?5class?5names?5?4?4?4?$AA@ 0076e470     DlgImportPart.obj
 0003:00007490       ??_C@_0DL@CNMFILOC@?9?9?9?9?9?9?9?9?9?9?9?9?9?9?9?9?9?9?9?9?9?9?9?9?9?9?9?9?9?9?9?9@ 0076e490     DlgImportPart.obj
 0003:000074d8       ??_C@_0DH@NFLPAMMA@?M?e?b?n?g?l?n?f?m?n?5?n?r?j?p?$PL?r?$PM?5?t?$OA?i?k?5prefixes@ 0076e4d8     DlgImportPart.obj
 0003:0000751c       ??_C@_0DD@DCBONEAC@Unable?5to?5open?5file?5prefixes?4txt@ 0076e51c     DlgImportPart.obj
 0003:0000755c       ??_C@_0DH@DBIDLLHO@?M?e?b?n?g?l?n?f?m?n?5?n?r?j?p?$PL?r?$PM?5?t?$OA?i?k?5prefixes@ 0076e55c     DlgImportPart.obj
 0003:000075a0       ??_C@_0DD@NGCCGDLM@Unable?5to?5open?5file?5prefixes?4txt@ 0076e5a0     DlgImportPart.obj
 0003:000075e0       ??_C@_0BP@PKGJDMHA@?$FLC?$FN?5?5Capacitors?$FLR?$FN?5?5Resistors?$FL?$AA@ 0076e5e0     DlgImportPart.obj
 0003:00007608       ??_C@_09DKFHNCGM@Resistors?$AA@ 0076e608     DlgImportPart.obj
 0003:00007614       ??_C@_03KCJKHBIH@?$FLR?$FN?$AA@ 0076e614     DlgImportPart.obj
 0003:00007618       ??_C@_0L@MHBOJODG@Capasitors?$AA@ 0076e618     DlgImportPart.obj
 0003:00007628       ??_C@_03LPHOLIMA@?$FLC?$FN?$AA@ 0076e628     DlgImportPart.obj
 0003:0000762c       ??_C@_0BB@GOCKLMCJ@?2ABC_library?4exe?$AA@ 0076e62c     DlgImportPart.obj
 0003:00007640       ??_C@_0BL@OCHLHJGA@?2FPC_EXE?2FreePCB_Libraries?$AA@ 0076e640     DlgImportPart.obj
 0003:00007660       ??_C@_0BF@BHAGHFH@SchConstr?3?5?$CC?$CFs?$CC?5?$CC?$CFs?$CC?$AA@ 0076e660     DlgImportPart.obj
 0003:00007680       ??_C@_0PE@HGPGGNMJ@?B?m?h?l?$OA?m?h?e?$CB?5?T?s?r?o?p?h?m?r?5?$CFs?5?m?e?5?m?$OA?i?d?e?m?5@ 0076e680     DlgImportPart.obj
 0003:000077a8       ??_C@_0PI@OJGDPNKG@Warning?$CB?5Footprint?5?$CFs?5was?5not?5fo@ 0076e7a8     DlgImportPart.obj
 0003:000078d4       ??_C@_0CO@OGODFKND@?5?m?e?5?m?$OA?i?d?e?m?5?b?5?r?e?j?s?y?e?i?5?a?h?a?k?h?n?r?e?j?e?5@ 0076e8d4     DlgImportPart.obj
 0003:0000790c       ??_C@_0CP@EPDMONOK@?5not?5found?5in?5the?5current?5footpr@ 0076e90c     DlgImportPart.obj
 0003:00007944       ??_C@_0CE@KKCHIDHA@Path?5to?5footprint?5library?5not?5se@ 0076e944     DlgImportPart.obj
 0003:00007970       ??_C@_03KODHBJNK@?5?5?$CF?$AA@ 0076e970     DlgImportPart.obj
 0003:00007974       ??_C@_04PODDENKK@?4doc?$AA@ 0076e974     DlgImportPart.obj
 0003:0000797c       ??_C@_0CP@NIHFNDCN@?B?m?h?l?$OA?m?h?e?$CB?5?$NN?r?n?r?5?t?$OA?i?k?5?d?n?q?r?s?o?e?m?5?r?n?k@ 0076e97c     DlgImportPart.obj
 0003:000079b4       ??_C@_0CA@LHIGGLIJ@Warning?$CB?5This?5file?5is?5read?9only?$AA@ 0076e9b4     DlgImportPart.obj
 0003:000079dc       ??_C@_03KHICJKCI@?4?4?4?$AA@ 0076e9dc     DlgImportPart.obj
 0003:000079e0       ??_C@_06KLMMKGKG@?2?$CK?4txt?$AA@ 0076e9e0     DlgImportPart.obj
 0003:000079e8       ??_C@_05NHJDPCAK@key?3?5?$AA@ 0076e9e8     DlgImportPart.obj
 0003:000079f0       ??_C@_0EJM@DPNICGNC@?B?5?$PN?r?n?l?5?o?n?k?e?5?q?n?5?q?o?h?q?j?n?l?5?n?r?n?a?p?$OA?f?$OA?e@ 0076e9f0     DlgImportPart.obj
 0003:00007f78       ??_C@_0EGE@BPPHCOIG@This?5combo?5box?5displays?5the?5firs@ 0076ef78     DlgImportPart.obj
 0003:000084bc       ??_C@_0BL@OPCILEHN@FreePcb?5Footprints?5Library?$AA@ 0076f4bc     DlgImportPart.obj
 0003:000084dc       ??_C@_0N@NNLFCKGG@CDlgIndexing?$AA@ 0076f4dc     DlgIndexing.obj
 0003:000084ec       ?classCDlgIndexing@CDlgIndexing@@2UCRuntimeClass@@B 0076f4ec     DlgIndexing.obj
 0003:0000853c       ??_7CDlgIndexing@@6B@      0076f53c     DlgIndexing.obj
 0003:0000871c       ??_C@_0L@MHKEJNED@CDlgLayers?$AA@ 0076f71c     DlgLayers.obj
 0003:0000872c       ?classCDlgLayers@CDlgLayers@@2UCRuntimeClass@@B 0076f72c     DlgLayers.obj
 0003:00008b14       ??_7CDlgLayers@@6B@        0076fb14     DlgLayers.obj
 0003:00008cfc       ??_7CCommonDialog@@6B@     0076fcfc     DlgLayers.obj
 0003:00008edc       ??_C@_07GBFKEGHG@CDlgLog?$AA@ 0076fedc     DlgLog.obj
 0003:00008ee8       ?classCDlgLog@CDlgLog@@2UCRuntimeClass@@B 0076fee8     DlgLog.obj
 0003:00008fb4       ??_7CDlgLog@@6B@           0076ffb4     DlgLog.obj
 0003:00009194       ??_C@_08NMCPANGE@?$AN?6?$AN?6?$AN?6?$AN?6?$AA@ 00770194     DlgLog.obj
 0003:000091a0       ??_C@_04FMMHFHOO@?$AN?6?$AN?6?$AA@ 007701a0     DlgLog.obj
 0003:000091a8       ??_C@_01IDAFKMJL@_?$AA@    007701a8     DlgLog.obj
 0003:000091ac       ??_C@_08GGFKNFHG@?5?5?5?5?5?5?5?5?$AA@ 007701ac     DlgLog.obj
 0003:000091b8       ??_C@_01NEMOKFLO@?$DN?$AA@ 007701b8     DlgLog.obj
 0003:000091bc       ??_C@_01GPOEFGEJ@?7?$AA@   007701bc     DlgLog.obj
 0003:000091c0       ??_C@_0BN@HLIDDIEK@?M?e?b?n?g?l?n?f?m?n?5?n?r?j?p?$PL?r?$PM?5?t?$OA?i?k?5?$CC?$CFs?$CC?$AA@ 007701c0     DlgLog.obj
 0003:000091e4       ??_C@_0BJ@PHCGFKGP@Unable?5to?5open?5file?5?$CC?$CFs?$CC?$AA@ 007701e4     DlgLog.obj
 0003:00009204       ??_C@_0BA@NOIHMHFL@?2related_files?2?$AA@ 00770204     DlgLog.obj
 0003:00009218       ??_C@_0P@DPLMKJBL@CDlgMoveOrigin?$AA@ 00770218     DlgMoveOrigin.obj
 0003:0000922c       ?classCDlgMoveOrigin@CDlgMoveOrigin@@2UCRuntimeClass@@B 0077022c     DlgMoveOrigin.obj
 0003:000092d4       ??_7CDlgMoveOrigin@@6B@    007702d4     DlgMoveOrigin.obj
 0003:000094b4       ??_C@_0BB@FCGLJEHF@CDlgMyMessageBox?$AA@ 007704b4     DlgMyMessageBox.obj
 0003:000094c8       ?classCDlgMyMessageBox@CDlgMyMessageBox@@2UCRuntimeClass@@B 007704c8     DlgMyMessageBox.obj
 0003:00009534       ??_7CDlgMyMessageBox@@6B@  00770534     DlgMyMessageBox.obj
 0003:00009714       ??_C@_0DH@JIMNHBOG@?U?n?r?h?r?e?5?o?p?n?d?n?k?f?h?r?$PM?5?p?$OA?a?n?r?s?5?q?5?o?e?w?$OA?r@ 00770714     DlgMyMessageBox.obj
 0003:00009758       ??_C@_0CO@HLHIEAEG@Do?5you?5want?5to?5continue?5working?5@ 00770758     DlgMyMessageBox.obj
 0003:00009790       ??_C@_0BC@MNENLKFG@CDlgMyMessageBox2?$AA@ 00770790     DlgMyMessageBox2.obj
 0003:000097a8       ?classCDlgMyMessageBox2@CDlgMyMessageBox2@@2UCRuntimeClass@@B 007707a8     DlgMyMessageBox2.obj
 0003:00009814       ??_7CDlgMyMessageBox2@@6B@ 00770814     DlgMyMessageBox2.obj
 0003:000099f4       ??_C@_0N@CIADPENJ@CDlgPartlist?$AA@ 007709f4     DlgPartlist.obj
 0003:00009a04       ?classCDlgPartlist@CDlgPartlist@@2UCRuntimeClass@@B 00770a04     DlgPartlist.obj
 0003:00009c04       ??_7CDlgPartlist@@6B@      00770c04     DlgPartlist.obj
 0003:00009de4       ??_C@_06GFPLNGOC@search?$AA@ 00770de4     DlgPartlist.obj
 0003:00009dec       ??_C@_04NHEGBFAI@Page?$AA@ 00770dec     DlgPartlist.obj
 0003:00009df4       ??_C@_09NKODLEAL@Footprint?$AA@ 00770df4     DlgPartlist.obj
 0003:00009e00       ??_C@_05LPIJGKJ@Value?$AA@ 00770e00     DlgPartlist.obj
 0003:00009e08       ??_C@_09OGLAPBDF@Reference?$AA@ 00770e08     DlgPartlist.obj
 0003:00009e14       ??_C@_03IFKLFCDP@BLK?$AA@  00770e14     DlgPartlist.obj
 0003:00009e18       ??_C@_1GI@NLJKHINH@?$AAd?$AA?3?$AA?2?$AAf?$AAr?$AAe?$AAe?$AAp?$AAc?$AAb?$AAd?$AAe?$AAv?$AA?2?$AAs?$AAc?$AAh?$AAe?$AAm?$AAa?$AAt?$AAi?$AAc?$AA?5?$AAc?$AAo?$AAn?$AAs?$AAt?$AAr?$AAu?$AAc@ 00770e18     DlgPartlist.obj
 0003:00009e94       ??_C@_02DJGKEECL@?4?4?$AA@ 00770e94     DlgPartlist.obj
 0003:00009e9c       ??_7?$CArray@HABH@@6B@     00770e9c     DlgPartlist.obj
 0003:00009eb4       ??_C@_0O@ENJMCEC@CDlgPDFLayers?$AA@ 00770eb4     DlgPDFLayers.obj
 0003:00009ec4       ?classCDlgPDFLayers@CDlgPDFLayers@@2UCRuntimeClass@@B 00770ec4     DlgPDFLayers.obj
 0003:0000a2ec       ??_7CDlgPDFLayers@@6B@     007712ec     DlgPDFLayers.obj
 0003:0000a4cc       ??_C@_0BO@GABLLJA@?B?$PL?a?e?p?h?r?e?5?q?r?p?$OA?m?h?v?$PL?5?d?k?$PP?5?o?e?w?$OA?r?h?$CB?$AA@ 007714cc     DlgPDFLayers.obj
 0003:0000a4f0       ??_C@_0BF@KHNAFCON@Select?5print?5pages?5?$CB?$AA@ 007714f0     DlgPDFLayers.obj
 0003:0000a50c       ??_C@_09MOCFMNEJ@DlgPinMap?$AA@ 0077150c     DlgPinMap.obj
 0003:0000a518       ?classDlgPinMap@DlgPinMap@@2UCRuntimeClass@@B 00771518     DlgPinMap.obj
 0003:0000a5e4       ??_7DlgPinMap@@6B@         007715e4     DlgPinMap.obj
 0003:0000a7c4       ??_C@_0O@PDIKOAPJ@?5?9?5is?5missing?$AA@ 007717c4     DlgPinMap.obj
 0003:0000a7d4       ??_C@_0CF@GDODPGFN@0123456789ABCDEFGHIJKLMNOPQRSTUV@ 007717d4     DlgPinMap.obj
 0003:0000a800       ??_C@_03LGOGDKEL@?5?$HM?5?$AA@ 00771800     DlgPinMap.obj
 0003:0000a804       ??_C@_02KFKPNHPM@?9?5?$AA@ 00771804     DlgPinMap.obj
 0003:0000a808       ??_C@_02GFKOMOKH@?5?$CI?$AA@ 00771808     DlgPinMap.obj
 0003:0000a80c       ??_C@_02KCKGHPCA@?$CJ?5?$AA@ 0077180c     DlgPinMap.obj
 0003:0000a810       ??_C@_0L@BDPJFBJJ@?9?5not?5used?$AA@ 00771810     DlgPinMap.obj
 0003:0000a820       ??_C@_0BA@JGKNCGCM@?9?5multiple?5pin?5?$AA@ 00771820     DlgPinMap.obj
 0003:0000a834       ??_C@_02BCEHBHOI@?4?9?$AA@ 00771834     DlgPinMap.obj
 0003:0000a838       ??_C@_04HGGBINEM@?$CFs?$CFd?$AA@ 00771838     DlgPinMap.obj
 0003:0000a840       ??_C@_0BD@LNPBMPBJ@CDlgProjectOptions?$AA@ 00771840     DlgProjectOptions.obj
 0003:0000a858       ?classCDlgProjectOptions@CDlgProjectOptions@@2UCRuntimeClass@@B 00771858     DlgProjectOptions.obj
 0003:0000a994       ??_7CDlgProjectOptions@@6B@ 00771994     DlgProjectOptions.obj
 0003:0000ab74       ??_C@_05JDFHBCGI@?$CF2?45f?$AA@ 00771b74     DlgProjectOptions.obj
 0003:0000ab7c       ??_C@_05KLHICNFN@?$CF3?42f?$AA@ 00771b7c     DlgProjectOptions.obj
 0003:0000ab84       __real@3f000000            00771b84     DlgProjectOptions.obj
 0003:0000ab88       __real@40000000            00771b88     DlgProjectOptions.obj
 0003:0000ab8c       ??_C@_02JAOCGLHE@mm?$AA@   00771b8c     DlgProjectOptions.obj
 0003:0000ab90       ??_C@_0CF@GFFCLLKL@?O?n?f?$OA?k?s?i?q?r?$OA?0?5?b?b?e?d?h?r?e?5?o?$OA?o?j?s?5?a?h?a?k?h?n@ 00771b90     DlgProjectOptions.obj
 0003:0000abbc       ??_C@_0BM@HFEHFNEO@Please?5enter?5library?5folder?$AA@ 00771bbc     DlgProjectOptions.obj
 0003:0000abe0       ??_C@_0CC@GPIIMJBF@?O?n?f?$OA?k?s?i?q?r?$OA?0?5?b?b?e?d?h?r?e?5?o?$OA?o?j?s?5?o?p?n?e?j?r@ 00771be0     DlgProjectOptions.obj
 0003:0000ac08       ??_C@_0BM@JJJIOJBL@Please?5enter?5project?5folder?$AA@ 00771c08     DlgProjectOptions.obj
 0003:0000ac2c       ??_C@_0BJ@EAGANJNE@?B?b?e?d?h?r?e?5?m?$OA?g?b?$OA?m?h?e?5?o?p?n?e?j?r?$OA?$AA@ 00771c2c     DlgProjectOptions.obj
 0003:0000ac4c       ??_C@_0BO@EDGNJEK@Please?5enter?5name?5for?5project?$AA@ 00771c4c     DlgProjectOptions.obj
 0003:0000ac70       __real@3f847ae147ae147b    00771c70     DlgProjectOptions.obj
 0003:0000ac7c       ??_C@_0L@DHDDJIDP@fp_lib?2lib?$AA@ 00771c7c     DlgProjectOptions.obj
 0003:0000ac8c       ??_C@_08HOOLGGJD@Projects?$AA@ 00771c8c     DlgProjectOptions.obj
 0003:0000ac98       ??_C@_1HE@DJBBLEPB@?$AAd?$AA?3?$AA?2?$AAf?$AAr?$AAe?$AAe?$AAp?$AAc?$AAb?$AAd?$AAe?$AAv?$AA?2?$AAs?$AAc?$AAh?$AAe?$AAm?$AAa?$AAt?$AAi?$AAc?$AA?5?$AAc?$AAo?$AAn?$AAs?$AAt?$AAr?$AAu?$AAc@ 00771c98     DlgProjectOptions.obj
 0003:0000ad24       ??_C@_0BA@LNFGBJFF@?O?$OA?o?j?$OA?5?a?h?a?k?h?n?r?e?j?$AA@ 00771d24     DlgProjectOptions.obj
 0003:0000ad38       ??_C@_0P@IAANDAHI@Library?5Folder?$AA@ 00771d38     DlgProjectOptions.obj
 0003:0000ad4c       ??_C@_0BO@GKKHCOCJ@Select?5default?5library?5folder?$AA@ 00771d4c     DlgProjectOptions.obj
 0003:0000ad70       ??_C@_0O@PNADPHLL@?O?$OA?o?j?$OA?5?o?p?n?e?j?r?$OA?$AA@ 00771d70     DlgProjectOptions.obj
 0003:0000ad80       ??_C@_0P@GMNCIECN@Project?5Folder?$AA@ 00771d80     DlgProjectOptions.obj
 0003:0000ad94       ??_C@_0BG@EEGBEHGB@Select?5project?5folder?$AA@ 00771d94     DlgProjectOptions.obj
 0003:0000adb0       ??_C@_0ECB@MDILBBDP@?S?j?$OA?f?h?r?e?5?o?s?r?$PM?5?j?5?a?h?a?k?h?n?r?e?j?e?5?o?n?q?$OA?d?n@ 00771db0     DlgProjectOptions.obj
 0003:0000b2a8       ??_C@_0DOM@LAIGHNGO@Specify?5the?5path?5to?5the?5FreePCB?9@ 007722a8     DlgProjectOptions.obj
 0003:0000b75c       ??_C@_0P@OHJJAAEO@CDlgProtection?$AA@ 0077275c     DlgProtection.obj
 0003:0000b770       ?classCDlgProtection@CDlgProtection@@2UCRuntimeClass@@B 00772770     DlgProtection.obj
 0003:0000b7fc       ??_7CDlgProtection@@6B@    007727fc     DlgProtection.obj
 0003:0000b9dc       ??_C@_03EMIMMIHL@?$CK?4?$CK?$AA@ 007729dc     DlgProtection.obj
 0003:0000b9e0       ??_C@_0BD@KKBGMADI@CDlgReassignLayers?$AA@ 007729e0     DlgReassignLayers.obj
 0003:0000b9f8       ?classCDlgReassignLayers@CDlgReassignLayers@@2UCRuntimeClass@@B 007729f8     DlgReassignLayers.obj
 0003:0000ba4c       ??_7CDlgReassignLayers@@6B@ 00772a4c     DlgReassignLayers.obj
 0003:0000bc2c       ??_C@_0N@BCLJGHK@DlgRenumbers?$AA@ 00772c2c     DlgRenumbers.obj
 0003:0000bc3c       ?classDlgRenumbers@DlgRenumbers@@2UCRuntimeClass@@B 00772c3c     DlgRenumbers.obj
 0003:0000bcac       ??_7DlgRenumbers@@6B@      00772cac     DlgRenumbers.obj
 0003:0000be8c       ??_C@_0BN@FEHICAPP@?M?e?d?n?o?s?q?r?h?l?$PL?i?5?q?r?$OA?p?r?n?b?$PL?i?5?m?n?l?e?p?$AA@ 00772e8c     DlgRenumbers.obj
 0003:0000beb0       ??_C@_0BF@LONGMDOJ@Illegal?5start?5number?$AA@ 00772eb0     DlgRenumbers.obj
 0003:0000becc       ??_C@_04FDCAPJED@?$CF?45d?$AA@ 00772ecc     DlgRenumbers.obj
 0003:0000bed4       ??_C@_0P@MJNIBJFL@?Q?l?e?q?r?h?r?$PM?5?m?$OA?4?4?4?$AA@ 00772ed4     DlgRenumbers.obj
 0003:0000bee8       ??_C@_0M@LOJNGFDG@Raise?5by?4?4?4?$AA@ 00772ee8     DlgRenumbers.obj
 0003:0000bef8       ??_C@_0P@DBLBDNB@Raise?5starting?$AA@ 00772ef8     DlgRenumbers.obj
 0003:0000bf0c       ??_C@_0N@FGFGAPFJ@?D?n?a?4?5?q?s?t?t?h?j?q?$AA@ 00772f0c     DlgRenumbers.obj
 0003:0000bf1c       ??_C@_0BA@HDLDMEDJ@?M?$OA?w?$OA?r?$PM?5?q?5?m?n?l?e?p?$OA?$AA@ 00772f1c     DlgRenumbers.obj
 0003:0000bf30       ??_C@_0O@LGELGAKP@?O?p?h?l?e?m?h?r?$PM?5?d?k?$PP?$AA@ 00772f30     DlgRenumbers.obj
 0003:0000bf40       ??_C@_0P@PDIHOELH@?b?q?e?u?5?o?p?e?t?h?j?q?n?b?$AA@ 00772f40     DlgRenumbers.obj
 0003:0000bf54       ??_C@_0L@INPLOBGP@Add?5suffix?$AA@ 00772f54     DlgRenumbers.obj
 0003:0000bf64       ??_C@_0N@HHKGIBJK@Start?5number?$AA@ 00772f64     DlgRenumbers.obj
 0003:0000bf74       ??_C@_0BA@BEKEMLKM@Apply?5to?5prefix?$AA@ 00772f74     DlgRenumbers.obj
 0003:0000bf88       ??_C@_0O@GBNMLPBB@?5all?5prefixes?$AA@ 00772f88     DlgRenumbers.obj
 0003:0000bf98       ??_C@_0P@COCCKKFB@DlgReplaceText?$AA@ 00772f98     DlgReplaceText.obj
 0003:0000bfac       ?classDlgReplaceText@DlgReplaceText@@2UCRuntimeClass@@B 00772fac     DlgReplaceText.obj
 0003:0000bffc       ??_7DlgReplaceText@@6B@    00772ffc     DlgReplaceText.obj
 0003:0000c1dc       ??_C@_0DA@CFFMHNCF@?Q?r?p?n?j?$OA?5?m?e?5?d?n?k?f?m?$OA?5?q?n?d?e?p?f?$OA?r?$PM?5?q?o?e?v?h@ 007731dc     DlgReplaceText.obj
 0003:0000c218       ??_C@_0DB@GPPIGNFG@The?5string?5must?5not?5contain?5a?5sp@ 00773218     DlgReplaceText.obj
 0003:0000c254       ??_C@_0BA@GLKGMMIA@CDlgPartlistRep?$AA@ 00773254     DlgReport.obj
 0003:0000c268       ?classCDlgPartlistRep@CDlgPartlistRep@@2UCRuntimeClass@@B 00773268     DlgReport.obj
 0003:0000c454       ??_7CDlgPartlistRep@@6B@   00773454     DlgReport.obj
 0003:0000c634       ??_C@_03BBJMCFKE@URL?$AA@  00773634     DlgReport.obj
 0003:0000c638       ??_C@_07NJJEDOBB@Details?$AA@ 00773638     DlgReport.obj
 0003:0000c644       ??_C@_05IJGIMMHE@Count?$AA@ 00773644     DlgReport.obj
 0003:0000c64c       ??_C@_03JMFMNIFM@?9?9?9?$AA@ 0077364c     DlgReport.obj
 0003:0000c650       ??_C@_0BC@LBIELKIN@?2CSVFileView?4exe?$CC?$AA@ 00773650     DlgReport.obj
 0003:0000c668       ??_C@_0BB@FKDDOINP@?2CSVFileView?4exe?$AA@ 00773668     DlgReport.obj
 0003:0000c67c       ??_C@_04PFOHOKJK@?5?5?5?5?$AA@ 0077367c     DlgReport.obj
 0003:0000c684       ??_C@_01ICJEACDI@?$DL?$AA@ 00773684     DlgReport.obj
 0003:0000c688       ??_C@_08HJGGNNCM@Number?5?5?$AA@ 00773688     DlgReport.obj
 0003:0000c694       ??_C@_07CIDNGDFL@Number?$DL?$AA@ 00773694     DlgReport.obj
 0003:0000c6a0       ??_C@_05OFIDCJBG@?$CJ?4txt?$AA@ 007736a0     DlgReport.obj
 0003:0000c6a8       ??_C@_05PBCKGFKL@?2BOM?$CI?$AA@ 007736a8     DlgReport.obj
 0003:0000c6b0       ??_C@_05BGCOMLFD@?$CJ?4csv?$AA@ 007736b0     DlgReport.obj
 0003:0000c6b8       ??_C@_0BH@FJBFKLDF@?2related_files?2reports?$AA@ 007736b8     DlgReport.obj
 0003:0000c6d4       ??_C@_1BI@BMKEOGLI@?$AAp?$AAP?$AAo?$AAp?$AAu?$AAp?$AA?5?$AA?$CB?$AA?$DN?$AA?5?$AA0?$AA?$AA@ 007736d4     DlgReport.obj
 0003:0000c6f0       ??_C@_1CI@CLHHKNDG@?$AAm?$AAe?$AAn?$AAu?$AA?4?$AAL?$AAo?$AAa?$AAd?$AAM?$AAe?$AAn?$AAu?$AAA?$AA?$CI?$AA1?$AA4?$AA4?$AA?$CJ?$AA?$AA@ 007736f0     DlgReport.obj
 0003:0000c720       ??_C@_1GE@EAGLJEGK@?$AAd?$AA?3?$AA?2?$AAf?$AAr?$AAe?$AAe?$AAp?$AAc?$AAb?$AAd?$AAe?$AAv?$AA?2?$AAs?$AAc?$AAh?$AAe?$AAm?$AAa?$AAt?$AAi?$AAc?$AA?5?$AAc?$AAo?$AAn?$AAs?$AAt?$AAr?$AAu?$AAc@ 00773720     DlgReport.obj
 0003:0000c798       ??_C@_0CI@EOCLPAMK@?R?e?j?q?r?5?$CFs?5?a?$PL?k?5?q?j?n?o?h?p?n?b?$OA?m?5?b?5?a?s?t?e?p?5@ 00773798     DlgReport.obj
 0003:0000c7c8       ??_C@_0CN@GCNHNDHA@The?5text?5?$CFs?5has?5been?5copied?5to?5t@ 007737c8     DlgReport.obj
 0003:0000c800       ??_C@_0BB@DIEEDJNF@CDlgSetAreaHatch?$AA@ 00773800     DlgSetAreaHatch.obj
 0003:0000c814       ?classCDlgSetAreaHatch@CDlgSetAreaHatch@@2UCRuntimeClass@@B 00773814     DlgSetAreaHatch.obj
 0003:0000c864       ??_7CDlgSetAreaHatch@@6B@  00773864     DlgSetAreaHatch.obj
 0003:0000ca44       ??_C@_0O@LIJBJIKC@CDlgShortcuts?$AA@ 00773a44     DlgShortcuts.obj
 0003:0000ca54       ?classCDlgShortcuts@CDlgShortcuts@@2UCRuntimeClass@@B 00773a54     DlgShortcuts.obj
 0003:0000caa4       ??_7CDlgShortcuts@@6B@     00773aa4     DlgShortcuts.obj
 0003:0000cc84       ??_C@_0O@NMOLLEEM@CDlgSideStyle?$AA@ 00773c84     DlgSideStyle.obj
 0003:0000cc94       ?classCDlgSideStyle@CDlgSideStyle@@2UCRuntimeClass@@B 00773c94     DlgSideStyle.obj
 0003:0000cce4       ??_7CDlgSideStyle@@6B@     00773ce4     DlgSideStyle.obj
 0003:0000cec4       ??_C@_08MFOGJMDN@CDlgAttr?$AA@ 00773ec4     DlgAttr.obj
 0003:0000ced0       ?classCDlgAttr@CDlgAttr@@2UCRuntimeClass@@B 00773ed0     DlgAttr.obj
 0003:0000d2bc       ??_7CDlgAttr@@6B@          007742bc     DlgAttr.obj
 0003:0000d49c       ??_C@_01LIIJDEN@?$AN?$AA@  0077449c     DlgAttr.obj
 0003:0000d4a0       ??_C@_06PFFBCHML@?$CFs?$CFd?$CFs?$AA@ 007744a0     DlgAttr.obj
 0003:0000d4a8       ??_C@_0BBH@FIKIJCKC@?D?e?r?$OA?k?$PM?5?q?5?r?$OA?j?h?l?5?f?e?5?h?l?e?m?e?l?5?s?f?e?5?q?s?y@ 007744a8     DlgAttr.obj
 0003:0000d5f8       ??_C@_0PJ@BEOEIDCC@A?5part?5with?5the?5same?5name?5alread@ 007745f8     DlgAttr.obj
 0003:0000d728       ??_C@_0JP@LDFFGHKI@?C?p?s?o?o?n?b?n?e?5?p?e?d?$OA?j?r?h?p?n?b?$OA?m?h?e?5?d?e?r?$OA?k?e?i@ 00774728     DlgAttr.obj
 0003:0000d7e8       ??_C@_0II@GHIBDFB@Group?5editing?5of?5parts?5is?5not?5po@ 007747e8     DlgAttr.obj
 0003:0000d88c       ??_C@_08KIGEOBLF@Multiple?$AA@ 0077488c     DlgAttr.obj
 0003:0000d898       ??_C@_0CD@CEDIFLEI@?M?e?d?n?o?s?q?r?h?l?$PL?e?5?q?h?l?b?n?k?$PL?3?5?$CI?5?$CJ?5?$HM?5?8?5?$CC?5@ 00774898     DlgAttr.obj
 0003:0000d8c4       ??_C@_0CB@GFJJJPJJ@Illegal?5characters?3?5?$CI?5?$CJ?5?$HM?5?8?5?$CC?5?$EA?5@ 007748c4     DlgAttr.obj
 0003:0000d8ec       ??_C@_04JOOGAPOK@?$CC?$EA?$HM?8?$AA@ 007748ec     DlgAttr.obj
 0003:0000d8f8       ??_C@_0EK@OJNOALEH@?M?e?d?n?o?s?q?r?h?l?n?e?5?h?l?$PP?5?$PN?k?4?v?e?o?h?5?$CC?$CFs?$CC?6?$CFs@ 007748f8     DlgAttr.obj
 0003:0000d950       ??_C@_0DL@HMDHNPHJ@Illegal?5net?5name?5?$CC?$CFs?$CC?6?$CFs?5?9?5these@ 00774950     DlgAttr.obj
 0003:0000d998       ??_C@_0FG@FDGPPMGI@?M?e?d?n?o?s?q?r?h?l?n?e?5?h?l?$PP?5?o?h?m?$OA?5?$CC?$CFs?$CC?6?B?n?r?5?o@ 00774998     DlgAttr.obj
 0003:0000da00       ??_C@_0FA@IPOJEKGF@Illegal?5pin?5name?5?$CC?$CFs?$CC?6Here?5is?5th@ 00774a00     DlgAttr.obj
 0003:0000da60       ??_C@_01LAKCGALK@9?$AA@    00774a60     DlgAttr.obj
 0003:0000da68       ??_C@_0EH@LHPLBDCA@?M?e?d?n?o?s?q?r?h?l?n?e?5?h?l?$PP?5?o?h?m?$OA?5?$CC?$CFs?$CC?6?$CFs?5?9?5@ 00774a68     DlgAttr.obj
 0003:0000dac0       ??_C@_0DL@CEPECAPL@Illegal?5pin?5name?5?$CC?$CFs?$CC?6?$CFs?5?9?5these@ 00774ac0     DlgAttr.obj
 0003:0000db08       ??_C@_0FB@MGDNDFPN@?M?e?d?n?o?s?q?r?h?l?n?e?5?n?a?n?g?m?$OA?w?e?m?h?e?5?q?q?$PL?k?j?h?5@ 00774b08     DlgAttr.obj
 0003:0000db70       ??_C@_0EH@NHNFAJOC@Illegal?5reference?5designator?5?$CC?$CFs@ 00774b70     DlgAttr.obj
 0003:0000dbc8       __real@49742400            00774bc8     DlgAttr.obj
 0003:0000dbcc       __real@46c67000            00774bcc     DlgAttr.obj
 0003:0000dbd0       ??_C@_0KA@IGABMDGF@?C?p?s?o?o?n?b?n?e?5?p?e?d?$OA?j?r?h?p?n?b?$OA?m?h?e?5?d?e?r?$OA?k?e?i@ 00774bd0     DlgAttr.obj
 0003:0000dc90       ??_C@_0IJ@PEAPDFDE@Group?5editing?5of?5parts?5is?5not?5po@ 00774c90     DlgAttr.obj
 0003:0000dd34       ??_C@_05GDJIKCCN@?$CF6?42f?$AA@ 00774d34     DlgAttr.obj
 0003:0000dd3c       ??_C@_06HAHKOGOC@Table?8?$AA@ 00774d3c     DlgAttr.obj
 0003:0000dd44       ??_C@_03NBLHELOA@BOM?$AA@  00774d44     DlgAttr.obj
 0003:0000dd48       __real@358637bd            00774d48     DlgAttr.obj
 0003:0000dd4c       __real@3825214d            00774d4c     DlgAttr.obj
 0003:0000dd50       ??_C@_0BA@MOCCLDFP@SchConstr?3?5?$CC?$CFs?$CC?$AA@ 00774d50     DlgAttr.obj
 0003:0000dd68       ??_C@_0BAC@DABKCCGO@?N?a?n?g?m?$OA?w?e?m?h?e?5?d?e?r?$OA?k?h?5?d?n?k?f?m?n?5?m?$OA?w?h?m?$OA@ 00774d68     DlgAttr.obj
 0003:0000dea0       ??_C@_0PA@BAMMCOJC@The?5part?5designation?5must?5begin?5@ 00774ea0     DlgAttr.obj
 0003:0000dfc0       ??_C@_0NB@MEHDEKFB@?S?j?$OA?f?h?r?e?5?o?s?r?$PM?5?j?5?a?h?a?k?h?n?r?e?j?e?5?t?s?r?o?p?h@ 00774fc0     DlgAttr.obj
 0003:0000e0c0       ??_C@_0OE@BAGFJDLJ@Indicate?5the?5path?5to?5the?5FreePcb@ 007750c0     DlgAttr.obj
 0003:0000e1d8       ??_C@_0BBI@GECGCLFE@?B?5?Q?u?e?l?$MA?r?n?p?e?5?l?n?f?m?n?5?o?p?e?b?p?$OA?r?h?r?$PM?5?k?$PO?a@ 007751d8     DlgAttr.obj
 0003:0000e328       ??_C@_0BAL@FNFPGCM@You?5can?5turn?5any?5open?5polyline?5i@ 00775328     DlgAttr.obj
 0003:0000e468       ??_C@_0BCP@PDOGEJKI@?B?$PL?5?l?n?f?e?r?e?5?q?n?g?d?$OA?r?$PM?5?l?e?r?j?s?5?$PN?k?4?v?e?o?h?5@ 00775468     DlgAttr.obj
 0003:0000e5d8       ??_C@_0BBG@DNICKDHG@You?5can?5create?5a?5net?5label?5on?5an@ 007755d8     DlgAttr.obj
 0003:0000e728       ??_C@_0OB@NDGBGFDH@?J?$OA?f?d?$PL?i?5?p?$OA?g?5?o?p?h?5?q?n?u?p?$OA?m?e?m?h?h?5?h?g?l?e?m?$LI@ 00775728     DlgAttr.obj
 0003:0000e838       ??_C@_0MM@FPALEHCL@Each?5time?5the?5file?5is?5saved?0?5thi@ 00775838     DlgAttr.obj
 0003:0000e930       ??_C@_0MC@DPNMILEA@?B?5?o?e?p?b?n?i?5?q?r?p?n?j?e?5?l?n?f?m?n?5?b?b?e?q?r?h?5?k?$PO?a@ 00775930     DlgAttr.obj
 0003:0000ea18       ??_C@_0NE@NNPNIHA@In?5the?5first?5line?5you?5can?5enter?5@ 00775a18     DlgAttr.obj
 0003:0000eb18       ??_C@_0FEL@PIJFMPBN@?Q?n?g?d?$OA?m?h?e?5?q?k?n?f?m?n?i?5?d?e?r?$OA?k?h?3?5?D?k?$PP?5?l?m?n@ 00775b18     DlgAttr.obj
 0003:0000f178       ??_C@_0ENB@GJBEJJGE@For?5multi?9channel?5circuits?0?5it?5i@ 00776178     DlgAttr.obj
 0003:0000f740       ??_C@_0CPL@CGEMAMFC@?D?k?$PP?5?m?$OA?w?$OA?k?$OA?5?q?l?4?5?o?p?e?d?$PL?d?s?y?h?i?5?b?n?o?p?n?q@ 00776740     DlgAttr.obj
 0003:0000fad8       ??_C@_0DDK@LMHAIKKK@To?5get?5started?0?5see?5the?5previous@ 00776ad8     DlgAttr.obj
 0003:0000feb8       ??_C@_0BIB@HDKLAEDN@?E?q?k?h?5?b?$PL?5?d?n?a?$OA?b?h?r?e?5?q?h?l?b?n?k?5?b?e?p?r?h?j?$OA?k@ 00776eb8     DlgAttr.obj
 0003:00010088       ??_C@_0BIP@NLFJHOCA@If?5you?5add?5the?5pipe?5character?5?$CC?$HM@ 00777088     DlgAttr.obj
 0003:00010268       ??_C@_0CKH@KBKOCFNP@?B?$PL?5?l?n?f?e?r?e?5?d?n?a?$OA?b?h?r?$PM?5?t?p?$OA?c?l?e?m?r?5?r?$OA?a?k@ 00777268     DlgAttr.obj
 0003:00010598       ??_C@_0CJH@EICBJEIK@You?5can?5add?5a?5BOM?5table?5snippet?5@ 00777598     DlgAttr.obj
 0003:000108b4       ??_C@_0BB@PDBECFKM@?$HMDD?4MM?4YYYY?5DATE?$AA@ 007778b4     DlgAttr.obj
 0003:000108c8       ??_C@_0CI@JLLIJMEN@?R?e?j?q?r?5?n?o?h?q?$OA?m?h?$PP?5?s?f?e?5?q?n?d?e?p?f?h?r?5?j?n?d?5@ 007778c8     DlgAttr.obj
 0003:000108f8       ??_C@_0DC@IECFMOHI@The?5description?5text?5already?5con@ 007778f8     DlgAttr.obj
 0003:00010934       ??_C@_08DDBDIOHK@00?400?400?$AA@ 00777934     DlgAttr.obj
 0003:00010940       ??_C@_09DLAICLCB@?$AN?6?$HMLINK?3?5?$AA@ 00777940     DlgAttr.obj
 0003:0001094c       ??_C@_0BC@IGOODEPA@?$AN?6?$HMpage_number?3?51?$AA@ 0077794c     DlgAttr.obj
 0003:00010964       ??_C@_0BE@JOCEAIOF@Enter_RefDes_or_URL?$AA@ 00777964     DlgAttr.obj
 0003:0001097c       ??_C@_02PDBIABPF@?$FO?5?$AA@ 0077797c     DlgAttr.obj
 0003:00010980       ??_C@_0DK@JOOGJDDM@?$AN?6?$HMsuffix?3?5xx?$AN?6?$HMLINK?3?5xx?$AN?6?$HMpage_@ 00777980     DlgAttr.obj
 0003:000109c8       ??_C@_0N@CEEILNBF@VisibleText?5?$AA@ 007779c8     DlgAttr.obj
 0003:000109d8       ??_C@_0EN@EMEAPPJD@?$AN?6?$HMsuffix?3?5xx?$AN?6?$HMLINK?3?5xx?$AN?6?$HMpin_n@ 007779d8     DlgAttr.obj
 0003:00010a34       ??_C@_0O@EMPNMIEE@?$HMEnterBusName?$AA@ 00777a34     DlgAttr.obj
 0003:00010a44       ??_C@_0CC@IIDBJINM@?H?l?$PP?5?q?e?r?h?5?s?f?e?5?q?n?d?e?p?f?h?r?5?j?n?d?5?j?n?l?$OA?m?d@ 00777a44     DlgAttr.obj
 0003:00010a6c       ??_C@_0CK@FONCHBIJ@The?5net?5name?5already?5contains?5th@ 00777a6c     DlgAttr.obj
 0003:00010aa0       ??_C@_0N@HPNMGMFA@EnterNetName?$AA@ 00777aa0     DlgAttr.obj
 0003:00010ab0       ??_C@_0KI@MHAGEJLF@?N?r?q?s?r?q?r?b?s?e?r?5?h?l?$PP?5?o?e?w?$OA?r?m?n?i?5?o?k?$OA?r?$PL?4?5@ 00777ab0     DlgAttr.obj
 0003:00010b80       ??_C@_0IM@LKCEEMCH@PCB?5name?5is?5missing?4?5First?5you?5n@ 00777b80     DlgAttr.obj
 0003:00010c28       ??_C@_0OB@HIKAHBEN@?$AN?6?$HMstart_number?3?51?$AN?6?$HMend_number?3@ 00777c28     DlgAttr.obj
 0003:00010d38       ??_C@_06DPDLHACF@Table?5?$AA@ 00777d38     DlgAttr.obj
 0003:00010d40       ??_C@_0FP@DCJHNEKL@?$AN?6?$HMpath?3?50?$AN?6?$HMname?3?51?$AN?6?$HMpcb_flag?3@ 00777d40     DlgAttr.obj
 0003:00010db4       ??_C@_05NBPMIBKH@Path?5?$AA@ 00777db4     DlgAttr.obj
 0003:00010dc0       ??_C@_1GA@LJOLJKFI@?$AAd?$AA?3?$AA?2?$AAf?$AAr?$AAe?$AAe?$AAp?$AAc?$AAb?$AAd?$AAe?$AAv?$AA?2?$AAs?$AAc?$AAh?$AAe?$AAm?$AAa?$AAt?$AAi?$AAc?$AA?5?$AAc?$AAo?$AAn?$AAs?$AAt?$AAr?$AAu?$AAc@ 00777dc0     DlgAttr.obj
 0003:00010e34       ??_C@_0CL@IPKPBEBD@Page?$CFd?$AN?6?$HMname?3?5?$CFs?4?$CFd?4pdf?$AN?6?$CFs?5Pri@ 00777e34     DlgAttr.obj
 0003:00010e68       ??_C@_09NHPCKPAA@?$HMcommand?3?$AA@ 00777e68     DlgAttr.obj
 0003:00010e78       ??_C@_0LP@DOCGLEBD@?$AN?6?$HMUID?3?50?$AN?6?$HMtext_height?3?51mm?$AN?6?$HMf@ 00777e78     DlgAttr.obj
 0003:00010f60       ??_C@_07ICBFHOFN@PCB?4fpc?$AA@ 00777f60     DlgAttr.obj
 0003:00010f6c       ??_C@_04GOPFENPG@PCB?5?$AA@ 00777f6c     DlgAttr.obj
 0003:00010f78       ??_C@_0ND@DJAAGALK@In?5the?5Schemator?5you?5can?5make?5an@ 00777f78     DlgAttr.obj
 0003:00011078       ??_C@_0OC@DDEKAMLK@?B?5?Q?u?e?l?$OA?r?n?p?e?5?l?n?f?m?n?5?d?e?k?$OA?r?$PM?5?n?a?k?$OA?q?r?$PM@ 00778078     DlgAttr.obj
 0003:00011188       ??_C@_0BAP@NKLAMCHM@In?5the?5Schemator?0?5you?5can?5displa@ 00778188     DlgAttr.obj
 0003:000112d0       ??_C@_0PE@HLNOEDE@?B?5?Q?u?e?l?$OA?r?n?p?e?5?l?n?f?m?n?5?n?r?n?a?p?$OA?g?h?r?$PM?5?b?h?d@ 007782d0     DlgAttr.obj
 0003:000113f4       ??_C@_0CK@BOPIDHHI@?O?p?e?d?s?o?p?e?f?d?e?m?h?e?3?5?n?x?h?a?j?$OA?5ParseKeyS@ 007783f4     file_io.obj
 0003:00011428       ??_C@_0CF@FAMJCBNH@Warning?3?5error?5of?5ParseKeyString@ 00778428     file_io.obj
 0003:00011454       ??_C@_03KCNMLBEC@?5?6?7?$AA@ 00778454     file_io.obj
 0003:00011458       ??_C@_04LLNPABLM@?5?3?6?7?$AA@ 00778458     file_io.obj
 0003:00011460       ??_C@_0DD@EFENFKKD@?M?e?b?n?g?l?n?f?m?n?5?o?p?e?n?a?p?$OA?g?n?b?$OA?r?$PM?5?q?r?p?n?j?s?5@ 00778460     file_io.obj
 0003:000114a0       ??_C@_0CF@BGFFMOCN@Unable?5to?5convert?5string?5?$CC?$CFs?$CC?5to@ 007784a0     file_io.obj
 0003:000114cc       ??_C@_03JJLJNLDJ@mil?$AA@  007784cc     file_io.obj
 0003:000114d0       __real@c1cdcd64ff800000    007784d0     file_io.obj
 0003:000114e0       __real@41cdcd64ff800000    007784e0     file_io.obj
 0003:000114f0       ??_C@_0EA@EPNHDKDA@?M?e?b?n?g?l?n?f?m?n?5?o?p?e?n?a?p?$OA?g?n?b?$OA?r?$PM?5?q?r?p?n?j?s?5@ 007784f0     file_io.obj
 0003:0001153c       ??_C@_0CI@CBGOIDOF@Unable?5to?5convert?5string?5?$CC?$CFs?$CC?5to@ 0077853c     file_io.obj
 0003:0001156c       ??_C@_0M@NGADHLNA@CFreePcbDoc?$AA@ 0077856c     Documents.obj
 0003:0001157c       ?classCFreePcbDoc@CFreePcbDoc@@2UCRuntimeClass@@B 0077857c     Documents.obj
 0003:000125c0       __real@00000000            007795c0     Documents.obj
 0003:000125c4       __real@3f800000            007795c4     Documents.obj
 0003:000125c8       __real@3ff6dd2f1a9fbe77    007795c8     Documents.obj
 0003:000125d4       ??_C@_03HIJAPNPO@?$LA?$LB?$KJ?$AA@ 007795d4     Documents.obj
 0003:000125d8       ??_C@_0CB@NAOMLN@https?3?1?1www?4google?4com?1search?$DPq?$DN@ 007795d8     Documents.obj
 0003:00012600       ??_C@_1GE@MLFDABGI@?$AAd?$AA?3?$AA?2?$AAf?$AAr?$AAe?$AAe?$AAp?$AAc?$AAb?$AAd?$AAe?$AAv?$AA?2?$AAs?$AAc?$AAh?$AAe?$AAm?$AAa?$AAt?$AAi?$AAc?$AA?5?$AAc?$AAo?$AAn?$AAs?$AAt?$AAr?$AAu?$AAc@ 00779600     Documents.obj
 0003:0001267c       ??_7CFreePcbDoc@@6B@       0077967c     Documents.obj
 0003:000127cc       ??_C@_0BA@FJLLAICL@?2components?4txt?$AA@ 007797cc     Documents.obj
 0003:000127e0       ??_C@_0BB@FGOHONMK@?j?n?m?q?r?p?s?j?r?n?p?5?q?u?e?l?$AA@ 007797e0     Documents.obj
 0003:000127f4       ??_C@_0BA@DEBNDJNH@no?5project?5open?$AA@ 007797f4     Documents.obj
 0003:00012808       ??_C@_06BJHINBJK@01?4cds?$AA@ 00779808     Documents.obj
 0003:00012810       ??_C@_08DIGCOGAO@?2version?$AA@ 00779810     Documents.obj
 0003:0001281c       ??_C@_02OCIIMEMP@01?$AA@   0077981c     Documents.obj
 0003:00012820       ??_C@_0BK@NEAKOBHP@?M?e?b?n?g?l?n?f?m?n?5?q?n?g?d?$OA?r?$PM?5?o?$OA?o?j?s?5?$AA@ 00779820     Documents.obj
 0003:00012840       ??_C@_0BJ@ECDBHMFO@Unable?5to?5create?5folder?5?$AA@ 00779840     Documents.obj
 0003:00012860       ??_C@_0CF@NNJKMAHP@?D?h?$OA?k?n?c?n?b?n?e?5?n?j?m?n?5?t?$OA?i?k?$OA?5?m?e?5?o?n?d?j?k?$PO?w@ 00779860     Documents.obj
 0003:0001288c       ??_C@_0BO@EOKNIDEK@File?5dialog?5is?5not?5connected?$CB?$AA@ 0077988c     Documents.obj
 0003:000128b0       ??_C@_0NE@LNJEDJMA@?M?e?b?n?g?l?n?f?m?n?5?n?r?j?p?$PL?r?$PM?5?c?k?n?a?$OA?k?$PM?m?$PL?i?5?t?$OA@ 007798b0     Documents.obj
 0003:000129b0       ??_C@_0MC@PNLEEHJ@Unable?5to?5open?5global?5configurat@ 007799b0     Documents.obj
 0003:00012a98       ??_C@_0BM@JNMANDHG@?2VCL_Dialog?2file_dialog?4pth?$AA@ 00779a98     Documents.obj
 0003:00012abc       ??_C@_07IHALICFI@Infobox?$AA@ 00779abc     Documents.obj
 0003:00012ac8       ??_C@_0CF@PHCHCPBJ@?D?h?$OA?k?n?c?n?b?n?e?5?n?j?m?n?5?$KL?T?$OA?i?k?$LL?5?s?f?e?5?g?$OA?o?s?y@ 00779ac8     Documents.obj
 0003:00012af4       ??_C@_0BN@GPBEHAGK@File?5dialog?5already?5running?$CB?$AA@ 00779af4     Documents.obj
 0003:00012b18       ??_C@_0M@LICDJACB@File?5dialog?$AA@ 00779b18     Documents.obj
 0003:00012b28       ??_C@_0BM@NJICKMBH@?2VCL_Dialog?2VCL_Dialogs?4exe?$AA@ 00779b28     Documents.obj
 0003:00012b4c       ??_C@_07PDEAFKMC@grp_exp?$AA@ 00779b4c     Documents.obj
 0003:00012b58       ??_C@_03JHEBFAPG@sav?$AA@  00779b58     Documents.obj
 0003:00012b5c       ??_C@_07NFOHKBLP@net_exp?$AA@ 00779b5c     Documents.obj
 0003:00012b68       ??_C@_07PFJAIPGC@cds_exp?$AA@ 00779b68     Documents.obj
 0003:00012b74       ??_C@_07KOLPAODJ@doc_imp?$AA@ 00779b74     Documents.obj
 0003:00012b80       ??_C@_03GHKEPEMO@doc?$AA@  00779b80     Documents.obj
 0003:00012b84       ??_C@_07JNOAAIKD@pag_imp?$AA@ 00779b84     Documents.obj
 0003:00012b90       ??_C@_03PIIDALFN@pas?$AA@  00779b90     Documents.obj
 0003:00012b94       ??_C@_07DFJOAENC@pic_imp?$AA@ 00779b94     Documents.obj
 0003:00012ba0       ??_C@_03PCCGDNHJ@img?$AA@  00779ba0     Documents.obj
 0003:00012ba4       ??_C@_07IFNMHPJM@net_imp?$AA@ 00779ba4     Documents.obj
 0003:00012bb0       ??_C@_07KFKLFBEB@cds_imp?$AA@ 00779bb0     Documents.obj
 0003:00012bc0       ??_C@_0EH@BAKHIPBF@?$NN?r?n?r?5?t?n?p?l?$OA?r?5?m?e?5?o?n?d?d?e?p?f?h?b?$OA?e?r?q?$PP?4?5?O@ 00779bc0     Documents.obj
 0003:00012c18       ??_C@_0EA@PBCCCJIA@This?5format?5is?5not?5supported?4?5CD@ 00779c18     Documents.obj
 0003:00012c64       ??_C@_03LBBPPMLL@CDS?$AA@  00779c64     Documents.obj
 0003:00012c68       ??_C@_03PJJGGPMI@JPG?$AA@  00779c68     Documents.obj
 0003:00012c6c       ??_C@_03NMNPLJKI@PEG?$AA@  00779c6c     Documents.obj
 0003:00012c70       ??_C@_03CNFPPDJC@BMP?$AA@  00779c70     Documents.obj
 0003:00012c78       ??_C@_0BAK@LBGDLBPJ@?B?$OA?f?m?n?e?5?q?n?n?a?y?e?m?h?e?5?q?n?5?q?r?p?$OA?m?h?v?$PL?5?$CFd?3@ 00779c78     Documents.obj
 0003:00012db8       ??_C@_0BAJ@KFMIHGIE@Important?5message?5from?5page?5?$CFd?3?6@ 00779db8     Documents.obj
 0003:00012ef8       ??_C@_0FG@KPEDNBDE@?O?p?h?m?v?h?o?h?$OA?k?$PM?m?$OA?$PP?5?q?u?e?l?$OA?5?m?$OA?5?q?r?p?$OA?m?h?v?e@ 00779ef8     Documents.obj
 0003:00012f60       ??_C@_0EP@ODOELKIC@The?5schematic?5diagram?5on?5page?5?$CFd@ 00779f60     Documents.obj
 0003:00012fc0       ??_C@_09EHKDLPGK@Protected?$AA@ 00779fc0     Documents.obj
 0003:00012fcc       ??_C@_0BM@EEODFPEC@?2related_files?2CDS_netlist?2?$AA@ 00779fcc     Documents.obj
 0003:00012ff0       ??_C@_0BBK@JMBNBJAN@?$NN?r?n?r?5?o?p?n?e?j?r?5?a?$PL?k?5?h?g?l?e?m?e?m?5?b?5?d?p?s?c?n?i@ 00779ff0     Documents.obj
 0003:00013148       ??_C@_0PA@DCGPLGGP@This?5project?5has?5been?5changed?5in@ 0077a148     Documents.obj
 0003:00013268       ??_C@_08KHGJPCJB@?2Backups?$AA@ 0077a268     Documents.obj
 0003:00013278       ??_C@_0FM@CHBMJOGK@The?5project?5file?5has?5been?5rename@ 0077a278     Documents.obj
 0003:000132e8       ??_C@_08NCJIEHD@Complete?$AA@ 0077a2e8     Documents.obj
 0003:000132f4       ??_C@_0BB@KKFLKIDG@Reading?5graphics?$AA@ 0077a2f4     Documents.obj
 0003:00013308       ??_C@_0BJ@KKDDCKPL@Reading?5footprint?5folder?$AA@ 0077a308     Documents.obj
 0003:00013328       ??_C@_0CP@BPFFIDMH@Reading?5project?5file?5failed?3?5Can@ 0077a328     Documents.obj
 0003:00013360       ??_C@_0EI@OJEJJFHN@?6?6Errors?5may?5occur?6?6Click?5on?5OK?5@ 0077a360     Documents.obj
 0003:000133b8       ??_C@_0FA@IAKIBGCA@?B?m?h?l?$OA?m?h?e?3?5?b?e?p?q?h?$PP?5?t?$OA?i?k?$OA?5?$CF5?43f?6?6?B?$PL@ 0077a3b8     Documents.obj
 0003:00013418       ??_C@_0FG@NOKCAOML@Warning?3?5the?5file?5version?5is?5?$CF5?4@ 0077a418     Documents.obj
 0003:00013480       ??_C@_0BA@DACDBJMC@Reading?5options?$AA@ 0077a480     Documents.obj
 0003:00013494       ??_C@_0BL@OLCKOFNP@?M?e?b?n?g?l?n?f?m?n?5?n?r?j?p?$PL?r?$PM?5?t?$OA?i?k?5?$CFs?$AA@ 0077a494     Documents.obj
 0003:000134b4       ??_C@_0BH@CJLNCLJP@Unable?5to?5open?5file?5?$CFs?$AA@ 0077a4b4     Documents.obj
 0003:000134d0       ??_C@_06FLBEPIPH@Page?51?$AA@ 0077a4d0     Documents.obj
 0003:000134d8       ??_C@_0BP@OLIBLAKA@?O?p?n?e?j?r?5?h?g?l?e?m?e?m?0?5?q?n?u?p?$OA?m?h?r?$PM?5?e?c?n?$DP?$AA@ 0077a4d8     Documents.obj
 0003:00013500       ??_C@_0BL@IOLPEFMC@Project?5modified?0?5save?5it?$DP?$AA@ 0077a500     Documents.obj
 0003:00013520       ??_C@_0CN@CJGEDGKL@?M?e?b?n?g?l?n?f?m?n?5?q?n?u?p?$OA?m?h?r?$PM?5?t?$OA?i?k?4?5?G?$OA?y?h?r@ 0077a520     Documents.obj
 0003:00013558       ??_C@_0CH@PHNNJKMM@Unable?5to?5save?5file?4?5Write?5prote@ 0077a558     Documents.obj
 0003:00013588       ??_C@_06HANNPLLH@?$CFd?4cds?$AA@ 0077a588     Documents.obj
 0003:00013590       ??_C@_07NFOKINN@0?$CFd?4cds?$AA@ 0077a590     Documents.obj
 0003:0001359c       ??_C@_07CPPNCGJN@?2?$DP?$DP?4cds?$AA@ 0077a59c     Documents.obj
 0003:000135a8       ??_C@_0CN@KIKFPEKG@?M?e?b?n?g?l?n?f?m?n?5?n?r?j?p?$PL?r?$PM?5?o?$OA?o?j?s?5?$OA?b?r?n?q?n?u@ 0077a5a8     Documents.obj
 0003:000135e0       ??_C@_0CE@LDHCIOKG@Unable?5to?5open?5autosave?5folder?5?$CC@ 0077a5e0     Documents.obj
 0003:0001360c       ??_C@_0CN@IBDHNNIP@?M?e?5?s?d?$OA?k?n?q?$PM?5?q?n?g?d?$OA?r?$PM?5?o?$OA?o?j?s?5?$OA?b?r?n?q?n?u@ 0077a60c     Documents.obj
 0003:00013644       ??_C@_0CG@HMBBENF@Unable?5to?5create?5autosave?5folder@ 0077a644     Documents.obj
 0003:00013674       ??_C@_09GJPLBDB@?2Autosave?$AA@ 0077a674     Documents.obj
 0003:00013680       ??_C@_06BHLFPPDE@?$FLend?$FN?6?$AA@ 0077a680     Documents.obj
 0003:00013688       ??_C@_0FC@GHNEMMAD@Warning?$CB?5The?5design?5of?5the?5circu@ 0077a688     Documents.obj
 0003:000136f0       ??_C@_0HJ@EEEJJEIF@?6?6?Q?n?u?p?$OA?m?e?m?h?e?5?t?$OA?i?k?$OA?5?n?r?j?k?n?m?e?m?n?4?5?Q?m@ 0077a6f0     Documents.obj
 0003:00013788       ??_C@_0FM@GKMNIIOH@?6?6File?5save?5rejected?4?5First?0?5sav@ 0077a788     Documents.obj
 0003:000137f8       ??_C@_0EK@JJKOEOJE@?N?a?m?n?b?k?$LI?m?m?$PL?i?5?m?e?r?k?h?q?r?5?g?$OA?c?p?s?f?$OA?k?h?5?b?5@ 0077a7f8     Documents.obj
 0003:00013850       ??_C@_0BI@JLGGOOHB@?2related_files?2pictures?$AA@ 0077a850     Documents.obj
 0003:0001386c       ??_C@_07IGFOJPO@?2backup?$AA@ 0077a86c     Documents.obj
 0003:00013878       ??_C@_06GOAOMJJE@?$CFs?4cds?$AA@ 0077a878     Documents.obj
 0003:00013880       ??_C@_0CC@GHJHFHIJ@CFreePcbDoc?3?3WriteOutlinesPoly?$CI?$CJ@ 0077a880     Documents.obj
 0003:000138a8       ??_C@_0BJ@EGBKFBMP@File?5error?3?5?$CFd?5?$CFld?5?$CI?$CFs?$CJ?6?$AA@ 0077a8a8     Documents.obj
 0003:000138c8       ??_C@_0BA@MOIJPNKF@File?5error?3?5?$CFd?6?$AA@ 0077a8c8     Documents.obj
 0003:000138dc       ??_C@_0CF@MLHGILEO@outline?3?5?$CFd?5?$CFd?5?$CFd?5?$CFd?5?$CFd?5?$CFd?5?$CFd?5?$CFd@ 0077a8dc     Documents.obj
 0003:00013908       ??_C@_0CG@EAHAFJJA@polyline?3?5?$CFd?5?$CFd?5?$CFd?5?$CFd?5?$CFd?5?$CFd?5?$CFd?5?$CF@ 0077a908     Documents.obj
 0003:00013938       ??_C@_0BL@IBGJLJON@?M?e?b?e?p?m?n?e?5?j?n?k?h?w?e?q?r?b?n?5?b?e?p?x?h?m?$AA@ 0077a938     Documents.obj
 0003:00013958       ??_C@_0BK@CHBABBKB@Invalid?5number?5of?5corners?$AA@ 0077a958     Documents.obj
 0003:00013978       ??_C@_09JFLEKMHK@part_end?6?$AA@ 0077a978     Documents.obj
 0003:00013984       ??_C@_0CO@KFMHJAEB@net_name?3?5?$CC?$CFs?$CC?5?$CFd?5?$CFd?5?$CFd?5?$CFd?5?$CFd?5?$CFd@ 0077a984     Documents.obj
 0003:000139bc       ??_C@_0CO@EJKNHMGG@pin_name?3?5?$CC?$CFs?$CC?5?$CFd?5?$CFd?5?$CFd?5?$CFd?5?$CFd?5?$CFd@ 0077a9bc     Documents.obj
 0003:000139f4       ??_C@_0CC@DNACHDNH@outline?3?5?$CFd?5?$CFd?5?$CFd?5?$CFd?5?$CFd?5?$CFd?5?$CFd?5?$CFd@ 0077a9f4     Documents.obj
 0003:00013a1c       ??_C@_0DA@OPDLEICC@part_value?3?5?$CC?$CFs?$CC?5?$CFd?5?$CFd?5?$CFd?5?$CFd?5?$CFd?5@ 0077aa1c     Documents.obj
 0003:00013a58       ??_C@_0DE@MJLEHELJ@footprint_name?3?5?$CC?$CFs?$CC?5?$CFd?5?$CFd?5?$CFd?5?$CFd@ 0077aa58     Documents.obj
 0003:00013a98       ??_C@_0CN@EKIGLNPC@ref_des?3?5?$CC?$CFs?$CC?5?$CFd?5?$CFd?5?$CFd?5?$CFd?5?$CFd?5?$CFd?5@ 0077aa98     Documents.obj
 0003:00013ad0       ??_C@_0BI@DAEPAKMG@rectangle?3?5?$CFd?5?$CFd?5?$CFd?5?$CFd?6?$AA@ 0077aad0     Documents.obj
 0003:00013aec       ??_C@_0M@PGJKLKIJ@n_pins?3?5?$CFd?6?$AA@ 0077aaec     Documents.obj
 0003:00013afc       ??_C@_0BA@BDBOGPLM@bmp_src?3?5?$CC?$CFs?$CC?$AN?6?$AA@ 0077aafc     Documents.obj
 0003:00013b10       ??_C@_0BF@BCDJICKI@add_new_page?3?5?$CC?$CFs?$CC?$AN?6?$AA@ 0077ab10     Documents.obj
 0003:00013b2c       ??_C@_0BE@NGNOFBDM@rename_page?3?5?$CC?$CFs?$CC?$AN?6?$AA@ 0077ab2c     Documents.obj
 0003:00013b44       ??_C@_0N@MJOHBMHB@?$FLgraphics?$FN?6?6?$AA@ 0077ab44     Documents.obj
 0003:00013b54       ??_C@_0BN@BKHDGJMF@CFreePcbDoc?3?3ReadGraphics?$CI?$CJ?6?$AA@ 0077ab54     Documents.obj
 0003:00013b78       ??_C@_08CLBOGKDG@view_all?$AA@ 0077ab78     Documents.obj
 0003:00013b84       ??_C@_02DPGNLHGP@NM?$AA@   0077ab84     Documents.obj
 0003:00013b88       ??_C@_05CCBEFJDC@units?$AA@ 0077ab88     Documents.obj
 0003:00013b90       ??_C@_0P@BHPACGAB@close_polyline?$AA@ 0077ab90     Documents.obj
 0003:00013ba4       ??_C@_0M@OIBPMAPE@next_corner?$AA@ 0077aba4     Documents.obj
 0003:00013bb4       ??_C@_0BB@PEKFHNBF@outline_polyline?$AA@ 0077abb4     Documents.obj
 0003:00013bc8       ??_C@_0BA@JPJMCKHC@outline_polygon?$AA@ 0077abc8     Documents.obj
 0003:00013bdc       ??_C@_08OLDDBBNG@part_end?$AA@ 0077abdc     Documents.obj
 0003:00013be8       ??_C@_0BA@DNKDCKLP@footprint_name?3?$AA@ 0077abe8     Documents.obj
 0003:00013bfc       ??_C@_0M@MFEJPDDE@part_value?3?$AA@ 0077abfc     Documents.obj
 0003:00013c0c       ??_C@_09MHNKJCO@net_name?3?$AA@ 0077ac0c     Documents.obj
 0003:00013c18       ??_C@_09DOFFMGIC@pin_name?3?$AA@ 0077ac18     Documents.obj
 0003:00013c24       ??_C@_08FJECLDOM@ref_des?3?$AA@ 0077ac24     Documents.obj
 0003:00013c30       ??_C@_05HKGIJGOH@name?3?$AA@ 0077ac30     Documents.obj
 0003:00013c38       ??_C@_06CKJBOKFG@corner?$AA@ 0077ac38     Documents.obj
 0003:00013c40       ??_C@_0BP@NCAAIDEN@unexpected?5EOF?5in?5project?5file?$AA@ 0077ac40     Documents.obj
 0003:00013c68       ??_C@_0DB@DMNLDGOC@error?5parsing?5?$FLgraphics?$FN?5section@ 0077ac68     Documents.obj
 0003:00013ca4       ??_C@_07PNNKHJNH@outline?$AA@ 0077aca4     Documents.obj
 0003:00013cb0       ??_C@_0M@KJAMODEB@rename_page?$AA@ 0077acb0     Documents.obj
 0003:00013cc0       ??_C@_0BJ@DBJHDFBM@?2related_files?2pictures?2?$AA@ 0077acc0     Documents.obj
 0003:00013ce0       ??_C@_0CJ@JNFLMOMC@?M?e?5?s?d?$OA?k?n?q?$PM?5?m?$OA?i?r?h?5?$FL?j?n?m?e?v?$FN?5?p?$OA?g?d?e?k?$OA@ 0077ace0     Documents.obj
 0003:00013d14       ??_C@_0CF@LLPICMJM@Unable?5to?5find?5?$FLend?$FN?5section?5in?5@ 0077ad14     Documents.obj
 0003:00013d40       ??_C@_0N@PEIJFCGK@?$FLfootprints?$FN?$AA@ 0077ad40     Documents.obj
 0003:00013d50       ??_C@_0L@NCBEKFNB@?$FLgraphics?$FN?$AA@ 0077ad50     Documents.obj
 0003:00013d60       ??_C@_0BN@KJIHECLG@CFreePcbDoc?3?3WriteOptions?$CI?$CJ?6?$AA@ 0077ad60     Documents.obj
 0003:00013d84       ??_C@_08ENBOCFBO@ref_list?$AA@ 0077ad84     Documents.obj
 0003:00013d90       ??_C@_05DPKBJALF@merge?$AA@ 0077ad90     Documents.obj
 0003:00013d98       ??_C@_0N@HCKOKKEJ@m_pdf_font_i?$AA@ 0077ad98     Documents.obj
 0003:00013da8       ??_C@_0N@MCLIBCNE@m_pdf_margin?$AA@ 0077ada8     Documents.obj
 0003:00013db8       ??_C@_0N@GAGCOOHG@pdf_checking?$AA@ 0077adb8     Documents.obj
 0003:00013dc8       ??_C@_0N@NBNJDBFI@m_bom_colors?$AA@ 0077adc8     Documents.obj
 0003:00013dd8       ??_C@_0P@JMNDHIEO@pdf_layer_info?$AA@ 0077add8     Documents.obj
 0003:00013dec       ??_C@_0L@FDFDNACF@layer_info?$AA@ 0077adec     Documents.obj
 0003:00013dfc       ??_C@_0BH@CHFDECLH@default_polyline_width?$AA@ 0077adfc     Documents.obj
 0003:00013e18       ??_C@_0BB@FCMMJD@pin_attr_to_poly?$AA@ 0077ae18     Documents.obj
 0003:00013e2c       ??_C@_0BF@HNLHGIKJ@drc_pin_attr_to_attr?$AA@ 0077ae2c     Documents.obj
 0003:00013e48       ??_C@_0BG@OIJLBIEF@drc_part_attr_to_poly?$AA@ 0077ae48     Documents.obj
 0003:00013e64       ??_C@_0BG@MDMCFNOK@drc_part_attr_to_attr?$AA@ 0077ae64     Documents.obj
 0003:00013e80       ??_C@_0BD@PBLMOPFK@drc_check_unrouted?$AA@ 0077ae80     Documents.obj
 0003:00013e98       ??_C@_0P@FOJBKKHG@report_options?$AA@ 0077ae98     Documents.obj
 0003:00013eac       ??_C@_09JPOHJGEH@cam_units?$AA@ 0077aeac     Documents.obj
 0003:00013eb8       ??_C@_0L@GGKCLPBH@cam_layers?$AA@ 0077aeb8     Documents.obj
 0003:00013ec8       ??_C@_09LLLBIANE@cam_flags?$AA@ 0077aec8     Documents.obj
 0003:00013ed4       ??_C@_0BA@DHOBACLD@highlight_width?$AA@ 0077aed4     Documents.obj
 0003:00013ee8       ??_C@_0BG@PMEJHNHG@min_text_stroke_width?$AA@ 0077aee8     Documents.obj
 0003:00013f04       ??_C@_0M@JJBGGPDJ@text_height?$AA@ 0077af04     Documents.obj
 0003:00013f14       ??_C@_0P@LPAFOKGL@polyline_width?$AA@ 0077af14     Documents.obj
 0003:00013f28       ??_C@_0P@PJBKIIED@letter_spacing?$AA@ 0077af28     Documents.obj
 0003:00013f3c       ??_C@_0BG@JLGDEDCP@unconnected_pin_layer?$AA@ 0077af3c     Documents.obj
 0003:00013f58       ??_C@_0BA@HMAFLAKC@magnetize_value?$AA@ 0077af58     Documents.obj
 0003:00013f6c       ??_C@_0BA@JFBHLDLM@m_seg_clearance?$AA@ 0077af6c     Documents.obj
 0003:00013f80       ??_C@_0L@BEFPKEME@snap_angle?$AA@ 0077af80     Documents.obj
 0003:00013f90       ??_C@_0P@MOFEDNNL@text_grid_item?$AA@ 0077af90     Documents.obj
 0003:00013fa4       ??_C@_0BC@JEHMFBAI@text_grid_spacing?$AA@ 0077afa4     Documents.obj
 0003:00013fbc       ??_C@_0BE@BPNJKHFP@placement_grid_item?$AA@ 0077afbc     Documents.obj
 0003:00013fd4       ??_C@_0BG@CBCOELGC@polyline_grid_spacing?$AA@ 0077afd4     Documents.obj
 0003:00013ff0       ??_C@_0BC@GDNHCHNI@visible_grid_item?$AA@ 0077aff0     Documents.obj
 0003:00014008       ??_C@_0BF@FCKGMHLN@visible_grid_spacing?$AA@ 0077b008     Documents.obj
 0003:00014024       ??_C@_0L@JFEKMCGK@m_sel_mask?$AA@ 0077b024     Documents.obj
 0003:00014034       ??_C@_0BB@NIGCGKII@m_visible_layers?$AA@ 0077b034     Documents.obj
 0003:00014048       ??_C@_0M@ECGCHCLI@m_top_layer?$AA@ 0077b048     Documents.obj
 0003:00014058       ??_C@_0N@MDIAGLAO@m_grid_style?$AA@ 0077b058     Documents.obj
 0003:00014068       ??_C@_0BA@HGOGIGBE@m_system_colors?$AA@ 0077b068     Documents.obj
 0003:0001407c       ??_C@_0O@KFLHAFGO@m_arrow_scale?$AA@ 0077b07c     Documents.obj
 0003:0001408c       ??_C@_0BA@PMIADEN@m_measure_scale?$AA@ 0077b08c     Documents.obj
 0003:000140a0       ??_C@_0N@MBFFICGA@m_user_scale?$AA@ 0077b0a0     Documents.obj
 0003:000140b0       ??_C@_0P@DAIBJKLG@m_scale_factor?$AA@ 0077b0b0     Documents.obj
 0003:000140c4       ??_C@_0M@FNHODELL@m_attr_size?$AA@ 0077b0c4     Documents.obj
 0003:000140d4       ??_C@_07EBPCGGAK@m_org_y?$AA@ 0077b0d4     Documents.obj
 0003:000140e0       ??_C@_07FIOJFHEL@m_org_x?$AA@ 0077b0e0     Documents.obj
 0003:000140ec       ??_C@_0BC@JPNCICMC@netlist_completed?$AA@ 0077b0ec     Documents.obj
 0003:00014104       ??_C@_0BC@MCKCGFAG@autosave_interval?$AA@ 0077b104     Documents.obj
 0003:0001411c       ??_C@_0BE@EBNLEMJ@n_additional_layers?$AA@ 0077b11c     Documents.obj
 0003:00014134       ??_C@_0BD@OGEBDBHN@default_node_width?$AA@ 0077b134     Documents.obj
 0003:0001414c       ??_C@_0P@GCLPLKKB@partlist_col_w?$AA@ 0077b14c     Documents.obj
 0003:00014160       ??_C@_0P@HBAEKAND@partlist_pos_y?$AA@ 0077b160     Documents.obj
 0003:00014174       ??_C@_0P@GIBPJBJC@partlist_pos_x?$AA@ 0077b174     Documents.obj
 0003:00014188       ??_C@_0BA@KIKBPMBH@partlist_size_y?$AA@ 0077b188     Documents.obj
 0003:0001419c       ??_C@_0BA@LBLKMNFG@partlist_size_x?$AA@ 0077b19c     Documents.obj
 0003:000141b0       ??_C@_0O@LIJFFGOB@special_chars?$AA@ 0077b1b0     Documents.obj
 0003:000141c0       ??_C@_0P@JKKKAIBG@find_component?$AA@ 0077b1c0     Documents.obj
 0003:000141d4       ??_C@_09EPAMMDLD@alignment?$AA@ 0077b1d4     Documents.obj
 0003:000141e0       ??_C@_0N@BFGJJAEF@parent_index?$AA@ 0077b1e0     Documents.obj
 0003:000141f0       ??_C@_0M@LLANPOBF@page_number?$AA@ 0077b1f0     Documents.obj
 0003:00014200       ??_C@_0BB@DGNJGALL@page_mirror_mask?$AA@ 0077b200     Documents.obj
 0003:00014214       ??_C@_0P@JGHINHAA@netlist_format?$AA@ 0077b214     Documents.obj
 0003:00014228       ??_C@_08KLNNPGOJ@pcb_name?$AA@ 0077b228     Documents.obj
 0003:00014234       ??_C@_0M@MOLBLLAD@bom_options?$AA@ 0077b234     Documents.obj
 0003:00014244       ??_C@_0L@KDCGHEKO@CAM_folder?$AA@ 0077b244     Documents.obj
 0003:00014254       ??_C@_01OGPIMHDM@?$DP?$AA@ 0077b254     Documents.obj
 0003:00014258       ??_C@_0BE@NMBMEMDD@full_library_folder?$AA@ 0077b258     Documents.obj
 0003:00014270       ??_C@_0P@LCAFLEEG@library_folder?$AA@ 0077b270     Documents.obj
 0003:00014284       ??_C@_0O@LKIMHIDA@parent_folder?$AA@ 0077b284     Documents.obj
 0003:00014294       ??_C@_0N@JOHPBADG@file_version?$AA@ 0077b294     Documents.obj
 0003:000142a4       ??_C@_07CPCPJPKL@version?$AA@ 0077b2a4     Documents.obj
 0003:000142b0       ??_C@_0L@CFJJIMDL@app_folder?$AA@ 0077b2b0     Documents.obj
 0003:000142c0       ??_C@_0N@NHJFJPKH@project_name?$AA@ 0077b2c0     Documents.obj
 0003:000142d0       ??_C@_09NMOOAKMF@?$FLoptions?$FN?$AA@ 0077b2d0     Documents.obj
 0003:000142dc       ??_C@_0CK@FKDPKEFJ@?M?e?5?s?d?$OA?k?n?q?$PM?5?m?$OA?i?r?h?5?p?$OA?g?d?e?k?5?$FLoptions@ 0077b2dc     Documents.obj
 0003:00014310       ??_C@_0CJ@IOIGKAAF@Unable?5to?5find?5?$FLoptions?$FN?5section@ 0077b310     Documents.obj
 0003:00014348       __real@3ff4cccccccccccd    0077b348     Documents.obj
 0003:00014354       ??_C@_0BA@BDGCDGD@default_cds?4cfg?$AA@ 0077b354     Documents.obj
 0003:00014368       ??_C@_0CC@CCFIBKLK@CFreePcbDoc?3?3WriteBoardOutline?$CI?$CJ@ 0077b368     Documents.obj
 0003:00014390       ??_C@_0BC@ODCNDNB@?5?5ref_list?3?5?$CC?$CFs?$CC?6?$AA@ 0077b390     Documents.obj
 0003:000143a8       ??_C@_0P@DHHLCMKA@?5?5merge?3?5?$CC?$CFs?$CC?6?$AA@ 0077b3a8     Documents.obj
 0003:000143bc       ??_C@_03EBJOKFHF@?5?$CFd?$AA@ 0077b3bc     Documents.obj
 0003:000143c0       ??_C@_0O@EAMINOIO@m_bom_colors?3?$AA@ 0077b3c0     Documents.obj
 0003:000143d0       ??_C@_0CH@FJDJACEG@?5?5pdf_layer_info?3?5?$CC?$CFs?$CC?5?$CFd?5?$CFd?5?$CFd?5@ 0077b3d0     Documents.obj
 0003:00014400       ??_C@_0CD@DAGLIIAM@?5?5layer_info?3?5?$CC?$CFs?$CC?5?$CFd?5?$CFd?5?$CFd?5?$CFd?5?$CF@ 0077b400     Documents.obj
 0003:0001442c       ??_C@_0BC@CIGBIIDI@pdf_checking?3?5?$CFd?6?$AA@ 0077b42c     Documents.obj
 0003:00014444       ??_C@_0P@KKJFPHAP@m_pdf_margin?3?5?$AA@ 0077b444     Documents.obj
 0003:00014458       ??_C@_0P@KLMAIIPA@m_pdf_font_i?3?5?$AA@ 0077b458     Documents.obj
 0003:0001446c       ??_C@_0BJ@EAHKHJPF@n_additional_layers?3?5?$CFd?6?$AA@ 0077b46c     Documents.obj
 0003:0001448c       ??_C@_0BI@HAILKLBE@default_polyline_width?3?$AA@ 0077b48c     Documents.obj
 0003:000144a8       ??_C@_0BK@NEHIFKIO@drc_pin_attr_to_poly?3?5?$CFd?6?$AA@ 0077b4a8     Documents.obj
 0003:000144c8       ??_C@_0BK@JPNIBCJA@drc_pin_attr_to_attr?3?5?$CFd?6?$AA@ 0077b4c8     Documents.obj
 0003:000144e8       ??_C@_0BL@CEKCFJAJ@drc_part_attr_to_poly?3?5?$CFd?6?$AA@ 0077b4e8     Documents.obj
 0003:00014508       ??_C@_0BL@GPACBBBH@drc_part_attr_to_attr?3?5?$CFd?6?$AA@ 0077b508     Documents.obj
 0003:00014528       ??_C@_0BI@HLKBIODJ@drc_check_unrouted?3?5?$CFd?6?$AA@ 0077b528     Documents.obj
 0003:00014544       ??_C@_0BE@MKFAJBKG@report_options?3?5?$CFd?6?$AA@ 0077b544     Documents.obj
 0003:0001455c       ??_C@_0P@GOHBLFGE@cam_units?3?5?$CFd?6?$AA@ 0077b55c     Documents.obj
 0003:00014570       ??_C@_0BA@DIHHIPME@cam_layers?3?5?$CFd?6?$AA@ 0077b570     Documents.obj
 0003:00014584       ??_C@_0P@BEHMFDED@cam_flags?3?5?$CFd?6?$AA@ 0077b584     Documents.obj
 0003:00014598       ??_C@_0BF@IDLEHPFJ@highlight_width?3?5?$CFd?6?$AA@ 0077b598     Documents.obj
 0003:000145b4       ??_C@_0BL@GOHIKKGF@min_text_stroke_width?3?5?$CFd?6?$AA@ 0077b5b4     Documents.obj
 0003:000145d4       ??_C@_0BB@DBKBAMIG@text_height?3?5?$CFd?6?$AA@ 0077b5d4     Documents.obj
 0003:000145e8       ??_C@_0BE@HEELEICJ@polyline_width?3?5?$CFd?6?$AA@ 0077b5e8     Documents.obj
 0003:00014600       ??_C@_0BH@FKADEDEH@letter_spacing?3?5?$CF5?43f?6?$AA@ 0077b600     Documents.obj
 0003:0001461c       ??_C@_0BF@NECJKJMI@magnetize_value?3?5?$CFd?6?$AA@ 0077b61c     Documents.obj
 0003:00014638       ??_C@_0BL@FEOJLGBL@unconnected_pin_layer?3?5?$CFd?6?$AA@ 0077b638     Documents.obj
 0003:00014658       ??_C@_0BF@IJFCBAHO@m_seg_clearance?3?5?$CFd?6?$AA@ 0077b658     Documents.obj
 0003:00014674       ??_C@_0BA@NBCPKBCE@snap_angle?3?5?$CFd?6?$AA@ 0077b674     Documents.obj
 0003:00014688       ??_C@_0BD@OOPJCMID@?5?5text_grid_item?3?5?$AA@ 0077b688     Documents.obj
 0003:000146a0       ??_C@_0BH@EOHOPGPH@text_grid_spacing?3?5?$CFf?6?$AA@ 0077b6a0     Documents.obj
 0003:000146bc       ??_C@_0BI@DODCKFMP@?5?5placement_grid_item?3?5?$AA@ 0077b6bc     Documents.obj
 0003:000146d8       ??_C@_0BL@FENCIOMD@polyline_grid_spacing?3?5?$CFf?6?$AA@ 0077b6d8     Documents.obj
 0003:000146f8       ??_C@_0BG@OIDIEADJ@?5?5visible_grid_item?3?5?$AA@ 0077b6f8     Documents.obj
 0003:00014714       ??_C@_0BK@BDMMAPMF@visible_grid_spacing?3?5?$CFf?6?$AA@ 0077b714     Documents.obj
 0003:00014734       ??_C@_0BC@BEAIIONL@m_grid_style?3?5?$CFd?6?$AA@ 0077b734     Documents.obj
 0003:0001474c       ??_C@_0BB@COGAMGLO@m_top_layer?3?5?$CFd?6?$AA@ 0077b74c     Documents.obj
 0003:00014760       ??_C@_0BG@JBECGDNI@m_visible_layers?3?5?$CFd?6?$AA@ 0077b760     Documents.obj
 0003:0001477c       ??_C@_0BA@DIAAOAJN@m_sel_mask?3?5?$CFd?6?$AA@ 0077b77c     Documents.obj
 0003:00014790       ??_C@_0M@KNNJNHDE@units?3?5MM?6?6?$AA@ 0077b790     Documents.obj
 0003:000147a0       ??_C@_0N@JAAJGEMJ@units?3?5MIL?6?6?$AA@ 0077b7a0     Documents.obj
 0003:000147b0       ??_C@_0BF@HPMBGPKH@m_user_scale?3?5?$CF?410f?6?$AA@ 0077b7b0     Documents.obj
 0003:000147cc       ??_C@_0BD@EEEAEGJC@m_arrow_scale?3?5?$CFd?6?$AA@ 0077b7cc     Documents.obj
 0003:000147e4       ??_C@_0BF@OMAPDHJE@m_measure_scale?3?5?$CFd?6?$AA@ 0077b7e4     Documents.obj
 0003:00014800       ??_C@_0BF@MPKFHFHC@m_system_colors?3?5?$CFd?6?$AA@ 0077b800     Documents.obj
 0003:0001481c       ??_C@_0DC@HJBFMOJC@m_attr_size?3?5?$CFd?5?$CFd?5?$CFd?5?$CFd?5?$CFd?5?$CFd?5?$CF@ 0077b81c     Documents.obj
 0003:00014858       ??_C@_0BE@DEDGGEIF@m_scale_factor?3?5?$CFd?6?$AA@ 0077b858     Documents.obj
 0003:00014870       ??_C@_0N@ENCCLGDB@m_org_y?3?5?$CFd?6?$AA@ 0077b870     Documents.obj
 0003:00014880       ??_C@_0N@OLFFLNIF@m_org_x?3?5?$CFd?6?$AA@ 0077b880     Documents.obj
 0003:00014890       ??_C@_0BH@FAFNDKMO@m_client_rect_top?3?5?$CFd?6?$AA@ 0077b890     Documents.obj
 0003:000148ac       ??_C@_0BK@EPKNBJNO@m_client_rect_bottom?3?5?$CFd?6?$AA@ 0077b8ac     Documents.obj
 0003:000148cc       ??_C@_0BJ@GMHFKFFF@m_client_rect_right?3?5?$CFd?6?$AA@ 0077b8cc     Documents.obj
 0003:000148ec       ??_C@_0BI@ICJIFAPC@m_client_rect_left?3?5?$CFd?6?$AA@ 0077b8ec     Documents.obj
 0003:00014908       ??_C@_0BH@OGHFBBOG@autosave_interval?3?5?$CFd?6?$AA@ 0077b908     Documents.obj
 0003:00014924       ??_C@_0BI@HGFENHJC@default_node_width?3?5?$CFd?6?$AA@ 0077b924     Documents.obj
 0003:00014940       ??_C@_0BC@JAMOGAKM@default_font?3?5?$CFd?6?$AA@ 0077b940     Documents.obj
 0003:00014958       ??_C@_0BG@BBIIIOHJ@page_mirror_mask?3?5?$CFd?6?$AA@ 0077b958     Documents.obj
 0003:00014974       ??_C@_0BE@IAIHEKOB@netlist_format?3?5?$CFd?6?$AA@ 0077b974     Documents.obj
 0003:0001498c       ??_C@_0BD@BKFODLFI@pcb_name?3?5?$CC?$CFs?$CC?5?$CFd?6?$AA@ 0077b98c     Documents.obj
 0003:000149a4       ??_C@_0BJ@BNJBIHGL@netlist_file_path?3?5?$CC?$CFs?$CC?6?$AA@ 0077b9a4     Documents.obj
 0003:000149c4       ??_C@_0BH@GAONCJOE@netlist_file_path?3?5?$CC?$CC?6?$AA@ 0077b9c4     Documents.obj
 0003:000149e0       ??_C@_0BF@JOHJIPEK@special_chars?3?5?$CC?$CFs?$CC?6?$AA@ 0077b9e0     Documents.obj
 0003:000149fc       ??_C@_0BG@CAGOKKHI@find_component?3?5?$CC?$CFs?$CC?6?$AA@ 0077b9fc     Documents.obj
 0003:00014a18       ??_C@_0BG@LEKCCALE@partlist_col_w?3?5?$CC?$CFd?$CC?6?$AA@ 0077ba18     Documents.obj
 0003:00014a34       ??_C@_0BG@EIKDABDP@partlist_pos_y?3?5?$CC?$CFd?$CC?6?$AA@ 0077ba34     Documents.obj
 0003:00014a50       ??_C@_0BG@FPNIBFHM@partlist_pos_x?3?5?$CC?$CFd?$CC?6?$AA@ 0077ba50     Documents.obj
 0003:00014a6c       ??_C@_0BH@OICGJENO@partlist_size_y?3?5?$CC?$CFd?$CC?6?$AA@ 0077ba6c     Documents.obj
 0003:00014a88       ??_C@_0BH@PPFNIAJN@partlist_size_x?3?5?$CC?$CFd?$CC?6?$AA@ 0077ba88     Documents.obj
 0003:00014aa4       ??_C@_0BC@MHIJOOME@alignment?3?5?$CF3?42f?6?$AA@ 0077baa4     Documents.obj
 0003:00014abc       ??_C@_0BE@BFCHJGDM@parent_index?3?5?$CC?$CFd?$CC?6?$AA@ 0077babc     Documents.obj
 0003:00014ad4       ??_C@_0BD@MFAKKOBK@page_number?3?5?$CC?$CFd?$CC?6?$AA@ 0077bad4     Documents.obj
 0003:00014aec       ??_C@_0BD@BHEHCJIK@bom_options?3?5?$CC?$CFd?$CC?6?$AA@ 0077baec     Documents.obj
 0003:00014b04       ??_C@_0BJ@PDHLIOIK@netlist_completed?3?5?$CC?$CFd?$CC?6?$AA@ 0077bb04     Documents.obj
 0003:00014b24       ??_C@_0BC@LGCBIMLN@CAM_folder?3?5?$CC?$CFs?$CC?6?$AA@ 0077bb24     Documents.obj
 0003:00014b3c       ??_C@_0BL@INKAOGM@full_library_folder?3?5?$CC?$CFs?$CC?6?$AA@ 0077bb3c     Documents.obj
 0003:00014b5c       ??_C@_0BF@GJJCNOIF@parent_folder?3?5?$CC?$CFs?$CC?6?$AA@ 0077bb5c     Documents.obj
 0003:00014b78       ??_C@_0BG@PJECBPFH@library_folder?3?5?$CC?$CFs?$CC?6?$AA@ 0077bb78     Documents.obj
 0003:00014b94       ??_C@_0BE@OMAAGHCA@project_name?3?5?$CC?$CFs?$CC?6?$AA@ 0077bb94     Documents.obj
 0003:00014bac       ??_C@_0BF@BBLPNBFM@file_version?3?5?$CF5?43f?6?$AA@ 0077bbac     Documents.obj
 0003:00014bc8       ??_C@_0BA@PKENMDDE@version?3?5?$CF5?43f?6?$AA@ 0077bbc8     Documents.obj
 0003:00014bdc       ??_C@_0BC@KILFDIHA@app_folder?3?5?$CC?$CFs?$CC?6?$AA@ 0077bbdc     Documents.obj
 0003:00014bf4       ??_C@_0M@KBCAHLKH@?$FLoptions?$FN?6?6?$AA@ 0077bbf4     Documents.obj
 0003:00014c08       ??_C@_0ED@OMLHBNNJ@?M?e?b?n?g?l?n?f?m?n?5?n?r?j?p?$PL?r?$PM?5?t?$OA?i?k?5?c?k?n?a?$OA?k?$PM?m@ 0077bc08     Documents.obj
 0003:00014c58       ??_C@_0DM@DHHACNPP@Unable?5to?5open?5global?5configurat@ 0077bc58     Documents.obj
 0003:00014ca0       ??_C@_0IA@ODOKNJEO@?M?e?b?n?g?l?n?f?m?n?5?n?r?j?p?$PL?r?$PM?5?c?k?n?a?$OA?k?$PM?m?$PL?i?5?t?$OA@ 0077bca0     Documents.obj
 0003:00014d40       ??_C@_0FG@IOKCKNJE@Unable?5to?5open?5global?5configurat@ 0077bd40     Documents.obj
 0003:00014da8       ??_C@_0BB@PLGNANFD@?2default_cds?4cfg?$AA@ 0077bda8     Documents.obj
 0003:00014dbc       ??_C@_0DP@IDBLCNGM@?M?e?b?n?g?l?n?f?m?n?5?n?r?j?p?$PL?r?$PM?5?t?$OA?i?k?5?c?k?n?a?$OA?k?$PM?m@ 0077bdbc     Documents.obj
 0003:00014e08       ??_C@_0DI@KGIBBAGJ@Unable?5to?5open?5global?5configurat@ 0077be08     Documents.obj
 0003:00014e4c       ??_C@_0L@OBFHKFH@protected?3?$AA@ 0077be4c     Documents.obj
 0003:00014e60       ??_C@_0HM@KEFOBJNN@?M?e?b?n?g?l?n?f?m?n?5?n?r?j?p?$PL?r?$PM?5?c?k?n?a?$OA?k?$PM?m?$PL?i?5?t?$OA@ 0077be60     Documents.obj
 0003:00014ef8       ??_C@_0FC@CJIHHGON@Unable?5to?5open?5global?5configurat@ 0077bef8     Documents.obj
 0003:00014f5c       ??_C@_0N@PHBMMOOC@?2default?4cfg?$AA@ 0077bf5c     Documents.obj
 0003:00014f70       __real@4119d695555549f8    0077bf70     Documents.obj
 0003:00014f80       __real@4109d69555555432    0077bf80     Documents.obj
 0003:00014f90       __real@40ff018000000000    0077bf90     Documents.obj
 0003:00014fa0       __real@40f8ce0000000000    0077bfa0     Documents.obj
 0003:00014fb0       __real@40f4abaaaaaaa865    0077bfb0     Documents.obj
 0003:00014fc0       __real@40ef018000000000    0077bfc0     Documents.obj
 0003:00014fd0       __real@40e8ce0000000000    0077bfd0     Documents.obj
 0003:00014fe0       __real@412f018000000000    0077bfe0     Documents.obj
 0003:00014ff0       __real@412360f000000000    0077bff0     Documents.obj
 0003:00015000       __real@411f018000000000    0077c000     Documents.obj
 0003:00015010       __real@410f018000000000    0077c010     Documents.obj
 0003:00015020       __real@4178392c00000000    0077c020     Documents.obj
 0003:00015030       __real@4168392c00000000    0077c030     Documents.obj
 0003:00015040       __real@416360f000000000    0077c040     Documents.obj
 0003:00015050       __real@4158392c00000000    0077c050     Documents.obj
 0003:00015060       __real@415360f000000000    0077c060     Documents.obj
 0003:00015070       __real@4148392c00000000    0077c070     Documents.obj
 0003:00015080       __real@414360f000000000    0077c080     Documents.obj
 0003:0001508c       ??_C@_0N@BGOJBGKE@?4?4?2projects?2?$AA@ 0077c08c     Documents.obj
 0003:0001509c       ??_C@_0BM@JLFOPJBD@CFreePcbDoc?3?3SaveOptions?$CI?$CJ?6?$AA@ 0077c09c     Documents.obj
 0003:000150c0       ??_C@_0DP@NDEJEHPK@?N?x?h?a?j?$OA?$CB?5?M?e?b?n?g?l?n?f?m?n?5?q?n?u?p?$OA?m?h?r?$PM?5?q?b?$PP@ 0077c0c0     Documents.obj
 0003:0001510c       ??_C@_0DG@FLMIMPJM@Error?$CB?5Unable?5to?5save?5related?5fi@ 0077c10c     Documents.obj
 0003:00015150       ??_C@_0FD@FPKIGOJH@?M?e?r?k?h?q?r?5?a?$PL?k?5?n?a?m?n?b?k?$LI?m?5?w?e?p?e?g?5?p?e?d?$OA?j@ 0077c150     Documents.obj
 0003:000151b8       ??_C@_0EH@IGJANEDA@?$AN?6___________________________?$AN?6H@ 0077c1b8     Documents.obj
 0003:00015210       ??_C@_0DP@DGJOCGGN@Netlist?5created?5in?5the?5project?5f@ 0077c210     Documents.obj
 0003:00015260       ??_C@_0EM@LMPJBDDK@?H?q?o?p?$OA?b?$PM?r?e?5?n?x?h?a?j?h?0?5?q?b?$PP?g?$OA?m?m?$PL?e?5?q?5?d?e@ 0077c260     Documents.obj
 0003:000152bc       ??_C@_0DL@NDGPOOGG@Correct?5errors?5related?5to?5Parts?0@ 0077c2bc     Documents.obj
 0003:00015308       ??_C@_0EO@HOBAAEDG@?Q?r?p?$OA?m?h?v?$OA?5?o?p?n?e?j?r?$OA?5?q?u?e?l?$PL?5?d?n?k?f?m?$OA?5?q?n@ 0077c308     Documents.obj
 0003:00015368       ??_C@_0DO@JHEFFFMG@The?5schematic?5design?5page?5must?5c@ 0077c368     Documents.obj
 0003:000153b4       ??_C@_0CM@EFILDMFM@?H?q?o?p?$OA?b?$PM?r?e?5?n?x?h?a?j?h?5?$PN?k?4?v?e?o?e?i?5?m?$OA?5?$PN?r?n@ 0077c3b4     Documents.obj
 0003:000153e8       ??_C@_0CF@NDGNIEE@Correct?5netlist?5errors?5on?5this?5p@ 0077c3e8     Documents.obj
 0003:00015418       ??_C@_0HN@JGCJHNBI@?R?e?j?s?y?$OA?$PP?5?q?r?p?$OA?m?h?v?$OA?5?m?e?5?b?j?k?$PO?w?e?m?$OA?5?b?5?q@ 0077c418     Documents.obj
 0003:000154b0       ??_C@_0HO@KKAAPEPH@The?5current?5page?5is?5not?5included@ 0077c4b0     Documents.obj
 0003:00015548       ??_C@_06MBFCENLJ@Inner_?$AA@ 0077c548     Documents.obj
 0003:00015550       ??_C@_06DDHCBBGN@Bottom?$AA@ 0077c550     Documents.obj
 0003:00015558       ??_C@_03PGGAENPN@Top?$AA@  0077c558     Documents.obj
 0003:0001555c       ??_C@_06GKELNPHC@?$CKEND?$CK?6?$AA@ 0077c55c     Documents.obj
 0003:00015564       ??_C@_02MNMNLDAI@?$CJ?6?$AA@ 0077c564     Documents.obj
 0003:00015568       ??_C@_04BEJKANNF@Net?5?$AA@ 0077c568     Documents.obj
 0003:00015570       ??_C@_0BF@KBBLIFN@Append?5pins?5for?5net?5?$AA@ 0077c570     Documents.obj
 0003:0001558c       ??_C@_03LDBKEDPP@?3?$AN?6?$AA@ 0077c58c     Documents.obj
 0003:00015590       ??_C@_03PAIEMGKB@?$AN?6?7?$AA@ 0077c590     Documents.obj
 0003:00015594       ??_C@_02MMAPNJDP@?$CI?6?$AA@ 0077c594     Documents.obj
 0003:00015598       ??_C@_09JJPGPBOG@?$CKSIGNAL?$CK?5?$AA@ 0077c598     Documents.obj
 0003:000155a4       ??_C@_08OMLACPCA@?$AN?6FAIL?$AN?6?$AA@ 0077c5a4     Documents.obj
 0003:000155b0       ??_C@_0CM@MBDBMHL@?T?$OA?r?$OA?k?$PM?m?$OA?$PP?5?n?x?h?a?j?$OA?4?5?M?e?d?n?o?s?q?r?h?l?n?e?5?h@ 0077c5b0     Documents.obj
 0003:000155e4       ??_C@_0BF@HFCBILKG@?0?5?o?p?n?v?e?q?q?5?n?q?r?$OA?m?n?b?k?e?m?$AA@ 0077c5e4     Documents.obj
 0003:00015600       ??_C@_0BK@KOOOBFPO@Fatal?4?4?5Invalid?5net?5name?5?$AA@ 0077c600     Documents.obj
 0003:00015620       ??_C@_0BC@LJLADNDE@?0?5process?5stopped?$AA@ 0077c620     Documents.obj
 0003:00015638       ??_C@_03NPGNIJG@NET?$AA@   0077c638     Documents.obj
 0003:0001563c       ??_C@_06CHEFEJDP@?$CKNET?$CK?6?$AA@ 0077c63c     Documents.obj
 0003:00015644       ??_C@_0BN@NBKBDFPN@Nets?5included?5in?5the?5listing?$AA@ 0077c644     Documents.obj
 0003:00015668       ??_C@_04DABHAHJL@?0?5?5?5?$AA@ 0077c668     Documents.obj
 0003:00015670       ??_C@_02JKLIAPDG@?$FL?6?$AA@ 0077c670     Documents.obj
 0003:00015674       ??_C@_04BOFCFGOI@?6?6?6?$FN?$AA@ 0077c674     Documents.obj
 0003:0001567c       ??_C@_06CJMHGHNB@?$CFs?5?5?$CFs?$AA@ 0077c67c     Documents.obj
 0003:00015684       ??_C@_09CHHADFO@?$CFs?5?5?$CFs?$EA?$CFs?$AA@ 0077c684     Documents.obj
 0003:00015690       ??_C@_07NMDDEBJE@?$CKPART?$CK?6?$AA@ 0077c690     Documents.obj
 0003:0001569c       ??_C@_0BO@CHNAPGPC@Parts?5included?5in?5the?5listing?$AA@ 0077c69c     Documents.obj
 0003:000156c0       ??_C@_0M@GEKCNEKF@?$CKPADS?9PCB?$CK?6?$AA@ 0077c6c0     Documents.obj
 0003:000156d0       ??_C@_0M@PIPDPGGB@gerberlogix?$AA@ 0077c6d0     Documents.obj
 0003:000156e0       ??_C@_05PJBODAKK@gerbv?$AA@ 0077c6e0     Documents.obj
 0003:000156e8       ??_C@_08DDAIMIFB@viewmate?$AA@ 0077c6e8     Documents.obj
 0003:000156f4       ??_C@_0DL@LBEFOAOD@?D?k?$PP?5?c?e?m?e?p?$OA?v?h?h?5?$PN?r?n?c?n?5?t?$OA?i?k?$OA?5?d?n?k?f?m?$PL@ 0077c6f4     Documents.obj
 0003:0001573c       ??_C@_0DC@PCCIJCHA@A?5outline?5must?5be?5present?5for?5CA@ 0077c73c     Documents.obj
 0003:00015778       ??_C@_0EE@JFAHBGDE@?$CFd?5?d?e?r?$OA?k?e?i?5?$OA?d?$OA?o?r?h?p?n?b?$OA?m?n?6?$CFd?5?k?h?m?h?i@ 0077c778     Documents.obj
 0003:000157cc       ??_C@_0DE@ILKMENBD@?$CFd?5part?$CIs?$CJ?5adapted?6?$CFd?5lines?5adap@ 0077c7cc     Documents.obj
 0003:00015810       ??_C@_0FM@CGHAMEIJ@?$NN?r?$OA?5?c?p?s?o?o?$OA?5?o?n?k?h?k?h?m?h?i?5?s?f?e?5?$OA?d?$OA?o?r?h?p@ 0077c810     Documents.obj
 0003:00015880       ??_C@_0FO@MBKLMPCI@This?5polyline?5group?5has?5already?5@ 0077c880     Documents.obj
 0003:000158f0       ??_C@_0CM@JDFMLDOL@?$CFd?5?d?e?r?$OA?k?e?i?5?$OA?d?$OA?o?r?h?p?n?b?$OA?m?$PL?5?a?e?g?5?o?n?r?e@ 0077c8f0     Documents.obj
 0003:00015924       ??_C@_0CJ@JLNBMNHE@?$CFd?5part?$CIs?$CJ?5adapted?5without?5graph@ 0077c924     Documents.obj
 0003:00015958       ??_C@_0DN@HKDBCKAG@?$NN?r?$OA?5?c?p?s?o?o?$OA?5?o?n?k?h?k?h?m?h?i?5?s?f?e?5?$OA?d?$OA?o?r?h?p@ 0077c958     Documents.obj
 0003:000159a8       ??_C@_0EH@GKEJMKPE@This?5polyline?5group?5has?5already?5@ 0077c9a8     Documents.obj
 0003:00015a00       ??_C@_0BK@OJBIJIBM@?Q?m?$OA?w?$OA?k?$OA?5?b?$PL?a?e?p?h?r?e?5?n?a?z?e?j?r?$PL?4?$AA@ 0077ca00     Documents.obj
 0003:00015a20       ??_C@_0BG@GJICDIBH@First?5select?5objects?4?$AA@ 0077ca20     Documents.obj
 0003:00015a3c       ??_C@_0BN@BBAEMDO@?$NN?r?$OA?5?o?e?w?$OA?r?m?$OA?$PP?5?o?k?$OA?r?$OA?5?g?$OA?y?h?y?e?m?$OA?4?$AA@ 0077ca3c     Documents.obj
 0003:00015a60       ??_C@_0BH@NPGJFHLC@This?5PCB?5is?5protected?4?$AA@ 0077ca60     Documents.obj
 0003:00015a7c       ??_C@_0BL@ENMNPMCA@?2related_files?2reports?2tag?$AA@ 0077ca7c     Documents.obj
 0003:00015a9c       ??_C@_02JPEBCGCN@?5?$CC?$AA@ 0077ca9c     Documents.obj
 0003:00015aa0       ??_C@_06BJKHIIEJ@pages?3?$AA@ 0077caa0     Documents.obj
 0003:00015aa8       ??_C@_0DD@CPLBKOIJ@?B?5?m?$OA?q?r?n?$PP?y?e?e?5?b?p?e?l?$PP?5?o?n?d?d?e?p?f?h?b?$OA?$PO?r?q?$PP@ 0077caa8     Documents.obj
 0003:00015ae8       ??_C@_0CI@OCBIFGC@Currently?5only?5cds?5files?5are?5sup@ 0077cae8     Documents.obj
 0003:00015b18       ??_C@_08BOCJJAMF@?4pcbview?$AA@ 0077cb18     Documents.obj
 0003:00015b28       ??_C@_0JA@DHCNJOJE@?B?q?r?$OA?b?j?$OA?5?d?$OA?m?m?$PL?u?5?h?g?5?b?m?e?x?m?h?u?5?p?e?q?s?p?q@ 0077cb28     Documents.obj
 0003:00015bd8       ??_C@_0IO@FLCEBACI@Inserting?5data?5from?5external?5res@ 0077cbd8     Documents.obj
 0003:00015c88       ??_C@_0JN@IHLHIHJE@?B?5?j?$OA?r?$OA?k?n?c?e?5?Q?u?e?l?$MA?r?n?p?$OA?5?e?q?r?$PM?5?o?$OA?o?j?$OA?5@ 0077cc88     Documents.obj
 0003:00015d48       ??_C@_0KB@EJNNLAJB@There?5is?5a?5?8Shortcut?8?5folder?5in?5@ 0077cd48     Documents.obj
 0003:00015e0c       ??_C@_08HADIGFPG@ViewMate?$AA@ 0077ce0c     Documents.obj
 0003:00015e18       ??_C@_04OEDFLLKD@?$CC?$CFs?$CC?$AA@ 0077ce18     Documents.obj
 0003:00015e20       ??_C@_02KOPDJAMB@?$CC?5?$AA@ 0077ce20     Documents.obj
 0003:00015e28       __real@3f50624dd2f1a9fc    0077ce28     Documents.obj
 0003:00015e38       __real@41dfffffffc00000    0077ce38     Documents.obj
 0003:00015e48       ??_C@_0EB@KDKJDHEN@?B?$PL?a?p?$OA?m?m?$PL?e?5?o?n?k?h?k?h?m?h?h?5?m?e?5?o?e?p?e?q?e?j?$OA?$PO@ 0077ce48     Documents.obj
 0003:00015e98       ??_C@_0EG@JPJEHKOE@Selected?5polylines?5do?5not?5inters@ 0077ce98     Documents.obj
 0003:00015eec       ??_C@_0DF@DMEPBPDF@?M?e?k?$PM?g?$PP?5?j?n?l?a?h?m?h?p?n?b?$OA?r?$PM?5?o?n?k?h?k?h?m?h?h?5?q@ 0077ceec     Documents.obj
 0003:00015f2c       ??_C@_0DI@KBOAFLEC@You?5cannot?5combine?5polylines?5wit@ 0077cf2c     Documents.obj
 0003:00015f70       ??_C@_0DA@NJEBKOFG@?D?k?$PP?5?$PN?r?n?i?5?n?o?v?h?h?5?o?n?k?h?k?h?m?h?$PP?5?d?n?k?f?m?$OA?5@ 0077cf70     Documents.obj
 0003:00015fac       ??_C@_0CJ@NHANIPBA@Polyline?5must?5be?5closed?5for?5this@ 0077cfac     Documents.obj
 0003:00015fe0       ??_C@_0DC@ODCKPHLA@If?5they?5are?5complex?0?5this?5may?5ta@ 0077cfe0     Documents.obj
 0003:0001601c       ??_C@_0DF@COJBDJJH@Polylines?5?$CFd?5and?5?$CFd?5intersect?5an@ 0077d01c     Documents.obj
 0003:0001605c       ??_C@_0BJ@OJGKHPB@?M?e?r?5?b?$PL?a?p?$OA?m?m?$PL?u?5?o?n?k?h?k?h?m?h?i?$CB?$AA@ 0077d05c     Documents.obj
 0003:0001607c       ??_C@_0BH@CDGEPINI@No?5selected?5polylines?$CB?$AA@ 0077d07c     Documents.obj
